Certificate:
    Data:
        Version: 3 (0x2)
        Serial Number: 14 (0xe)
        Signature Algorithm: md5WithRSAEncryption
        Issuer: C=RU, ST=NA, L=TOGLIATTI, O=INZA-LTD-AIST, CN=server/emailAddress=pavel@kusto.com.ru
        Validity
            Not Before: Mar  4 06:44:30 2009 GMT
            Not After : Mar  2 06:44:30 2019 GMT
        Subject: C=RU, ST=NA, O=INZA-LTD-AIST, OU=aisttes, CN=aisttes/emailAddress=pavel@kusto.com.ru
        Subject Public Key Info:
            Public Key Algorithm: rsaEncryption
            RSA Public Key: (1024 bit)
                Modulus (1024 bit):
                    00:ae:d8:30:79:69:39:84:24:61:51:50:45:29:f4:
                    f8:ef:6d:63:19:ff:c3:b6:26:c9:90:e1:9d:36:2a:
                    81:26:66:28:e8:83:85:fa:65:38:43:c1:e5:b4:9b:
                    ce:14:96:b5:4e:7c:36:80:10:f7:12:30:af:c2:bf:
                    b0:87:f8:11:04:b3:50:e6:48:9f:18:eb:53:61:0c:
                    b7:cf:2a:2e:64:13:57:91:2a:ca:91:35:96:f6:81:
                    04:55:18:9e:69:21:d3:b2:32:98:1d:d9:64:1d:e2:
                    80:bc:40:52:dd:ff:80:53:60:50:c8:5e:db:d9:a6:
                    e3:8f:e9:f4:5c:83:66:79:7f
                Exponent: 65537 (0x10001)
        X509v3 extensions:
            X509v3 Basic Constraints: 
                CA:FALSE
            Netscape Comment: 
                OpenSSL Generated Certificate
            X509v3 Subject Key Identifier: 
                D1:68:8E:BC:BA:92:FF:D1:42:64:74:25:B3:61:F8:01:B0:97:00:8B
            X509v3 Authority Key Identifier: 
                keyid:F6:7C:E6:FB:14:B7:F6:C1:5E:03:99:12:AA:ED:40:E4:44:12:76:38
                DirName:/C=RU/ST=NA/L=TOGLIATTI/O=INZA-LTD-AIST/CN=server/emailAddress=pavel@kusto.com.ru
                serial:00

    Signature Algorithm: md5WithRSAEncryption
        bd:1d:61:e3:1e:39:b3:87:0d:c2:2d:7e:d7:0c:9e:8d:92:87:
        39:d5:b8:a0:a2:26:90:50:c8:54:d2:3f:c6:36:22:3c:14:3a:
        cd:ca:6f:6b:ae:f7:38:fc:4d:77:22:99:ea:fc:85:65:26:6a:
        a3:bd:dd:94:2e:28:c6:e3:72:14:1b:e5:f9:24:99:c7:76:f2:
        81:a3:94:04:57:fe:64:74:55:88:3b:3a:5f:c5:a3:55:1d:65:
        46:6c:db:ee:84:fd:b3:6f:c9:27:b5:7c:6a:a0:e9:67:c0:00:
        8a:0b:68:4b:0c:82:ff:ac:9d:46:a5:32:0e:cd:ed:f5:19:13:
        db:84
-----BEGIN CERTIFICATE-----
MIIDbTCCAtagAwIBAgIBDjANBgkqhkiG9w0BAQQFADB6MQswCQYDVQQGEwJSVTEL
MAkGA1UECBMCTkExEjAQBgNVBAcTCVRPR0xJQVRUSTEWMBQGA1UEChMNSU5aQS1M
VEQtQUlTVDEPMA0GA1UEAxMGc2VydmVyMSEwHwYJKoZIhvcNAQkBFhJwYXZlbEBr
dXN0by5jb20ucnUwHhcNMDkwMzA0MDY0NDMwWhcNMTkwMzAyMDY0NDMwWjB5MQsw
CQYDVQQGEwJSVTELMAkGA1UECBMCTkExFjAUBgNVBAoTDUlOWkEtTFRELUFJU1Qx
EDAOBgNVBAsTB2Fpc3R0ZXMxEDAOBgNVBAMTB2Fpc3R0ZXMxITAfBgkqhkiG9w0B
CQEWEnBhdmVsQGt1c3RvLmNvbS5ydTCBnzANBgkqhkiG9w0BAQEFAAOBjQAwgYkC
gYEArtgweWk5hCRhUVBFKfT4721jGf/DtibJkOGdNiqBJmYo6IOF+mU4Q8HltJvO
FJa1Tnw2gBD3EjCvwr+wh/gRBLNQ5kifGOtTYQy3zyouZBNXkSrKkTWW9oEEVRie
aSHTsjKYHdlkHeKAvEBS3f+AU2BQyF7b2abjj+n0XINmeX8CAwEAAaOCAQIwgf8w
CQYDVR0TBAIwADAsBglghkgBhvhCAQ0EHxYdT3BlblNTTCBHZW5lcmF0ZWQgQ2Vy
dGlmaWNhdGUwHQYDVR0OBBYEFNFojry6kv/RQmR0JbNh+AGwlwCLMIGkBgNVHSME
gZwwgZmAFPZ85vsUt/bBXgOZEqrtQOREEnY4oX6kfDB6MQswCQYDVQQGEwJSVTEL
MAkGA1UECBMCTkExEjAQBgNVBAcTCVRPR0xJQVRUSTEWMBQGA1UEChMNSU5aQS1M
VEQtQUlTVDEPMA0GA1UEAxMGc2VydmVyMSEwHwYJKoZIhvcNAQkBFhJwYXZlbEBr
dXN0by5jb20ucnWCAQAwDQYJKoZIhvcNAQEEBQADgYEAvR1h4x45s4cNwi1+1wye
jZKHOdW4oKImkFDIVNI/xjYiPBQ6zcpva673OPxNdyKZ6vyFZSZqo73dlC4oxuNy
FBvl+SSZx3bygaOUBFf+ZHRViDs6X8WjVR1lRmzb7oT9s2/JJ7V8aqDpZ8AAigto
SwyC/6ydRqUyDs3t9RkT24Q=
-----END CERTIFICATE-----
