Certificate:
    Data:
        Version: 3 (0x2)
        Serial Number: 16 (0x10)
        Signature Algorithm: md5WithRSAEncryption
        Issuer: C=RU, ST=NA, L=TOGLIATTI, O=INZA-LTD-AIST, CN=server/emailAddress=pavel@kusto.com.ru
        Validity
            Not Before: Mar  7 14:38:10 2009 GMT
            Not After : Mar  5 14:38:10 2019 GMT
        Subject: C=RU, ST=NA, O=INZA-LTD-AIST, OU=pelican18kv2, CN=pelican18kv2/emailAddress=pavel@kusto.com.ru
        Subject Public Key Info:
            Public Key Algorithm: rsaEncryption
            RSA Public Key: (1024 bit)
                Modulus (1024 bit):
                    00:d8:e5:b1:43:20:55:8d:15:9c:0c:9a:44:ea:03:
                    10:77:4e:25:da:db:bf:f7:3b:09:e8:15:9f:7e:56:
                    9a:a3:e3:67:cd:3a:70:75:f3:d6:45:cf:a1:e2:75:
                    07:dd:c8:ca:62:1b:da:04:fa:1f:c4:24:18:3c:7e:
                    aa:d7:ec:8e:f4:6c:ea:e4:7e:17:f7:2d:23:68:e8:
                    07:68:b6:4e:a2:7d:2d:d7:a5:e5:3f:23:38:6a:cd:
                    ff:43:e4:54:2a:78:ae:41:06:cd:96:ce:3e:fa:f0:
                    cb:e7:ce:10:1a:04:a4:d3:20:0b:dc:d7:60:b3:1d:
                    ea:b7:f0:5e:d4:68:66:69:d1
                Exponent: 65537 (0x10001)
        X509v3 extensions:
            X509v3 Basic Constraints: 
                CA:FALSE
            Netscape Comment: 
                OpenSSL Generated Certificate
            X509v3 Subject Key Identifier: 
                64:19:29:30:C0:75:72:B6:CB:37:E1:18:DF:9D:F8:90:D3:F3:2C:0A
            X509v3 Authority Key Identifier: 
                keyid:F6:7C:E6:FB:14:B7:F6:C1:5E:03:99:12:AA:ED:40:E4:44:12:76:38
                DirName:/C=RU/ST=NA/L=TOGLIATTI/O=INZA-LTD-AIST/CN=server/emailAddress=pavel@kusto.com.ru
                serial:00

    Signature Algorithm: md5WithRSAEncryption
        6e:f2:f7:4c:f4:16:3f:68:ee:d8:a0:c7:6b:3d:6a:68:b3:7b:
        10:37:d6:20:09:f7:d6:4c:69:f4:8f:a0:93:92:45:13:88:be:
        c5:c1:be:d1:30:92:6c:b7:49:b5:9b:08:59:b9:78:1a:9e:07:
        a0:38:18:c1:c5:28:ce:8a:ba:19:0f:e2:90:33:07:7e:7a:94:
        9b:c9:2e:16:06:0f:28:60:b7:1f:46:14:9c:9a:5d:5b:9a:e4:
        8e:e9:14:85:c2:d9:d6:a6:96:7f:af:9c:0b:9c:8a:a2:f4:3e:
        00:0d:91:06:35:35:92:ec:f4:72:f3:3b:bf:81:3f:85:7d:1d:
        05:f6
-----BEGIN CERTIFICATE-----
MIIDeDCCAuGgAwIBAgIBEDANBgkqhkiG9w0BAQQFADB6MQswCQYDVQQGEwJSVTEL
MAkGA1UECBMCTkExEjAQBgNVBAcTCVRPR0xJQVRUSTEWMBQGA1UEChMNSU5aQS1M
VEQtQUlTVDEPMA0GA1UEAxMGc2VydmVyMSEwHwYJKoZIhvcNAQkBFhJwYXZlbEBr
dXN0by5jb20ucnUwHhcNMDkwMzA3MTQzODEwWhcNMTkwMzA1MTQzODEwWjCBgzEL
MAkGA1UEBhMCUlUxCzAJBgNVBAgTAk5BMRYwFAYDVQQKEw1JTlpBLUxURC1BSVNU
MRUwEwYDVQQLEwxwZWxpY2FuMThrdjIxFTATBgNVBAMTDHBlbGljYW4xOGt2MjEh
MB8GCSqGSIb3DQEJARYScGF2ZWxAa3VzdG8uY29tLnJ1MIGfMA0GCSqGSIb3DQEB
AQUAA4GNADCBiQKBgQDY5bFDIFWNFZwMmkTqAxB3TiXa27/3OwnoFZ9+Vpqj42fN
OnB189ZFz6HidQfdyMpiG9oE+h/EJBg8fqrX7I70bOrkfhf3LSNo6Adotk6ifS3X
peU/Izhqzf9D5FQqeK5BBs2Wzj768MvnzhAaBKTTIAvc12CzHeq38F7UaGZp0QID
AQABo4IBAjCB/zAJBgNVHRMEAjAAMCwGCWCGSAGG+EIBDQQfFh1PcGVuU1NMIEdl
bmVyYXRlZCBDZXJ0aWZpY2F0ZTAdBgNVHQ4EFgQUZBkpMMB1crbLN+EY3534kNPz
LAowgaQGA1UdIwSBnDCBmYAU9nzm+xS39sFeA5kSqu1A5EQSdjihfqR8MHoxCzAJ
BgNVBAYTAlJVMQswCQYDVQQIEwJOQTESMBAGA1UEBxMJVE9HTElBVFRJMRYwFAYD
VQQKEw1JTlpBLUxURC1BSVNUMQ8wDQYDVQQDEwZzZXJ2ZXIxITAfBgkqhkiG9w0B
CQEWEnBhdmVsQGt1c3RvLmNvbS5ydYIBADANBgkqhkiG9w0BAQQFAAOBgQBu8vdM
9BY/aO7YoMdrPWpos3sQN9YgCffWTGn0j6CTkkUTiL7Fwb7RMJJst0m1mwhZuXga
ngegOBjBxSjOiroZD+KQMwd+epSbyS4WBg8oYLcfRhScml1bmuSO6RSFwtnWppZ/
r5wLnIqi9D4ADZEGNTWS7PRy8zu/gT+FfR0F9g==
-----END CERTIFICATE-----
