Certificate:
    Data:
        Version: 3 (0x2)
        Serial Number: 17 (0x11)
        Signature Algorithm: md5WithRSAEncryption
        Issuer: C=RU, ST=NA, L=TOGLIATTI, O=INZA-LTD-AIST, CN=server/emailAddress=pavel@kusto.com.ru
        Validity
            Not Before: Mar  7 15:14:51 2009 GMT
            Not After : Mar  5 15:14:51 2019 GMT
        Subject: C=RU, ST=NA, O=INZA-LTD-AIST, OU=18kv2, CN=18kv2/emailAddress=18kv2
        Subject Public Key Info:
            Public Key Algorithm: rsaEncryption
            RSA Public Key: (1024 bit)
                Modulus (1024 bit):
                    00:c4:a8:62:76:a8:84:a0:09:63:38:9d:0b:49:f7:
                    89:0e:cb:ca:98:d7:f5:4a:a7:ef:66:82:e7:98:64:
                    a7:09:54:45:56:6b:66:14:d6:28:03:ab:85:2e:a5:
                    78:f1:e9:d7:78:68:e7:a9:3f:c7:60:79:c0:6e:ba:
                    05:36:0c:e3:6a:e6:93:93:20:2a:eb:a9:9b:96:8d:
                    5e:da:fb:02:c2:ad:35:dd:12:1c:0b:db:13:d1:e8:
                    7d:f0:31:c6:a0:ab:78:3a:e4:5e:68:27:95:3d:43:
                    53:3c:1f:1f:fb:f2:89:84:83:94:67:73:0a:84:a3:
                    09:6e:68:1e:80:90:19:b3:df
                Exponent: 65537 (0x10001)
        X509v3 extensions:
            X509v3 Basic Constraints: 
                CA:FALSE
            Netscape Comment: 
                OpenSSL Generated Certificate
            X509v3 Subject Key Identifier: 
                4D:0D:2E:6E:3D:91:F9:7A:71:B9:CA:5A:27:3B:50:40:57:CB:A9:F9
            X509v3 Authority Key Identifier: 
                keyid:F6:7C:E6:FB:14:B7:F6:C1:5E:03:99:12:AA:ED:40:E4:44:12:76:38
                DirName:/C=RU/ST=NA/L=TOGLIATTI/O=INZA-LTD-AIST/CN=server/emailAddress=pavel@kusto.com.ru
                serial:00

    Signature Algorithm: md5WithRSAEncryption
        63:e7:8e:7b:cf:5e:06:14:19:d3:58:e0:47:31:21:27:39:7c:
        1e:fb:c7:f7:61:69:6f:f3:89:84:20:d6:e6:94:ad:dd:75:5d:
        ef:51:60:44:de:e0:9e:e5:43:d4:00:76:ac:4e:5b:7e:30:3c:
        d8:db:a1:bd:61:a1:3a:63:7e:d4:1b:9c:f2:0a:a8:7d:04:d8:
        b4:e5:25:e1:c8:2e:f1:6a:d7:18:39:10:3e:48:78:a1:92:18:
        49:d1:0b:a2:cd:c8:fe:48:f5:7e:4a:55:05:e6:f1:41:1e:20:
        09:f8:1c:a9:1a:ea:e7:16:af:f8:b3:b5:1d:81:dd:3a:1f:aa:
        42:3a
-----BEGIN CERTIFICATE-----
MIIDXDCCAsWgAwIBAgIBETANBgkqhkiG9w0BAQQFADB6MQswCQYDVQQGEwJSVTEL
MAkGA1UECBMCTkExEjAQBgNVBAcTCVRPR0xJQVRUSTEWMBQGA1UEChMNSU5aQS1M
VEQtQUlTVDEPMA0GA1UEAxMGc2VydmVyMSEwHwYJKoZIhvcNAQkBFhJwYXZlbEBr
dXN0by5jb20ucnUwHhcNMDkwMzA3MTUxNDUxWhcNMTkwMzA1MTUxNDUxWjBoMQsw
CQYDVQQGEwJSVTELMAkGA1UECBMCTkExFjAUBgNVBAoTDUlOWkEtTFRELUFJU1Qx
DjAMBgNVBAsTBTE4a3YyMQ4wDAYDVQQDEwUxOGt2MjEUMBIGCSqGSIb3DQEJARYF
MThrdjIwgZ8wDQYJKoZIhvcNAQEBBQADgY0AMIGJAoGBAMSoYnaohKAJYzidC0n3
iQ7LypjX9Uqn72aC55hkpwlURVZrZhTWKAOrhS6lePHp13ho56k/x2B5wG66BTYM
42rmk5MgKuupm5aNXtr7AsKtNd0SHAvbE9HoffAxxqCreDrkXmgnlT1DUzwfH/vy
iYSDlGdzCoSjCW5oHoCQGbPfAgMBAAGjggECMIH/MAkGA1UdEwQCMAAwLAYJYIZI
AYb4QgENBB8WHU9wZW5TU0wgR2VuZXJhdGVkIENlcnRpZmljYXRlMB0GA1UdDgQW
BBRNDS5uPZH5enG5ylonO1BAV8up+TCBpAYDVR0jBIGcMIGZgBT2fOb7FLf2wV4D
mRKq7UDkRBJ2OKF+pHwwejELMAkGA1UEBhMCUlUxCzAJBgNVBAgTAk5BMRIwEAYD
VQQHEwlUT0dMSUFUVEkxFjAUBgNVBAoTDUlOWkEtTFRELUFJU1QxDzANBgNVBAMT
BnNlcnZlcjEhMB8GCSqGSIb3DQEJARYScGF2ZWxAa3VzdG8uY29tLnJ1ggEAMA0G
CSqGSIb3DQEBBAUAA4GBAGPnjnvPXgYUGdNY4EcxISc5fB77x/dhaW/ziYQg1uaU
rd11Xe9RYETe4J7lQ9QAdqxOW34wPNjbob1hoTpjftQbnPIKqH0E2LTlJeHILvFq
1xg5ED5IeKGSGEnRC6LNyP5I9X5KVQXm8UEeIAn4HKka6ucWr/iztR2B3TofqkI6
-----END CERTIFICATE-----
