Certificate:
    Data:
        Version: 3 (0x2)
        Serial Number: 19 (0x13)
        Signature Algorithm: md5WithRSAEncryption
        Issuer: C=RU, ST=NA, L=TOGLIATTI, O=INZA-LTD-AIST, CN=server/emailAddress=pavel@kusto.com.ru
        Validity
            Not Before: Mar 17 06:47:35 2009 GMT
            Not After : Mar 15 06:47:35 2019 GMT
        Subject: C=RU, ST=NA, O=INZA-LTD-AIST, OU=pelican14_2, CN=pelican14_2/emailAddress=pavel@kusto.com.ru
        Subject Public Key Info:
            Public Key Algorithm: rsaEncryption
            RSA Public Key: (1024 bit)
                Modulus (1024 bit):
                    00:b6:99:49:7d:1b:e4:4e:d3:af:e8:32:c9:92:37:
                    94:b7:16:41:ff:ff:c2:ba:13:30:f3:78:db:94:82:
                    dd:d7:4e:ae:71:97:11:5f:75:a2:a0:71:86:36:85:
                    f3:a0:20:45:6b:e8:ad:c7:f3:1a:fe:b3:b3:7d:e6:
                    4c:96:b8:b1:a9:b4:1d:1f:7e:de:27:18:63:a3:5e:
                    4f:ac:98:59:f0:32:fd:25:eb:8d:83:96:7e:85:46:
                    a4:7b:a7:7d:59:7d:6c:58:0f:67:6a:4e:6e:9f:5b:
                    a5:ea:32:9a:6e:aa:66:3d:a9:81:db:21:0c:97:4f:
                    f4:4d:79:29:3b:f2:a4:c9:f5
                Exponent: 65537 (0x10001)
        X509v3 extensions:
            X509v3 Basic Constraints: 
                CA:FALSE
            Netscape Comment: 
                OpenSSL Generated Certificate
            X509v3 Subject Key Identifier: 
                08:E3:93:0D:E9:A7:3B:70:21:55:95:BC:CC:82:F8:3F:98:79:E2:3D
            X509v3 Authority Key Identifier: 
                keyid:F6:7C:E6:FB:14:B7:F6:C1:5E:03:99:12:AA:ED:40:E4:44:12:76:38
                DirName:/C=RU/ST=NA/L=TOGLIATTI/O=INZA-LTD-AIST/CN=server/emailAddress=pavel@kusto.com.ru
                serial:00

    Signature Algorithm: md5WithRSAEncryption
        00:05:24:99:ba:bb:5c:fb:d7:a1:fe:b0:30:98:5e:0a:79:cf:
        7a:ae:65:29:59:9d:c3:6c:15:b7:f8:4f:ae:67:b2:6d:f1:2a:
        90:f8:74:dc:ab:d9:4a:29:a3:2d:73:89:38:95:ff:60:be:e9:
        4e:64:0f:5f:14:ab:be:8d:52:0d:99:8a:94:91:49:a7:68:2d:
        38:02:f1:a7:a8:19:c9:f4:7a:98:29:d8:81:6b:55:bb:13:57:
        33:43:1f:c8:91:26:1f:44:10:24:ee:13:fa:8a:02:18:89:a0:
        44:db:8c:75:ef:e5:b3:01:ee:e1:59:d7:55:9f:21:5a:69:bb:
        27:c5
-----BEGIN CERTIFICATE-----
MIIDdjCCAt+gAwIBAgIBEzANBgkqhkiG9w0BAQQFADB6MQswCQYDVQQGEwJSVTEL
MAkGA1UECBMCTkExEjAQBgNVBAcTCVRPR0xJQVRUSTEWMBQGA1UEChMNSU5aQS1M
VEQtQUlTVDEPMA0GA1UEAxMGc2VydmVyMSEwHwYJKoZIhvcNAQkBFhJwYXZlbEBr
dXN0by5jb20ucnUwHhcNMDkwMzE3MDY0NzM1WhcNMTkwMzE1MDY0NzM1WjCBgTEL
MAkGA1UEBhMCUlUxCzAJBgNVBAgTAk5BMRYwFAYDVQQKEw1JTlpBLUxURC1BSVNU
MRQwEgYDVQQLFAtwZWxpY2FuMTRfMjEUMBIGA1UEAxQLcGVsaWNhbjE0XzIxITAf
BgkqhkiG9w0BCQEWEnBhdmVsQGt1c3RvLmNvbS5ydTCBnzANBgkqhkiG9w0BAQEF
AAOBjQAwgYkCgYEAtplJfRvkTtOv6DLJkjeUtxZB///CuhMw83jblILd106ucZcR
X3WioHGGNoXzoCBFa+itx/Ma/rOzfeZMlrixqbQdH37eJxhjo15PrJhZ8DL9JeuN
g5Z+hUake6d9WX1sWA9nak5un1ul6jKabqpmPamB2yEMl0/0TXkpO/KkyfUCAwEA
AaOCAQIwgf8wCQYDVR0TBAIwADAsBglghkgBhvhCAQ0EHxYdT3BlblNTTCBHZW5l
cmF0ZWQgQ2VydGlmaWNhdGUwHQYDVR0OBBYEFAjjkw3ppztwIVWVvMyC+D+YeeI9
MIGkBgNVHSMEgZwwgZmAFPZ85vsUt/bBXgOZEqrtQOREEnY4oX6kfDB6MQswCQYD
VQQGEwJSVTELMAkGA1UECBMCTkExEjAQBgNVBAcTCVRPR0xJQVRUSTEWMBQGA1UE
ChMNSU5aQS1MVEQtQUlTVDEPMA0GA1UEAxMGc2VydmVyMSEwHwYJKoZIhvcNAQkB
FhJwYXZlbEBrdXN0by5jb20ucnWCAQAwDQYJKoZIhvcNAQEEBQADgYEAAAUkmbq7
XPvXof6wMJheCnnPeq5lKVmdw2wVt/hPrmeybfEqkPh03KvZSimjLXOJOJX/YL7p
TmQPXxSrvo1SDZmKlJFJp2gtOALxp6gZyfR6mCnYgWtVuxNXM0MfyJEmH0QQJO4T
+ooCGImgRNuMde/lswHu4VnXVZ8hWmm7J8U=
-----END CERTIFICATE-----
