Certificate:
    Data:
        Version: 3 (0x2)
        Serial Number: 21 (0x15)
        Signature Algorithm: md5WithRSAEncryption
        Issuer: C=RU, ST=NA, L=TOGLIATTI, O=INZA-LTD-AIST, CN=server/emailAddress=pavel@kusto.com.ru
        Validity
            Not Before: Apr 27 09:11:09 2009 GMT
            Not After : Apr 25 09:11:09 2019 GMT
        Subject: C=RU, ST=NA, O=INZA-LTD-AIST, OU=pelican1_2, CN=pelican1_2/emailAddress=pavel@kusto.com.ru
        Subject Public Key Info:
            Public Key Algorithm: rsaEncryption
            RSA Public Key: (1024 bit)
                Modulus (1024 bit):
                    00:a2:22:c9:d2:7c:c6:2d:de:a5:2e:c7:9a:b4:57:
                    ee:fd:2a:e7:88:d4:b9:0d:04:d9:b1:85:eb:fd:69:
                    7e:ec:eb:66:7b:75:e2:e7:77:df:0f:3f:4e:38:29:
                    12:1f:f2:4a:da:89:20:1f:87:07:eb:12:15:b9:c4:
                    f7:5d:c7:ca:cb:57:a9:71:30:2d:a2:e0:2d:a9:5f:
                    5d:5f:8b:f1:aa:21:95:e6:c8:0a:eb:05:ca:4a:5b:
                    ee:52:f5:8e:f5:00:96:30:eb:5e:ff:19:c5:07:cd:
                    f9:4f:19:f7:a9:27:1d:00:59:82:1d:22:d9:a0:7d:
                    b8:19:0c:be:f3:6f:04:ad:ab
                Exponent: 65537 (0x10001)
        X509v3 extensions:
            X509v3 Basic Constraints: 
                CA:FALSE
            Netscape Comment: 
                OpenSSL Generated Certificate
            X509v3 Subject Key Identifier: 
                6A:3E:DA:95:52:B9:A2:CB:22:D5:C6:B3:28:99:6F:59:5B:5A:D5:6F
            X509v3 Authority Key Identifier: 
                keyid:F6:7C:E6:FB:14:B7:F6:C1:5E:03:99:12:AA:ED:40:E4:44:12:76:38
                DirName:/C=RU/ST=NA/L=TOGLIATTI/O=INZA-LTD-AIST/CN=server/emailAddress=pavel@kusto.com.ru
                serial:00

    Signature Algorithm: md5WithRSAEncryption
        43:f8:52:65:33:11:d8:ac:e6:b0:69:1d:f3:5c:52:a8:03:b3:
        9b:55:8d:9d:10:09:f0:75:b3:73:50:9f:c0:19:08:e7:62:e1:
        00:31:4b:ab:c7:f7:6d:27:94:42:9e:94:92:00:72:cf:b6:fe:
        57:f1:ae:c2:17:80:90:db:d6:7c:48:c8:40:2c:1b:4a:ad:91:
        12:a7:dd:fc:9d:ad:40:bd:f1:46:e5:80:a1:c7:68:16:94:ac:
        1f:a5:a7:3d:78:75:e4:44:6f:a6:3c:d6:4c:30:73:0d:80:78:
        d2:fd:f7:f7:d8:d3:e2:b5:4d:db:9e:e2:dd:89:2d:29:44:bd:
        f3:fc
-----BEGIN CERTIFICATE-----
MIIDczCCAtygAwIBAgIBFTANBgkqhkiG9w0BAQQFADB6MQswCQYDVQQGEwJSVTEL
MAkGA1UECBMCTkExEjAQBgNVBAcTCVRPR0xJQVRUSTEWMBQGA1UEChMNSU5aQS1M
VEQtQUlTVDEPMA0GA1UEAxMGc2VydmVyMSEwHwYJKoZIhvcNAQkBFhJwYXZlbEBr
dXN0by5jb20ucnUwHhcNMDkwNDI3MDkxMTA5WhcNMTkwNDI1MDkxMTA5WjB/MQsw
CQYDVQQGEwJSVTELMAkGA1UECBMCTkExFjAUBgNVBAoTDUlOWkEtTFRELUFJU1Qx
EzARBgNVBAsUCnBlbGljYW4xXzIxEzARBgNVBAMUCnBlbGljYW4xXzIxITAfBgkq
hkiG9w0BCQEWEnBhdmVsQGt1c3RvLmNvbS5ydTCBnzANBgkqhkiG9w0BAQEFAAOB
jQAwgYkCgYEAoiLJ0nzGLd6lLseatFfu/SrniNS5DQTZsYXr/Wl+7Otme3Xi53ff
Dz9OOCkSH/JK2okgH4cH6xIVucT3XcfKy1epcTAtouAtqV9dX4vxqiGV5sgK6wXK
SlvuUvWO9QCWMOte/xnFB835Txn3qScdAFmCHSLZoH24GQy+828ErasCAwEAAaOC
AQIwgf8wCQYDVR0TBAIwADAsBglghkgBhvhCAQ0EHxYdT3BlblNTTCBHZW5lcmF0
ZWQgQ2VydGlmaWNhdGUwHQYDVR0OBBYEFGo+2pVSuaLLItXGsyiZb1lbWtVvMIGk
BgNVHSMEgZwwgZmAFPZ85vsUt/bBXgOZEqrtQOREEnY4oX6kfDB6MQswCQYDVQQG
EwJSVTELMAkGA1UECBMCTkExEjAQBgNVBAcTCVRPR0xJQVRUSTEWMBQGA1UEChMN
SU5aQS1MVEQtQUlTVDEPMA0GA1UEAxMGc2VydmVyMSEwHwYJKoZIhvcNAQkBFhJw
YXZlbEBrdXN0by5jb20ucnWCAQAwDQYJKoZIhvcNAQEEBQADgYEAQ/hSZTMR2Kzm
sGkd81xSqAOzm1WNnRAJ8HWzc1CfwBkI52LhADFLq8f3bSeUQp6UkgByz7b+V/Gu
wheAkNvWfEjIQCwbSq2REqfd/J2tQL3xRuWAocdoFpSsH6WnPXh15ERvpjzWTDBz
DYB40v3399jT4rVN257i3YktKUS98/w=
-----END CERTIFICATE-----
