Certificate:
    Data:
        Version: 3 (0x2)
        Serial Number: 26 (0x1a)
        Signature Algorithm: md5WithRSAEncryption
        Issuer: C=RU, ST=NA, L=TOGLIATTI, O=INZA-LTD-AIST, CN=server/emailAddress=pavel@kusto.com.ru
        Validity
            Not Before: May 25 09:24:02 2009 GMT
            Not After : May 23 09:24:02 2019 GMT
        Subject: C=RU, ST=NA, O=INZA-LTD-AIST, OU=pel9_5, CN=pel9_5/emailAddress=pavel@kusto.com.ru
        Subject Public Key Info:
            Public Key Algorithm: rsaEncryption
            RSA Public Key: (1024 bit)
                Modulus (1024 bit):
                    00:b5:5a:c0:0e:86:3a:f7:69:fc:a5:f4:46:9a:8f:
                    58:40:77:ec:7b:60:01:fb:7d:5b:96:d1:57:4f:f5:
                    dc:81:c0:fb:e5:07:96:af:9d:e8:2d:6d:bf:21:cf:
                    d8:7b:dc:ac:a1:25:bb:25:c1:ed:f9:e3:e6:f9:96:
                    1c:18:8d:f7:23:02:44:72:de:f3:7e:74:08:17:ba:
                    a2:6e:65:d8:83:8a:24:be:c0:c0:25:04:f9:da:8d:
                    2a:c0:43:68:63:7f:16:1f:d9:37:53:8f:ad:0e:f8:
                    27:59:ac:7b:80:08:39:57:18:d0:c3:f4:fd:c0:8b:
                    a2:4e:11:cc:40:e7:91:4f:4f
                Exponent: 65537 (0x10001)
        X509v3 extensions:
            X509v3 Basic Constraints: 
                CA:FALSE
            Netscape Comment: 
                OpenSSL Generated Certificate
            X509v3 Subject Key Identifier: 
                D3:DD:F8:84:73:A4:22:34:C4:EF:B1:59:92:E3:FA:42:AD:84:C1:97
            X509v3 Authority Key Identifier: 
                keyid:F6:7C:E6:FB:14:B7:F6:C1:5E:03:99:12:AA:ED:40:E4:44:12:76:38
                DirName:/C=RU/ST=NA/L=TOGLIATTI/O=INZA-LTD-AIST/CN=server/emailAddress=pavel@kusto.com.ru
                serial:00

    Signature Algorithm: md5WithRSAEncryption
        65:3a:10:67:db:fd:b2:db:62:f4:4a:47:db:eb:cc:c9:4d:a4:
        4f:ff:a1:ac:bd:eb:1f:78:7f:ed:de:c2:e7:13:62:83:db:11:
        ae:28:be:2c:96:35:4d:8a:4d:15:b6:3f:df:13:9a:0a:87:55:
        24:c0:29:11:f5:ef:1b:89:61:c7:76:e5:cb:da:38:aa:34:5c:
        65:3d:a1:09:e0:67:44:76:de:33:46:2d:04:df:27:69:fa:6c:
        b1:a1:d0:f4:88:48:ce:80:6f:43:64:ec:94:39:f8:28:6a:3d:
        c3:d0:8a:9e:3c:7b:11:30:9b:94:7c:e7:94:ff:78:b8:dd:62:
        3d:41
-----BEGIN CERTIFICATE-----
MIIDazCCAtSgAwIBAgIBGjANBgkqhkiG9w0BAQQFADB6MQswCQYDVQQGEwJSVTEL
MAkGA1UECBMCTkExEjAQBgNVBAcTCVRPR0xJQVRUSTEWMBQGA1UEChMNSU5aQS1M
VEQtQUlTVDEPMA0GA1UEAxMGc2VydmVyMSEwHwYJKoZIhvcNAQkBFhJwYXZlbEBr
dXN0by5jb20ucnUwHhcNMDkwNTI1MDkyNDAyWhcNMTkwNTIzMDkyNDAyWjB3MQsw
CQYDVQQGEwJSVTELMAkGA1UECBMCTkExFjAUBgNVBAoTDUlOWkEtTFRELUFJU1Qx
DzANBgNVBAsUBnBlbDlfNTEPMA0GA1UEAxQGcGVsOV81MSEwHwYJKoZIhvcNAQkB
FhJwYXZlbEBrdXN0by5jb20ucnUwgZ8wDQYJKoZIhvcNAQEBBQADgY0AMIGJAoGB
ALVawA6GOvdp/KX0RpqPWEB37HtgAft9W5bRV0/13IHA++UHlq+d6C1tvyHP2Hvc
rKEluyXB7fnj5vmWHBiN9yMCRHLe8350CBe6om5l2IOKJL7AwCUE+dqNKsBDaGN/
Fh/ZN1OPrQ74J1mse4AIOVcY0MP0/cCLok4RzEDnkU9PAgMBAAGjggECMIH/MAkG
A1UdEwQCMAAwLAYJYIZIAYb4QgENBB8WHU9wZW5TU0wgR2VuZXJhdGVkIENlcnRp
ZmljYXRlMB0GA1UdDgQWBBTT3fiEc6QiNMTvsVmS4/pCrYTBlzCBpAYDVR0jBIGc
MIGZgBT2fOb7FLf2wV4DmRKq7UDkRBJ2OKF+pHwwejELMAkGA1UEBhMCUlUxCzAJ
BgNVBAgTAk5BMRIwEAYDVQQHEwlUT0dMSUFUVEkxFjAUBgNVBAoTDUlOWkEtTFRE
LUFJU1QxDzANBgNVBAMTBnNlcnZlcjEhMB8GCSqGSIb3DQEJARYScGF2ZWxAa3Vz
dG8uY29tLnJ1ggEAMA0GCSqGSIb3DQEBBAUAA4GBAGU6EGfb/bLbYvRKR9vrzMlN
pE//oay96x94f+3ewucTYoPbEa4oviyWNU2KTRW2P98TmgqHVSTAKRH17xuJYcd2
5cvaOKo0XGU9oQngZ0R23jNGLQTfJ2n6bLGh0PSISM6Ab0Nk7JQ5+ChqPcPQip48
exEwm5R855T/eLjdYj1B
-----END CERTIFICATE-----
