Certificate:
    Data:
        Version: 3 (0x2)
        Serial Number: 28 (0x1c)
        Signature Algorithm: md5WithRSAEncryption
        Issuer: C=RU, ST=NA, L=TOGLIATTI, O=INZA-LTD-AIST, CN=server/emailAddress=pavel@kusto.com.ru
        Validity
            Not Before: Jun  1 09:13:24 2009 GMT
            Not After : May 30 09:13:24 2019 GMT
        Subject: C=RU, ST=NA, O=INZA-LTD-AIST, OU=pel15, CN=pel15/emailAddress=pavel@kusto.com.ru
        Subject Public Key Info:
            Public Key Algorithm: rsaEncryption
            RSA Public Key: (1024 bit)
                Modulus (1024 bit):
                    00:f5:a6:05:c3:0d:1c:ef:ba:59:c4:09:44:72:6b:
                    49:a9:6d:44:4d:d5:3f:ad:ad:30:6c:0a:43:24:44:
                    49:1c:ac:33:68:63:ed:d9:75:af:9b:32:45:ac:b0:
                    fe:bb:98:6b:df:99:30:44:4c:b8:0e:3c:5b:6e:8a:
                    98:62:f4:52:6a:a1:6f:f0:ca:c7:9d:60:ce:90:52:
                    a5:75:70:a6:a7:9d:9a:e1:ab:45:ca:f9:52:da:cc:
                    60:6e:2a:63:5a:2f:2d:3f:fc:f0:22:60:d0:27:39:
                    22:46:4b:8f:61:35:88:7b:5b:b2:8b:2c:26:3a:35:
                    67:95:1a:a0:e4:d6:bf:4b:a3
                Exponent: 65537 (0x10001)
        X509v3 extensions:
            X509v3 Basic Constraints: 
                CA:FALSE
            Netscape Comment: 
                OpenSSL Generated Certificate
            X509v3 Subject Key Identifier: 
                CB:16:E1:C1:61:7A:6A:03:62:19:9B:E8:A1:6F:B7:0E:EE:FF:D1:3E
            X509v3 Authority Key Identifier: 
                keyid:F6:7C:E6:FB:14:B7:F6:C1:5E:03:99:12:AA:ED:40:E4:44:12:76:38
                DirName:/C=RU/ST=NA/L=TOGLIATTI/O=INZA-LTD-AIST/CN=server/emailAddress=pavel@kusto.com.ru
                serial:00

    Signature Algorithm: md5WithRSAEncryption
        c9:9a:37:39:c6:57:09:0a:43:46:11:2e:c8:4d:41:bb:e6:16:
        f8:1f:85:d9:12:83:d4:48:ea:e2:0c:f1:4e:3a:08:c7:ab:be:
        54:15:85:e5:56:90:32:67:37:42:0e:2f:96:a8:bb:8e:62:b5:
        f0:25:80:48:61:85:55:0d:ee:6d:40:b9:d2:c5:ad:9a:97:4e:
        57:2e:4b:0b:d0:78:5e:84:a3:35:7f:f6:f6:72:44:9a:1f:72:
        5c:f0:14:b5:b2:99:a6:a2:61:ba:a0:be:a4:c2:8f:a8:d4:4f:
        ee:54:7b:98:3c:5b:90:83:b8:24:99:60:d2:20:84:8a:37:e5:
        c2:65
-----BEGIN CERTIFICATE-----
MIIDaTCCAtKgAwIBAgIBHDANBgkqhkiG9w0BAQQFADB6MQswCQYDVQQGEwJSVTEL
MAkGA1UECBMCTkExEjAQBgNVBAcTCVRPR0xJQVRUSTEWMBQGA1UEChMNSU5aQS1M
VEQtQUlTVDEPMA0GA1UEAxMGc2VydmVyMSEwHwYJKoZIhvcNAQkBFhJwYXZlbEBr
dXN0by5jb20ucnUwHhcNMDkwNjAxMDkxMzI0WhcNMTkwNTMwMDkxMzI0WjB1MQsw
CQYDVQQGEwJSVTELMAkGA1UECBMCTkExFjAUBgNVBAoTDUlOWkEtTFRELUFJU1Qx
DjAMBgNVBAsTBXBlbDE1MQ4wDAYDVQQDEwVwZWwxNTEhMB8GCSqGSIb3DQEJARYS
cGF2ZWxAa3VzdG8uY29tLnJ1MIGfMA0GCSqGSIb3DQEBAQUAA4GNADCBiQKBgQD1
pgXDDRzvulnECURya0mpbURN1T+trTBsCkMkREkcrDNoY+3Zda+bMkWssP67mGvf
mTBETLgOPFtuiphi9FJqoW/wysedYM6QUqV1cKannZrhq0XK+VLazGBuKmNaLy0/
/PAiYNAnOSJGS49hNYh7W7KLLCY6NWeVGqDk1r9LowIDAQABo4IBAjCB/zAJBgNV
HRMEAjAAMCwGCWCGSAGG+EIBDQQfFh1PcGVuU1NMIEdlbmVyYXRlZCBDZXJ0aWZp
Y2F0ZTAdBgNVHQ4EFgQUyxbhwWF6agNiGZvooW+3Du7/0T4wgaQGA1UdIwSBnDCB
mYAU9nzm+xS39sFeA5kSqu1A5EQSdjihfqR8MHoxCzAJBgNVBAYTAlJVMQswCQYD
VQQIEwJOQTESMBAGA1UEBxMJVE9HTElBVFRJMRYwFAYDVQQKEw1JTlpBLUxURC1B
SVNUMQ8wDQYDVQQDEwZzZXJ2ZXIxITAfBgkqhkiG9w0BCQEWEnBhdmVsQGt1c3Rv
LmNvbS5ydYIBADANBgkqhkiG9w0BAQQFAAOBgQDJmjc5xlcJCkNGES7ITUG75hb4
H4XZEoPUSOriDPFOOgjHq75UFYXlVpAyZzdCDi+WqLuOYrXwJYBIYYVVDe5tQLnS
xa2al05XLksL0HhehKM1f/b2ckSaH3Jc8BS1spmmomG6oL6kwo+o1E/uVHuYPFuQ
g7gkmWDSIISKN+XCZQ==
-----END CERTIFICATE-----
