Certificate:
    Data:
        Version: 3 (0x2)
        Serial Number: 29 (0x1d)
        Signature Algorithm: md5WithRSAEncryption
        Issuer: C=RU, ST=NA, L=TOGLIATTI, O=INZA-LTD-AIST, CN=server/emailAddress=pavel@kusto.com.ru
        Validity
            Not Before: Jul 16 11:16:54 2009 GMT
            Not After : Jul 14 11:16:54 2019 GMT
        Subject: C=RU, ST=NA, O=INZA-LTD-AIST, OU=bochka, CN=bochka/emailAddress=pavel@kusto.com.ru
        Subject Public Key Info:
            Public Key Algorithm: rsaEncryption
            RSA Public Key: (1024 bit)
                Modulus (1024 bit):
                    00:ec:f3:dc:16:2b:2f:17:3f:0c:fd:4d:30:2c:5c:
                    1b:db:62:79:cb:e6:cb:83:c4:92:0c:d2:f9:c9:8f:
                    83:65:aa:1f:26:0c:3b:51:b6:18:6d:2e:04:83:f6:
                    ea:05:82:d6:b9:6d:eb:93:7a:a7:14:18:ae:a1:23:
                    19:96:8c:3c:73:f0:fe:d1:04:5f:8d:a4:72:e5:89:
                    82:0a:7a:76:89:ad:6e:f8:2f:c9:c5:2a:41:96:c6:
                    47:63:9d:7a:b4:f0:83:db:0b:b9:1b:fb:06:26:ed:
                    c8:5d:05:20:c7:96:4b:f9:72:73:9a:86:53:b1:0e:
                    a8:f3:2a:4e:9e:c5:b8:72:d3
                Exponent: 65537 (0x10001)
        X509v3 extensions:
            X509v3 Basic Constraints: 
                CA:FALSE
            Netscape Comment: 
                OpenSSL Generated Certificate
            X509v3 Subject Key Identifier: 
                71:92:51:E7:57:A5:67:5F:52:37:33:88:3F:88:5F:09:4C:E1:83:51
            X509v3 Authority Key Identifier: 
                keyid:F6:7C:E6:FB:14:B7:F6:C1:5E:03:99:12:AA:ED:40:E4:44:12:76:38
                DirName:/C=RU/ST=NA/L=TOGLIATTI/O=INZA-LTD-AIST/CN=server/emailAddress=pavel@kusto.com.ru
                serial:00

    Signature Algorithm: md5WithRSAEncryption
        a4:09:9b:3a:8f:35:eb:41:b3:86:c8:08:78:78:eb:0e:6e:a8:
        5a:bb:f5:cb:ed:ed:7c:14:59:f9:3e:81:b3:51:00:ec:a0:ca:
        25:13:7e:70:1a:10:b8:5e:1d:04:2c:60:33:ff:2b:f8:2b:ee:
        f8:2f:2b:85:89:80:f9:b0:59:57:0d:f0:1e:4f:ef:41:15:94:
        7f:99:f5:04:62:95:2f:9e:0d:41:ed:e0:13:d7:3f:b8:97:86:
        9a:f2:d6:0b:6d:27:32:14:57:2a:e5:59:a5:5c:30:80:26:e6:
        98:12:e1:46:b9:40:d1:b2:77:b4:ad:99:58:fd:ba:76:9a:5b:
        5b:34
-----BEGIN CERTIFICATE-----
MIIDazCCAtSgAwIBAgIBHTANBgkqhkiG9w0BAQQFADB6MQswCQYDVQQGEwJSVTEL
MAkGA1UECBMCTkExEjAQBgNVBAcTCVRPR0xJQVRUSTEWMBQGA1UEChMNSU5aQS1M
VEQtQUlTVDEPMA0GA1UEAxMGc2VydmVyMSEwHwYJKoZIhvcNAQkBFhJwYXZlbEBr
dXN0by5jb20ucnUwHhcNMDkwNzE2MTExNjU0WhcNMTkwNzE0MTExNjU0WjB3MQsw
CQYDVQQGEwJSVTELMAkGA1UECBMCTkExFjAUBgNVBAoTDUlOWkEtTFRELUFJU1Qx
DzANBgNVBAsTBmJvY2hrYTEPMA0GA1UEAxMGYm9jaGthMSEwHwYJKoZIhvcNAQkB
FhJwYXZlbEBrdXN0by5jb20ucnUwgZ8wDQYJKoZIhvcNAQEBBQADgY0AMIGJAoGB
AOzz3BYrLxc/DP1NMCxcG9tiecvmy4PEkgzS+cmPg2WqHyYMO1G2GG0uBIP26gWC
1rlt65N6pxQYrqEjGZaMPHPw/tEEX42kcuWJggp6domtbvgvycUqQZbGR2OderTw
g9sLuRv7BibtyF0FIMeWS/lyc5qGU7EOqPMqTp7FuHLTAgMBAAGjggECMIH/MAkG
A1UdEwQCMAAwLAYJYIZIAYb4QgENBB8WHU9wZW5TU0wgR2VuZXJhdGVkIENlcnRp
ZmljYXRlMB0GA1UdDgQWBBRxklHnV6VnX1I3M4g/iF8JTOGDUTCBpAYDVR0jBIGc
MIGZgBT2fOb7FLf2wV4DmRKq7UDkRBJ2OKF+pHwwejELMAkGA1UEBhMCUlUxCzAJ
BgNVBAgTAk5BMRIwEAYDVQQHEwlUT0dMSUFUVEkxFjAUBgNVBAoTDUlOWkEtTFRE
LUFJU1QxDzANBgNVBAMTBnNlcnZlcjEhMB8GCSqGSIb3DQEJARYScGF2ZWxAa3Vz
dG8uY29tLnJ1ggEAMA0GCSqGSIb3DQEBBAUAA4GBAKQJmzqPNetBs4bICHh46w5u
qFq79cvt7XwUWfk+gbNRAOygyiUTfnAaELheHQQsYDP/K/gr7vgvK4WJgPmwWVcN
8B5P70EVlH+Z9QRilS+eDUHt4BPXP7iXhpry1gttJzIUVyrlWaVcMIAm5pgS4Ua5
QNGyd7StmVj9unaaW1s0
-----END CERTIFICATE-----
