Certificate:
    Data:
        Version: 3 (0x2)
        Serial Number: 35 (0x23)
        Signature Algorithm: md5WithRSAEncryption
        Issuer: C=RU, ST=NA, L=TOGLIATTI, O=INZA-LTD-AIST, CN=server/emailAddress=pavel@kusto.com.ru
        Validity
            Not Before: Sep 29 10:53:02 2009 GMT
            Not After : Sep 27 10:53:02 2019 GMT
        Subject: C=RU, ST=NA, O=INZA-LTD-AIST, CN=dima/emailAddress=pavel@kusto.com.ru
        Subject Public Key Info:
            Public Key Algorithm: rsaEncryption
            RSA Public Key: (1024 bit)
                Modulus (1024 bit):
                    00:ed:67:55:a4:bc:dd:f1:c9:63:39:7a:72:56:f3:
                    7c:f0:54:6e:ef:bc:7a:51:22:5e:b4:53:ce:13:18:
                    07:08:f0:de:99:05:18:b8:ed:88:08:fd:ff:59:f3:
                    eb:72:c6:ac:69:71:5c:9d:bb:24:7e:ac:3a:64:e9:
                    12:2b:1b:02:e6:c5:a1:03:9e:1b:b9:4c:9a:e2:3e:
                    28:50:8b:37:f0:8d:55:e0:c5:f6:69:65:ca:a5:cc:
                    37:78:a9:c9:43:e3:d9:bb:08:f2:ba:2d:0d:7c:ff:
                    50:6c:b4:db:3d:c2:29:c0:c7:81:4b:d7:a5:19:59:
                    75:2b:4b:d3:e8:62:68:c5:e5
                Exponent: 65537 (0x10001)
        X509v3 extensions:
            X509v3 Basic Constraints: 
                CA:FALSE
            Netscape Comment: 
                OpenSSL Generated Certificate
            X509v3 Subject Key Identifier: 
                E6:32:EB:28:DB:A1:96:14:8A:39:22:37:73:12:1C:6D:04:F7:59:45
            X509v3 Authority Key Identifier: 
                keyid:F6:7C:E6:FB:14:B7:F6:C1:5E:03:99:12:AA:ED:40:E4:44:12:76:38
                DirName:/C=RU/ST=NA/L=TOGLIATTI/O=INZA-LTD-AIST/CN=server/emailAddress=pavel@kusto.com.ru
                serial:00

    Signature Algorithm: md5WithRSAEncryption
        39:e6:a2:09:2e:5f:3c:07:43:d7:2e:a8:9b:f5:6a:bb:ef:dd:
        e5:e1:31:37:dd:3e:39:64:b9:30:9f:a0:15:65:cd:d6:80:55:
        8d:9c:e9:ad:1e:24:fb:b6:58:44:bc:c0:88:d0:1c:e9:03:6d:
        28:90:55:d2:a3:8c:2e:42:43:80:fd:97:50:07:d7:10:84:9c:
        35:10:ba:6d:00:2e:e7:a4:35:e5:ca:b3:82:fa:8e:0b:47:92:
        9d:6a:8a:8b:14:ad:7c:fb:fd:1b:0d:14:88:35:73:cb:1e:3c:
        83:c8:29:ee:40:f8:b9:dd:21:b7:26:82:3f:36:44:29:e8:25:
        ec:1b
-----BEGIN CERTIFICATE-----
MIIDWDCCAsGgAwIBAgIBIzANBgkqhkiG9w0BAQQFADB6MQswCQYDVQQGEwJSVTEL
MAkGA1UECBMCTkExEjAQBgNVBAcTCVRPR0xJQVRUSTEWMBQGA1UEChMNSU5aQS1M
VEQtQUlTVDEPMA0GA1UEAxMGc2VydmVyMSEwHwYJKoZIhvcNAQkBFhJwYXZlbEBr
dXN0by5jb20ucnUwHhcNMDkwOTI5MTA1MzAyWhcNMTkwOTI3MTA1MzAyWjBkMQsw
CQYDVQQGEwJSVTELMAkGA1UECBMCTkExFjAUBgNVBAoTDUlOWkEtTFRELUFJU1Qx
DTALBgNVBAMTBGRpbWExITAfBgkqhkiG9w0BCQEWEnBhdmVsQGt1c3RvLmNvbS5y
dTCBnzANBgkqhkiG9w0BAQEFAAOBjQAwgYkCgYEA7WdVpLzd8cljOXpyVvN88FRu
77x6USJetFPOExgHCPDemQUYuO2ICP3/WfPrcsasaXFcnbskfqw6ZOkSKxsC5sWh
A54buUya4j4oUIs38I1V4MX2aWXKpcw3eKnJQ+PZuwjyui0NfP9QbLTbPcIpwMeB
S9elGVl1K0vT6GJoxeUCAwEAAaOCAQIwgf8wCQYDVR0TBAIwADAsBglghkgBhvhC
AQ0EHxYdT3BlblNTTCBHZW5lcmF0ZWQgQ2VydGlmaWNhdGUwHQYDVR0OBBYEFOYy
6yjboZYUijkiN3MSHG0E91lFMIGkBgNVHSMEgZwwgZmAFPZ85vsUt/bBXgOZEqrt
QOREEnY4oX6kfDB6MQswCQYDVQQGEwJSVTELMAkGA1UECBMCTkExEjAQBgNVBAcT
CVRPR0xJQVRUSTEWMBQGA1UEChMNSU5aQS1MVEQtQUlTVDEPMA0GA1UEAxMGc2Vy
dmVyMSEwHwYJKoZIhvcNAQkBFhJwYXZlbEBrdXN0by5jb20ucnWCAQAwDQYJKoZI
hvcNAQEEBQADgYEAOeaiCS5fPAdD1y6om/Vqu+/d5eExN90+OWS5MJ+gFWXN1oBV
jZzprR4k+7ZYRLzAiNAc6QNtKJBV0qOMLkJDgP2XUAfXEIScNRC6bQAu56Q15cqz
gvqOC0eSnWqKixStfPv9Gw0UiDVzyx48g8gp7kD4ud0htyaCPzZEKegl7Bs=
-----END CERTIFICATE-----
