Certificate:
    Data:
        Version: 3 (0x2)
        Serial Number: 40 (0x28)
        Signature Algorithm: md5WithRSAEncryption
        Issuer: C=RU, ST=NA, L=TOGLIATTI, O=INZA-LTD-AIST, CN=server/emailAddress=pavel@kusto.com.ru
        Validity
            Not Before: Oct 19 11:01:34 2009 GMT
            Not After : Oct 17 11:01:34 2019 GMT
        Subject: C=RU, ST=NA, O=INZA-LTD-AIST, CN=pelican_karbish_9/emailAddress=pavel@kusto.com.ru
        Subject Public Key Info:
            Public Key Algorithm: rsaEncryption
            RSA Public Key: (1024 bit)
                Modulus (1024 bit):
                    00:c4:a2:ed:ac:ec:39:15:92:ee:d0:66:2e:a1:32:
                    dc:51:8c:31:97:99:a7:73:03:20:88:10:10:8e:c5:
                    47:05:a9:81:cc:67:4b:97:b5:e9:c7:12:4b:29:96:
                    a6:15:d3:2a:33:f1:d1:bb:1c:f7:fd:ff:eb:ea:38:
                    19:44:59:b5:89:49:1a:c3:a1:8a:78:b9:d1:97:e8:
                    74:fe:b3:c2:91:af:4d:99:0a:aa:ac:49:18:12:f6:
                    cc:6d:83:72:fd:07:92:73:7e:93:ba:fb:6a:96:33:
                    7e:88:7a:9a:c5:76:38:85:3b:ab:0b:24:3f:f3:3b:
                    b6:9e:1b:b4:2d:c8:5b:cc:bd
                Exponent: 65537 (0x10001)
        X509v3 extensions:
            X509v3 Basic Constraints: 
                CA:FALSE
            Netscape Comment: 
                OpenSSL Generated Certificate
            X509v3 Subject Key Identifier: 
                2D:C8:1B:3A:3A:E1:0C:ED:33:DB:02:D3:A0:9B:E5:81:71:88:98:CE
            X509v3 Authority Key Identifier: 
                keyid:F6:7C:E6:FB:14:B7:F6:C1:5E:03:99:12:AA:ED:40:E4:44:12:76:38
                DirName:/C=RU/ST=NA/L=TOGLIATTI/O=INZA-LTD-AIST/CN=server/emailAddress=pavel@kusto.com.ru
                serial:00

    Signature Algorithm: md5WithRSAEncryption
        97:c9:b0:2b:dd:90:60:fe:62:dc:0a:f2:a9:68:5c:a7:97:f9:
        c8:69:34:c9:46:27:74:ed:c4:df:12:88:1d:89:8f:72:ae:4a:
        72:d8:ff:aa:29:40:6f:37:f2:80:08:7e:17:27:81:c2:e5:4b:
        47:d1:46:a9:40:84:a9:ea:8b:5b:7c:82:6e:24:b7:48:35:66:
        11:6b:48:f4:a2:1c:9d:23:d1:ce:81:eb:9e:7f:28:45:0b:4a:
        ef:30:7f:59:5a:12:f1:02:1e:91:7d:ec:38:e6:11:b6:fb:c6:
        9d:ea:e1:9c:45:03:c4:3a:c2:96:5a:a2:56:67:ea:3a:4a:8b:
        bc:d2
-----BEGIN CERTIFICATE-----
MIIDZTCCAs6gAwIBAgIBKDANBgkqhkiG9w0BAQQFADB6MQswCQYDVQQGEwJSVTEL
MAkGA1UECBMCTkExEjAQBgNVBAcTCVRPR0xJQVRUSTEWMBQGA1UEChMNSU5aQS1M
VEQtQUlTVDEPMA0GA1UEAxMGc2VydmVyMSEwHwYJKoZIhvcNAQkBFhJwYXZlbEBr
dXN0by5jb20ucnUwHhcNMDkxMDE5MTEwMTM0WhcNMTkxMDE3MTEwMTM0WjBxMQsw
CQYDVQQGEwJSVTELMAkGA1UECBMCTkExFjAUBgNVBAoTDUlOWkEtTFRELUFJU1Qx
GjAYBgNVBAMUEXBlbGljYW5fa2FyYmlzaF85MSEwHwYJKoZIhvcNAQkBFhJwYXZl
bEBrdXN0by5jb20ucnUwgZ8wDQYJKoZIhvcNAQEBBQADgY0AMIGJAoGBAMSi7azs
ORWS7tBmLqEy3FGMMZeZp3MDIIgQEI7FRwWpgcxnS5e16ccSSymWphXTKjPx0bsc
9/3/6+o4GURZtYlJGsOhini50ZfodP6zwpGvTZkKqqxJGBL2zG2Dcv0HknN+k7r7
apYzfoh6msV2OIU7qwskP/M7tp4btC3IW8y9AgMBAAGjggECMIH/MAkGA1UdEwQC
MAAwLAYJYIZIAYb4QgENBB8WHU9wZW5TU0wgR2VuZXJhdGVkIENlcnRpZmljYXRl
MB0GA1UdDgQWBBQtyBs6OuEM7TPbAtOgm+WBcYiYzjCBpAYDVR0jBIGcMIGZgBT2
fOb7FLf2wV4DmRKq7UDkRBJ2OKF+pHwwejELMAkGA1UEBhMCUlUxCzAJBgNVBAgT
Ak5BMRIwEAYDVQQHEwlUT0dMSUFUVEkxFjAUBgNVBAoTDUlOWkEtTFRELUFJU1Qx
DzANBgNVBAMTBnNlcnZlcjEhMB8GCSqGSIb3DQEJARYScGF2ZWxAa3VzdG8uY29t
LnJ1ggEAMA0GCSqGSIb3DQEBBAUAA4GBAJfJsCvdkGD+YtwK8qloXKeX+chpNMlG
J3TtxN8SiB2Jj3KuSnLY/6opQG838oAIfhcngcLlS0fRRqlAhKnqi1t8gm4kt0g1
ZhFrSPSiHJ0j0c6B655/KEULSu8wf1laEvECHpF97DjmEbb7xp3q4ZxFA8Q6wpZa
olZn6jpKi7zS
-----END CERTIFICATE-----
