Certificate:
    Data:
        Version: 3 (0x2)
        Serial Number: 46 (0x2e)
        Signature Algorithm: md5WithRSAEncryption
        Issuer: C=RU, ST=NA, L=TOGLIATTI, O=INZA-LTD-AIST, CN=server/emailAddress=pavel@kusto.com.ru
        Validity
            Not Before: Apr  3 11:11:16 2010 GMT
            Not After : Mar 31 11:11:16 2020 GMT
        Subject: C=RU, ST=NA, O=INZA-LTD-AIST, CN=pelican_3a/emailAddress=y
        Subject Public Key Info:
            Public Key Algorithm: rsaEncryption
            RSA Public Key: (1024 bit)
                Modulus (1024 bit):
                    00:b7:b8:d0:69:1b:33:2c:26:49:f7:84:61:e2:9c:
                    c5:2e:de:a8:f3:5b:5b:4e:79:4b:70:6e:34:c2:d2:
                    1f:b8:2a:d9:b7:8f:3c:c4:09:dd:8c:bb:f5:d1:d9:
                    38:46:58:d8:12:78:95:9b:57:b9:0d:85:57:fc:0e:
                    3d:38:ec:c2:9c:37:94:32:17:c6:88:c4:48:e2:9e:
                    f6:87:5b:c6:73:b1:e4:53:c9:ad:6e:b0:bb:11:c2:
                    fa:98:34:5b:a2:d2:d6:cd:89:80:35:2b:30:ed:a5:
                    5e:8a:98:ed:b2:3f:09:c2:7d:82:89:76:41:2e:fb:
                    e2:ce:ab:12:e3:01:60:b3:33
                Exponent: 65537 (0x10001)
        X509v3 extensions:
            X509v3 Basic Constraints: 
                CA:FALSE
            Netscape Comment: 
                OpenSSL Generated Certificate
            X509v3 Subject Key Identifier: 
                29:53:AB:26:49:6D:A3:70:4B:CE:F8:2C:C5:9E:20:01:3B:EE:21:EA
            X509v3 Authority Key Identifier: 
                keyid:F6:7C:E6:FB:14:B7:F6:C1:5E:03:99:12:AA:ED:40:E4:44:12:76:38
                DirName:/C=RU/ST=NA/L=TOGLIATTI/O=INZA-LTD-AIST/CN=server/emailAddress=pavel@kusto.com.ru
                serial:00

    Signature Algorithm: md5WithRSAEncryption
        92:52:a7:00:0a:24:6b:87:57:82:70:36:de:9a:6f:ff:20:48:
        f6:ed:8a:f2:51:ee:e1:9e:57:9c:9a:da:9f:83:36:f7:aa:81:
        64:77:d2:6e:f9:df:79:06:9a:24:86:d7:3c:b9:95:22:64:51:
        36:67:e5:12:47:cc:d0:f1:54:cd:fc:97:2c:9d:f7:32:42:ea:
        e5:ee:e3:de:01:ac:ba:59:91:8f:d8:24:7c:5a:92:79:b9:f7:
        4d:55:26:8d:8f:05:42:9e:a2:ed:61:d2:35:2d:a0:1a:b5:f0:
        24:ad:4c:54:68:22:74:96:d6:9d:4c:26:cb:5a:07:14:f9:86:
        76:10
-----BEGIN CERTIFICATE-----
MIIDTTCCAragAwIBAgIBLjANBgkqhkiG9w0BAQQFADB6MQswCQYDVQQGEwJSVTEL
MAkGA1UECBMCTkExEjAQBgNVBAcTCVRPR0xJQVRUSTEWMBQGA1UEChMNSU5aQS1M
VEQtQUlTVDEPMA0GA1UEAxMGc2VydmVyMSEwHwYJKoZIhvcNAQkBFhJwYXZlbEBr
dXN0by5jb20ucnUwHhcNMTAwNDAzMTExMTE2WhcNMjAwMzMxMTExMTE2WjBZMQsw
CQYDVQQGEwJSVTELMAkGA1UECBMCTkExFjAUBgNVBAoTDUlOWkEtTFRELUFJU1Qx
EzARBgNVBAMUCnBlbGljYW5fM2ExEDAOBgkqhkiG9w0BCQEWAXkwgZ8wDQYJKoZI
hvcNAQEBBQADgY0AMIGJAoGBALe40GkbMywmSfeEYeKcxS7eqPNbW055S3BuNMLS
H7gq2bePPMQJ3Yy79dHZOEZY2BJ4lZtXuQ2FV/wOPTjswpw3lDIXxojESOKe9odb
xnOx5FPJrW6wuxHC+pg0W6LS1s2JgDUrMO2lXoqY7bI/CcJ9gol2QS774s6rEuMB
YLMzAgMBAAGjggECMIH/MAkGA1UdEwQCMAAwLAYJYIZIAYb4QgENBB8WHU9wZW5T
U0wgR2VuZXJhdGVkIENlcnRpZmljYXRlMB0GA1UdDgQWBBQpU6smSW2jcEvO+CzF
niABO+4h6jCBpAYDVR0jBIGcMIGZgBT2fOb7FLf2wV4DmRKq7UDkRBJ2OKF+pHww
ejELMAkGA1UEBhMCUlUxCzAJBgNVBAgTAk5BMRIwEAYDVQQHEwlUT0dMSUFUVEkx
FjAUBgNVBAoTDUlOWkEtTFRELUFJU1QxDzANBgNVBAMTBnNlcnZlcjEhMB8GCSqG
SIb3DQEJARYScGF2ZWxAa3VzdG8uY29tLnJ1ggEAMA0GCSqGSIb3DQEBBAUAA4GB
AJJSpwAKJGuHV4JwNt6ab/8gSPbtivJR7uGeV5ya2p+DNveqgWR30m7533kGmiSG
1zy5lSJkUTZn5RJHzNDxVM38lyyd9zJC6uXu494BrLpZkY/YJHxaknm5901VJo2P
BUKeou1h0jUtoBq18CStTFRoInSW1p1MJstaBxT5hnYQ
-----END CERTIFICATE-----
