Certificate:
    Data:
        Version: 3 (0x2)
        Serial Number: 48 (0x30)
        Signature Algorithm: md5WithRSAEncryption
        Issuer: C=RU, ST=NA, L=TOGLIATTI, O=INZA-LTD-AIST, CN=server/emailAddress=pavel@kusto.com.ru
        Validity
            Not Before: Apr 29 08:11:44 2010 GMT
            Not After : Apr 26 08:11:44 2020 GMT
        Subject: C=RU, ST=NA, O=INZA-LTD-AIST, CN=pelican_jilina/emailAddress=pavel@kusto.com.ru
        Subject Public Key Info:
            Public Key Algorithm: rsaEncryption
            RSA Public Key: (1024 bit)
                Modulus (1024 bit):
                    00:ab:57:4f:58:50:b9:28:25:06:82:fc:63:3f:c7:
                    86:d7:ff:93:fa:cf:e7:eb:86:fa:97:03:aa:87:95:
                    8e:7e:e6:49:d6:f6:64:89:40:de:1b:0e:ce:68:15:
                    cc:9d:35:b0:29:96:e9:10:99:d8:70:13:b7:84:47:
                    5d:33:c0:15:3f:eb:a3:63:e7:b2:d6:3c:ce:00:74:
                    38:7f:30:95:de:d5:a5:47:a7:57:b0:4d:8e:50:b9:
                    47:02:ec:82:e6:93:60:e9:18:25:f8:c1:28:d1:4e:
                    66:9e:24:76:a0:72:aa:c0:85:f9:cd:e0:2a:53:c9:
                    b5:f3:31:c6:e8:82:54:b5:2b
                Exponent: 65537 (0x10001)
        X509v3 extensions:
            X509v3 Basic Constraints: 
                CA:FALSE
            Netscape Comment: 
                OpenSSL Generated Certificate
            X509v3 Subject Key Identifier: 
                69:78:0C:76:C4:0A:0F:A9:62:45:52:26:32:07:38:84:B2:F3:31:92
            X509v3 Authority Key Identifier: 
                keyid:F6:7C:E6:FB:14:B7:F6:C1:5E:03:99:12:AA:ED:40:E4:44:12:76:38
                DirName:/C=RU/ST=NA/L=TOGLIATTI/O=INZA-LTD-AIST/CN=server/emailAddress=pavel@kusto.com.ru
                serial:00

    Signature Algorithm: md5WithRSAEncryption
        9d:ed:5c:54:eb:d9:69:74:9b:59:c6:62:ea:79:5e:4d:47:74:
        bc:7f:55:3b:d2:6c:f3:d1:e5:d3:67:ed:7a:ef:6e:9a:0d:d5:
        da:be:84:c5:2a:83:3a:a9:ba:6c:27:82:db:45:5d:0e:00:36:
        a9:10:5a:3d:9d:d1:0c:c7:89:36:c5:9f:13:32:5c:20:e7:fe:
        cf:a1:22:18:35:7b:b9:e6:0b:10:db:c0:1d:db:f0:5a:eb:5f:
        36:d6:46:13:6a:2f:d0:db:11:3d:31:e4:78:ad:02:6b:9d:b2:
        ce:04:28:7b:c3:1c:5d:12:5d:24:f6:98:cf:ae:ba:d3:6e:ae:
        49:7d
-----BEGIN CERTIFICATE-----
MIIDYjCCAsugAwIBAgIBMDANBgkqhkiG9w0BAQQFADB6MQswCQYDVQQGEwJSVTEL
MAkGA1UECBMCTkExEjAQBgNVBAcTCVRPR0xJQVRUSTEWMBQGA1UEChMNSU5aQS1M
VEQtQUlTVDEPMA0GA1UEAxMGc2VydmVyMSEwHwYJKoZIhvcNAQkBFhJwYXZlbEBr
dXN0by5jb20ucnUwHhcNMTAwNDI5MDgxMTQ0WhcNMjAwNDI2MDgxMTQ0WjBuMQsw
CQYDVQQGEwJSVTELMAkGA1UECBMCTkExFjAUBgNVBAoTDUlOWkEtTFRELUFJU1Qx
FzAVBgNVBAMUDnBlbGljYW5famlsaW5hMSEwHwYJKoZIhvcNAQkBFhJwYXZlbEBr
dXN0by5jb20ucnUwgZ8wDQYJKoZIhvcNAQEBBQADgY0AMIGJAoGBAKtXT1hQuSgl
BoL8Yz/Hhtf/k/rP5+uG+pcDqoeVjn7mSdb2ZIlA3hsOzmgVzJ01sCmW6RCZ2HAT
t4RHXTPAFT/ro2PnstY8zgB0OH8wld7VpUenV7BNjlC5RwLsguaTYOkYJfjBKNFO
Zp4kdqByqsCF+c3gKlPJtfMxxuiCVLUrAgMBAAGjggECMIH/MAkGA1UdEwQCMAAw
LAYJYIZIAYb4QgENBB8WHU9wZW5TU0wgR2VuZXJhdGVkIENlcnRpZmljYXRlMB0G
A1UdDgQWBBRpeAx2xAoPqWJFUiYyBziEsvMxkjCBpAYDVR0jBIGcMIGZgBT2fOb7
FLf2wV4DmRKq7UDkRBJ2OKF+pHwwejELMAkGA1UEBhMCUlUxCzAJBgNVBAgTAk5B
MRIwEAYDVQQHEwlUT0dMSUFUVEkxFjAUBgNVBAoTDUlOWkEtTFRELUFJU1QxDzAN
BgNVBAMTBnNlcnZlcjEhMB8GCSqGSIb3DQEJARYScGF2ZWxAa3VzdG8uY29tLnJ1
ggEAMA0GCSqGSIb3DQEBBAUAA4GBAJ3tXFTr2Wl0m1nGYup5Xk1HdLx/VTvSbPPR
5dNn7XrvbpoN1dq+hMUqgzqpumwngttFXQ4ANqkQWj2d0QzHiTbFnxMyXCDn/s+h
Ihg1e7nmCxDbwB3b8FrrXzbWRhNqL9DbET0x5HitAmudss4EKHvDHF0SXST2mM+u
utNurkl9
-----END CERTIFICATE-----
