Certificate:
    Data:
        Version: 3 (0x2)
        Serial Number: 50 (0x32)
        Signature Algorithm: md5WithRSAEncryption
        Issuer: C=RU, ST=NA, L=TOGLIATTI, O=INZA-LTD-AIST, CN=server/emailAddress=pavel@kusto.com.ru
        Validity
            Not Before: May 17 13:22:55 2010 GMT
            Not After : May 14 13:22:55 2020 GMT
        Subject: C=RU, ST=NA, O=INZA-LTD-AIST, CN=pelican13kv/emailAddress=pavel@kusto.com.ru
        Subject Public Key Info:
            Public Key Algorithm: rsaEncryption
            RSA Public Key: (1024 bit)
                Modulus (1024 bit):
                    00:a8:1a:75:57:18:52:a0:0d:eb:01:8f:bf:40:71:
                    72:fe:f6:eb:44:e0:ab:62:f6:e0:9f:3c:54:fa:02:
                    b9:40:19:d8:54:06:1d:aa:67:42:77:81:b7:2c:b2:
                    a8:06:ef:0b:c2:28:3e:3b:39:fe:e4:d0:6e:79:25:
                    22:c4:71:9b:88:14:51:1a:0b:14:02:c2:7f:59:a5:
                    00:8d:50:ad:5c:8f:cc:da:21:91:52:a4:f2:e8:eb:
                    f9:63:63:9d:21:22:2d:3f:d9:64:8e:e9:ef:6d:b6:
                    7d:f1:f1:8a:77:da:bc:71:c6:c1:49:94:b6:b5:5e:
                    d5:47:c6:d5:25:69:4e:46:fd
                Exponent: 65537 (0x10001)
        X509v3 extensions:
            X509v3 Basic Constraints: 
                CA:FALSE
            Netscape Comment: 
                OpenSSL Generated Certificate
            X509v3 Subject Key Identifier: 
                DC:A0:3B:12:F1:84:B5:CC:69:FE:B2:3D:0C:D5:69:5D:2D:5B:96:57
            X509v3 Authority Key Identifier: 
                keyid:F6:7C:E6:FB:14:B7:F6:C1:5E:03:99:12:AA:ED:40:E4:44:12:76:38
                DirName:/C=RU/ST=NA/L=TOGLIATTI/O=INZA-LTD-AIST/CN=server/emailAddress=pavel@kusto.com.ru
                serial:00

    Signature Algorithm: md5WithRSAEncryption
        3e:1b:d3:4f:2a:24:2e:f2:4f:b5:71:15:59:a9:aa:65:e6:87:
        45:b1:de:63:fb:22:92:83:af:4e:82:47:26:33:66:20:3c:67:
        e6:c7:df:f8:77:47:1b:63:be:31:c1:6c:6b:04:f2:97:4b:80:
        25:9f:32:b6:af:30:7a:41:a6:91:1e:6a:c3:f5:67:f6:b6:e8:
        da:bd:b9:90:22:e4:af:a1:90:f7:12:cb:e3:fa:38:a6:6f:f7:
        bd:ff:9a:56:c3:ec:78:d8:93:99:67:f0:89:b1:a4:ca:00:78:
        36:f5:63:e2:e3:39:10:b5:7a:93:b5:9d:c7:a5:7a:b3:e9:d0:
        fd:66
-----BEGIN CERTIFICATE-----
MIIDXzCCAsigAwIBAgIBMjANBgkqhkiG9w0BAQQFADB6MQswCQYDVQQGEwJSVTEL
MAkGA1UECBMCTkExEjAQBgNVBAcTCVRPR0xJQVRUSTEWMBQGA1UEChMNSU5aQS1M
VEQtQUlTVDEPMA0GA1UEAxMGc2VydmVyMSEwHwYJKoZIhvcNAQkBFhJwYXZlbEBr
dXN0by5jb20ucnUwHhcNMTAwNTE3MTMyMjU1WhcNMjAwNTE0MTMyMjU1WjBrMQsw
CQYDVQQGEwJSVTELMAkGA1UECBMCTkExFjAUBgNVBAoTDUlOWkEtTFRELUFJU1Qx
FDASBgNVBAMTC3BlbGljYW4xM2t2MSEwHwYJKoZIhvcNAQkBFhJwYXZlbEBrdXN0
by5jb20ucnUwgZ8wDQYJKoZIhvcNAQEBBQADgY0AMIGJAoGBAKgadVcYUqAN6wGP
v0Bxcv7260Tgq2L24J88VPoCuUAZ2FQGHapnQneBtyyyqAbvC8IoPjs5/uTQbnkl
IsRxm4gUURoLFALCf1mlAI1QrVyPzNohkVKk8ujr+WNjnSEiLT/ZZI7p7222ffHx
infavHHGwUmUtrVe1UfG1SVpTkb9AgMBAAGjggECMIH/MAkGA1UdEwQCMAAwLAYJ
YIZIAYb4QgENBB8WHU9wZW5TU0wgR2VuZXJhdGVkIENlcnRpZmljYXRlMB0GA1Ud
DgQWBBTcoDsS8YS1zGn+sj0M1WldLVuWVzCBpAYDVR0jBIGcMIGZgBT2fOb7FLf2
wV4DmRKq7UDkRBJ2OKF+pHwwejELMAkGA1UEBhMCUlUxCzAJBgNVBAgTAk5BMRIw
EAYDVQQHEwlUT0dMSUFUVEkxFjAUBgNVBAoTDUlOWkEtTFRELUFJU1QxDzANBgNV
BAMTBnNlcnZlcjEhMB8GCSqGSIb3DQEJARYScGF2ZWxAa3VzdG8uY29tLnJ1ggEA
MA0GCSqGSIb3DQEBBAUAA4GBAD4b008qJC7yT7VxFVmpqmXmh0Wx3mP7IpKDr06C
RyYzZiA8Z+bH3/h3RxtjvjHBbGsE8pdLgCWfMravMHpBppEeasP1Z/a26Nq9uZAi
5K+hkPcSy+P6OKZv973/mlbD7HjYk5ln8ImxpMoAeDb1Y+LjORC1epO1ncelerPp
0P1m
-----END CERTIFICATE-----
