Certificate:
    Data:
        Version: 3 (0x2)
        Serial Number: 52 (0x34)
        Signature Algorithm: md5WithRSAEncryption
        Issuer: C=RU, ST=NA, L=TOGLIATTI, O=INZA-LTD-AIST, CN=server/emailAddress=pavel@kusto.com.ru
        Validity
            Not Before: Jun 22 07:50:20 2010 GMT
            Not After : Jun 19 07:50:20 2020 GMT
        Subject: C=RU, ST=NA, O=INZA-LTD-AIST, CN=ep/emailAddress=pavel@kusto.com.ru
        Subject Public Key Info:
            Public Key Algorithm: rsaEncryption
            RSA Public Key: (1024 bit)
                Modulus (1024 bit):
                    00:c0:e6:62:bd:e0:33:0f:f0:73:5a:11:93:44:b7:
                    e9:e7:81:e0:70:6e:2d:ad:93:b9:9f:3f:7e:04:c0:
                    83:cf:6d:01:35:44:f4:2a:32:c7:10:88:2e:8e:4a:
                    3a:34:15:21:5b:af:d5:d1:ed:d2:20:aa:c8:66:88:
                    e4:4d:a7:3b:20:51:a1:f5:a4:64:6c:1e:d7:67:90:
                    0b:dd:02:8a:a4:64:3b:54:d3:2f:4a:fb:61:c2:76:
                    a2:81:d5:6a:c1:a1:3b:99:14:dc:8c:39:65:2d:9c:
                    49:31:e7:dc:35:df:e3:d6:16:db:82:5f:27:92:3f:
                    d8:51:88:a1:ff:1d:fc:40:65
                Exponent: 65537 (0x10001)
        X509v3 extensions:
            X509v3 Basic Constraints: 
                CA:FALSE
            Netscape Comment: 
                OpenSSL Generated Certificate
            X509v3 Subject Key Identifier: 
                D9:5F:3C:48:B4:B3:68:07:BA:C9:8F:89:C0:81:4A:DA:5D:F9:3C:CC
            X509v3 Authority Key Identifier: 
                keyid:F6:7C:E6:FB:14:B7:F6:C1:5E:03:99:12:AA:ED:40:E4:44:12:76:38
                DirName:/C=RU/ST=NA/L=TOGLIATTI/O=INZA-LTD-AIST/CN=server/emailAddress=pavel@kusto.com.ru
                serial:00

    Signature Algorithm: md5WithRSAEncryption
        2a:0f:0f:54:1e:a2:98:57:81:76:24:f1:38:98:33:12:e7:1f:
        72:5d:4e:10:0a:57:bf:a6:9a:2d:61:62:54:c1:35:b2:0e:e2:
        5a:a4:5f:76:58:01:83:77:63:44:f7:9a:fe:03:5b:ec:51:8a:
        86:f9:76:d7:b7:63:ce:9a:44:0f:32:94:6b:30:62:c7:b9:4d:
        13:b0:6d:84:be:d3:9b:d4:34:b0:3f:80:a9:0b:00:68:51:2b:
        63:07:3b:e4:e8:9f:5d:bb:ae:67:49:e4:72:84:38:3d:f5:38:
        08:fa:97:57:ff:59:42:96:bd:e0:2c:15:db:cf:84:32:f5:75:
        cd:02
-----BEGIN CERTIFICATE-----
MIIDVjCCAr+gAwIBAgIBNDANBgkqhkiG9w0BAQQFADB6MQswCQYDVQQGEwJSVTEL
MAkGA1UECBMCTkExEjAQBgNVBAcTCVRPR0xJQVRUSTEWMBQGA1UEChMNSU5aQS1M
VEQtQUlTVDEPMA0GA1UEAxMGc2VydmVyMSEwHwYJKoZIhvcNAQkBFhJwYXZlbEBr
dXN0by5jb20ucnUwHhcNMTAwNjIyMDc1MDIwWhcNMjAwNjE5MDc1MDIwWjBiMQsw
CQYDVQQGEwJSVTELMAkGA1UECBMCTkExFjAUBgNVBAoTDUlOWkEtTFRELUFJU1Qx
CzAJBgNVBAMTAmVwMSEwHwYJKoZIhvcNAQkBFhJwYXZlbEBrdXN0by5jb20ucnUw
gZ8wDQYJKoZIhvcNAQEBBQADgY0AMIGJAoGBAMDmYr3gMw/wc1oRk0S36eeB4HBu
La2TuZ8/fgTAg89tATVE9CoyxxCILo5KOjQVIVuv1dHt0iCqyGaI5E2nOyBRofWk
ZGwe12eQC90CiqRkO1TTL0r7YcJ2ooHVasGhO5kU3Iw5ZS2cSTHn3DXf49YW24Jf
J5I/2FGIof8d/EBlAgMBAAGjggECMIH/MAkGA1UdEwQCMAAwLAYJYIZIAYb4QgEN
BB8WHU9wZW5TU0wgR2VuZXJhdGVkIENlcnRpZmljYXRlMB0GA1UdDgQWBBTZXzxI
tLNoB7rJj4nAgUraXfk8zDCBpAYDVR0jBIGcMIGZgBT2fOb7FLf2wV4DmRKq7UDk
RBJ2OKF+pHwwejELMAkGA1UEBhMCUlUxCzAJBgNVBAgTAk5BMRIwEAYDVQQHEwlU
T0dMSUFUVEkxFjAUBgNVBAoTDUlOWkEtTFRELUFJU1QxDzANBgNVBAMTBnNlcnZl
cjEhMB8GCSqGSIb3DQEJARYScGF2ZWxAa3VzdG8uY29tLnJ1ggEAMA0GCSqGSIb3
DQEBBAUAA4GBACoPD1QeophXgXYk8TiYMxLnH3JdThAKV7+mmi1hYlTBNbIO4lqk
X3ZYAYN3Y0T3mv4DW+xRiob5dte3Y86aRA8ylGswYse5TROwbYS+05vUNLA/gKkL
AGhRK2MHO+Ton127rmdJ5HKEOD31OAj6l1f/WUKWveAsFdvPhDL1dc0C
-----END CERTIFICATE-----
