Certificate:
    Data:
        Version: 3 (0x2)
        Serial Number: 53 (0x35)
        Signature Algorithm: md5WithRSAEncryption
        Issuer: C=RU, ST=NA, L=TOGLIATTI, O=INZA-LTD-AIST, CN=server/emailAddress=pavel@kusto.com.ru
        Validity
            Not Before: Jun 29 06:25:29 2010 GMT
            Not After : Jun 26 06:25:29 2020 GMT
        Subject: C=RU, ST=NA, O=INZA-LTD-AIST, CN=misha/emailAddress=pavel@kusto.com.ru
        Subject Public Key Info:
            Public Key Algorithm: rsaEncryption
            RSA Public Key: (1024 bit)
                Modulus (1024 bit):
                    00:c0:8b:f9:70:f8:ac:11:b7:bb:e9:1f:89:f1:a3:
                    fd:d8:cc:69:49:d3:d3:98:76:c5:58:8f:13:cf:63:
                    f6:29:14:46:21:01:5c:ba:c0:16:9d:b4:65:71:bc:
                    2a:54:33:b4:a5:66:c8:38:cd:22:f1:c9:f2:b9:78:
                    13:be:cf:e3:da:18:d2:68:82:76:54:09:41:97:55:
                    9f:14:6e:2a:18:f4:8d:46:5c:03:ff:49:6e:e2:27:
                    f7:8e:7f:a0:5c:e7:af:8f:79:19:b1:67:9c:93:bb:
                    0f:81:8b:4d:34:5b:aa:9a:8c:48:ae:8d:d9:bb:27:
                    ca:75:54:82:ad:4c:d5:71:d7
                Exponent: 65537 (0x10001)
        X509v3 extensions:
            X509v3 Basic Constraints: 
                CA:FALSE
            Netscape Comment: 
                OpenSSL Generated Certificate
            X509v3 Subject Key Identifier: 
                3C:AB:30:5A:83:8F:78:4D:82:70:D6:4E:F2:12:29:33:B6:EA:7A:63
            X509v3 Authority Key Identifier: 
                keyid:F6:7C:E6:FB:14:B7:F6:C1:5E:03:99:12:AA:ED:40:E4:44:12:76:38
                DirName:/C=RU/ST=NA/L=TOGLIATTI/O=INZA-LTD-AIST/CN=server/emailAddress=pavel@kusto.com.ru
                serial:00

    Signature Algorithm: md5WithRSAEncryption
        85:32:61:cb:c1:7b:fe:f4:6a:c2:7a:76:e3:b8:71:e3:10:f1:
        5e:52:ba:a7:b0:98:d7:cc:db:18:24:30:6a:ec:24:bc:70:16:
        25:d5:7c:27:3f:59:c8:e5:4f:c2:09:7c:e3:d6:5c:84:89:dd:
        05:7b:3a:fa:8f:5a:76:db:d9:c0:61:39:5d:f1:5b:c7:51:e8:
        58:dd:5a:ed:41:20:7a:0a:a2:cc:c0:cc:8b:9f:ab:8a:43:53:
        76:a7:dd:fd:44:5c:74:80:b8:25:c5:3a:01:a9:0c:87:61:72:
        38:91:e0:ce:a0:2f:df:9f:43:e6:11:32:99:1e:5a:9f:45:44:
        a6:78
-----BEGIN CERTIFICATE-----
MIIDWTCCAsKgAwIBAgIBNTANBgkqhkiG9w0BAQQFADB6MQswCQYDVQQGEwJSVTEL
MAkGA1UECBMCTkExEjAQBgNVBAcTCVRPR0xJQVRUSTEWMBQGA1UEChMNSU5aQS1M
VEQtQUlTVDEPMA0GA1UEAxMGc2VydmVyMSEwHwYJKoZIhvcNAQkBFhJwYXZlbEBr
dXN0by5jb20ucnUwHhcNMTAwNjI5MDYyNTI5WhcNMjAwNjI2MDYyNTI5WjBlMQsw
CQYDVQQGEwJSVTELMAkGA1UECBMCTkExFjAUBgNVBAoTDUlOWkEtTFRELUFJU1Qx
DjAMBgNVBAMTBW1pc2hhMSEwHwYJKoZIhvcNAQkBFhJwYXZlbEBrdXN0by5jb20u
cnUwgZ8wDQYJKoZIhvcNAQEBBQADgY0AMIGJAoGBAMCL+XD4rBG3u+kfifGj/djM
aUnT05h2xViPE89j9ikURiEBXLrAFp20ZXG8KlQztKVmyDjNIvHJ8rl4E77P49oY
0miCdlQJQZdVnxRuKhj0jUZcA/9JbuIn945/oFznr495GbFnnJO7D4GLTTRbqpqM
SK6N2bsnynVUgq1M1XHXAgMBAAGjggECMIH/MAkGA1UdEwQCMAAwLAYJYIZIAYb4
QgENBB8WHU9wZW5TU0wgR2VuZXJhdGVkIENlcnRpZmljYXRlMB0GA1UdDgQWBBQ8
qzBag494TYJw1k7yEikztup6YzCBpAYDVR0jBIGcMIGZgBT2fOb7FLf2wV4DmRKq
7UDkRBJ2OKF+pHwwejELMAkGA1UEBhMCUlUxCzAJBgNVBAgTAk5BMRIwEAYDVQQH
EwlUT0dMSUFUVEkxFjAUBgNVBAoTDUlOWkEtTFRELUFJU1QxDzANBgNVBAMTBnNl
cnZlcjEhMB8GCSqGSIb3DQEJARYScGF2ZWxAa3VzdG8uY29tLnJ1ggEAMA0GCSqG
SIb3DQEBBAUAA4GBAIUyYcvBe/70asJ6duO4ceMQ8V5SuqewmNfM2xgkMGrsJLxw
FiXVfCc/WcjlT8IJfOPWXISJ3QV7OvqPWnbb2cBhOV3xW8dR6FjdWu1BIHoKoszA
zIufq4pDU3an3f1EXHSAuCXFOgGpDIdhcjiR4M6gL9+fQ+YRMpkeWp9FRKZ4
-----END CERTIFICATE-----
