Certificate:
    Data:
        Version: 3 (0x2)
        Serial Number: 54 (0x36)
        Signature Algorithm: md5WithRSAEncryption
        Issuer: C=RU, ST=NA, L=TOGLIATTI, O=INZA-LTD-AIST, CN=server/emailAddress=pavel@kusto.com.ru
        Validity
            Not Before: Jun 29 09:43:30 2010 GMT
            Not After : Jun 26 09:43:30 2020 GMT
        Subject: C=RU, ST=NA, O=INZA-LTD-AIST, CN=pelican7_3kv/emailAddress=pavel@kusto.com.ru
        Subject Public Key Info:
            Public Key Algorithm: rsaEncryption
            RSA Public Key: (1024 bit)
                Modulus (1024 bit):
                    00:a7:2b:fe:b4:ac:8e:e2:e1:92:10:af:94:95:94:
                    31:18:34:42:74:b4:8f:bf:6c:ad:46:f4:54:a6:d8:
                    aa:f4:6c:6b:f1:ae:e9:b8:d7:fd:c4:1c:16:1f:0e:
                    9f:50:50:e7:d5:b7:27:3c:67:af:b7:6a:f7:29:93:
                    cb:13:81:41:a6:04:f3:67:bd:46:cf:00:ae:dd:56:
                    58:44:d8:a3:2c:4c:ab:6a:51:01:21:a4:57:29:53:
                    88:86:8e:f8:1d:71:1a:eb:d4:29:70:fa:14:29:09:
                    39:a8:82:c7:ab:11:53:18:ac:4a:c6:05:9e:91:1d:
                    ee:4e:db:9d:4e:94:6f:bc:b5
                Exponent: 65537 (0x10001)
        X509v3 extensions:
            X509v3 Basic Constraints: 
                CA:FALSE
            Netscape Comment: 
                OpenSSL Generated Certificate
            X509v3 Subject Key Identifier: 
                A6:B3:82:B2:3A:F1:B8:F7:BD:19:0D:46:D5:CF:F6:8A:30:12:30:61
            X509v3 Authority Key Identifier: 
                keyid:F6:7C:E6:FB:14:B7:F6:C1:5E:03:99:12:AA:ED:40:E4:44:12:76:38
                DirName:/C=RU/ST=NA/L=TOGLIATTI/O=INZA-LTD-AIST/CN=server/emailAddress=pavel@kusto.com.ru
                serial:00

    Signature Algorithm: md5WithRSAEncryption
        80:53:51:04:7c:7a:ca:1a:eb:10:4f:f2:a0:9b:ce:85:9a:bf:
        4d:9d:07:53:49:a4:02:65:ca:ae:5d:cd:c9:90:24:c4:ea:c8:
        25:9a:c8:ee:81:58:a7:12:48:70:83:2f:94:d7:f0:65:78:3e:
        7f:c2:2e:bb:b0:39:c5:d8:98:1a:74:21:43:ac:fb:4a:1a:e9:
        9c:6b:fe:b6:f9:29:26:eb:51:d3:48:da:5e:01:c6:85:dc:c9:
        f6:cb:ca:bb:f7:02:4d:9d:85:e5:6c:90:20:c2:2b:4b:64:8b:
        0c:e2:d6:e0:b2:74:2e:a2:44:84:26:59:59:1d:b3:ce:49:9e:
        fb:ff
-----BEGIN CERTIFICATE-----
MIIDYDCCAsmgAwIBAgIBNjANBgkqhkiG9w0BAQQFADB6MQswCQYDVQQGEwJSVTEL
MAkGA1UECBMCTkExEjAQBgNVBAcTCVRPR0xJQVRUSTEWMBQGA1UEChMNSU5aQS1M
VEQtQUlTVDEPMA0GA1UEAxMGc2VydmVyMSEwHwYJKoZIhvcNAQkBFhJwYXZlbEBr
dXN0by5jb20ucnUwHhcNMTAwNjI5MDk0MzMwWhcNMjAwNjI2MDk0MzMwWjBsMQsw
CQYDVQQGEwJSVTELMAkGA1UECBMCTkExFjAUBgNVBAoTDUlOWkEtTFRELUFJU1Qx
FTATBgNVBAMUDHBlbGljYW43XzNrdjEhMB8GCSqGSIb3DQEJARYScGF2ZWxAa3Vz
dG8uY29tLnJ1MIGfMA0GCSqGSIb3DQEBAQUAA4GNADCBiQKBgQCnK/60rI7i4ZIQ
r5SVlDEYNEJ0tI+/bK1G9FSm2Kr0bGvxrum41/3EHBYfDp9QUOfVtyc8Z6+3avcp
k8sTgUGmBPNnvUbPAK7dVlhE2KMsTKtqUQEhpFcpU4iGjvgdcRrr1Clw+hQpCTmo
gserEVMYrErGBZ6RHe5O251OlG+8tQIDAQABo4IBAjCB/zAJBgNVHRMEAjAAMCwG
CWCGSAGG+EIBDQQfFh1PcGVuU1NMIEdlbmVyYXRlZCBDZXJ0aWZpY2F0ZTAdBgNV
HQ4EFgQUprOCsjrxuPe9GQ1G1c/2ijASMGEwgaQGA1UdIwSBnDCBmYAU9nzm+xS3
9sFeA5kSqu1A5EQSdjihfqR8MHoxCzAJBgNVBAYTAlJVMQswCQYDVQQIEwJOQTES
MBAGA1UEBxMJVE9HTElBVFRJMRYwFAYDVQQKEw1JTlpBLUxURC1BSVNUMQ8wDQYD
VQQDEwZzZXJ2ZXIxITAfBgkqhkiG9w0BCQEWEnBhdmVsQGt1c3RvLmNvbS5ydYIB
ADANBgkqhkiG9w0BAQQFAAOBgQCAU1EEfHrKGusQT/Kgm86Fmr9NnQdTSaQCZcqu
Xc3JkCTE6sglmsjugVinEkhwgy+U1/BleD5/wi67sDnF2JgadCFDrPtKGumca/62
+Skm61HTSNpeAcaF3Mn2y8q79wJNnYXlbJAgwitLZIsM4tbgsnQuokSEJllZHbPO
SZ77/w==
-----END CERTIFICATE-----
