Certificate:
    Data:
        Version: 3 (0x2)
        Serial Number: 56 (0x38)
        Signature Algorithm: md5WithRSAEncryption
        Issuer: C=RU, ST=NA, L=TOGLIATTI, O=INZA-LTD-AIST, CN=server/emailAddress=pavel@kusto.com.ru
        Validity
            Not Before: Aug 31 06:41:48 2010 GMT
            Not After : Aug 28 06:41:48 2020 GMT
        Subject: C=RU, ST=NA, O=INZA-LTD-AIST, CN=pelican_5kv/emailAddress=pavel@kusto.com.ru
        Subject Public Key Info:
            Public Key Algorithm: rsaEncryption
            RSA Public Key: (1024 bit)
                Modulus (1024 bit):
                    00:c3:04:0a:e7:6c:94:11:e9:cd:6b:44:57:03:a1:
                    71:c3:af:56:e8:bc:76:9e:a7:8c:49:05:fc:26:0e:
                    34:d3:da:51:4e:68:6f:87:9e:6d:2b:ee:0e:b4:c7:
                    7d:66:95:4d:93:03:4b:2c:b3:2a:1c:51:e2:40:d5:
                    2d:95:63:bd:5b:08:ad:58:d9:46:58:aa:1d:ae:cb:
                    77:e3:be:a6:d8:11:06:9b:79:08:c2:b5:18:94:7d:
                    f4:dd:4d:74:ec:c4:95:3e:7a:28:ba:ec:10:b8:43:
                    00:4f:c9:fe:5c:f5:38:90:3f:e7:58:64:1b:7e:5e:
                    f4:00:85:70:32:2e:3e:41:47
                Exponent: 65537 (0x10001)
        X509v3 extensions:
            X509v3 Basic Constraints: 
                CA:FALSE
            Netscape Comment: 
                OpenSSL Generated Certificate
            X509v3 Subject Key Identifier: 
                D3:06:98:43:DE:24:DD:3F:54:84:32:3C:8B:03:58:E9:1E:1E:E6:2D
            X509v3 Authority Key Identifier: 
                keyid:F6:7C:E6:FB:14:B7:F6:C1:5E:03:99:12:AA:ED:40:E4:44:12:76:38
                DirName:/C=RU/ST=NA/L=TOGLIATTI/O=INZA-LTD-AIST/CN=server/emailAddress=pavel@kusto.com.ru
                serial:00

    Signature Algorithm: md5WithRSAEncryption
        25:cc:57:6b:58:63:0f:cc:ab:45:fe:08:11:2b:7e:93:5f:00:
        e1:67:cc:64:b9:2f:b1:62:4f:57:45:96:d9:e0:34:61:c8:45:
        d1:80:be:be:bb:75:f8:5f:3e:ea:62:87:45:e7:71:8c:6d:97:
        7e:54:cb:6f:6a:95:d5:36:ed:ae:87:9f:a8:b4:aa:11:df:1b:
        b7:15:52:65:81:fd:a3:d9:05:55:f3:a1:78:5a:e7:a2:62:b3:
        9b:c5:72:9d:19:de:10:68:b1:ad:eb:ec:38:f4:7c:45:48:cf:
        64:db:45:b6:de:0c:43:e2:03:13:25:71:50:ab:a2:f8:12:12:
        e5:da
-----BEGIN CERTIFICATE-----
MIIDXzCCAsigAwIBAgIBODANBgkqhkiG9w0BAQQFADB6MQswCQYDVQQGEwJSVTEL
MAkGA1UECBMCTkExEjAQBgNVBAcTCVRPR0xJQVRUSTEWMBQGA1UEChMNSU5aQS1M
VEQtQUlTVDEPMA0GA1UEAxMGc2VydmVyMSEwHwYJKoZIhvcNAQkBFhJwYXZlbEBr
dXN0by5jb20ucnUwHhcNMTAwODMxMDY0MTQ4WhcNMjAwODI4MDY0MTQ4WjBrMQsw
CQYDVQQGEwJSVTELMAkGA1UECBMCTkExFjAUBgNVBAoTDUlOWkEtTFRELUFJU1Qx
FDASBgNVBAMUC3BlbGljYW5fNWt2MSEwHwYJKoZIhvcNAQkBFhJwYXZlbEBrdXN0
by5jb20ucnUwgZ8wDQYJKoZIhvcNAQEBBQADgY0AMIGJAoGBAMMECudslBHpzWtE
VwOhccOvVui8dp6njEkF/CYONNPaUU5ob4eebSvuDrTHfWaVTZMDSyyzKhxR4kDV
LZVjvVsIrVjZRliqHa7Ld+O+ptgRBpt5CMK1GJR99N1NdOzElT56KLrsELhDAE/J
/lz1OJA/51hkG35e9ACFcDIuPkFHAgMBAAGjggECMIH/MAkGA1UdEwQCMAAwLAYJ
YIZIAYb4QgENBB8WHU9wZW5TU0wgR2VuZXJhdGVkIENlcnRpZmljYXRlMB0GA1Ud
DgQWBBTTBphD3iTdP1SEMjyLA1jpHh7mLTCBpAYDVR0jBIGcMIGZgBT2fOb7FLf2
wV4DmRKq7UDkRBJ2OKF+pHwwejELMAkGA1UEBhMCUlUxCzAJBgNVBAgTAk5BMRIw
EAYDVQQHEwlUT0dMSUFUVEkxFjAUBgNVBAoTDUlOWkEtTFRELUFJU1QxDzANBgNV
BAMTBnNlcnZlcjEhMB8GCSqGSIb3DQEJARYScGF2ZWxAa3VzdG8uY29tLnJ1ggEA
MA0GCSqGSIb3DQEBBAUAA4GBACXMV2tYYw/Mq0X+CBErfpNfAOFnzGS5L7FiT1dF
ltngNGHIRdGAvr67dfhfPupih0XncYxtl35Uy29qldU27a6Hn6i0qhHfG7cVUmWB
/aPZBVXzoXha56Jis5vFcp0Z3hBosa3r7Dj0fEVIz2TbRbbeDEPiAxMlcVCrovgS
EuXa
-----END CERTIFICATE-----
