Certificate:
    Data:
        Version: 3 (0x2)
        Serial Number: 62 (0x3e)
        Signature Algorithm: md5WithRSAEncryption
        Issuer: C=RU, ST=NA, L=TOGLIATTI, O=INZA-LTD-AIST, CN=server/emailAddress=pavel@kusto.com.ru
        Validity
            Not Before: Nov  8 11:27:36 2010 GMT
            Not After : Nov  5 11:27:36 2020 GMT
        Subject: C=RU, ST=NA, O=INZA-LTD-AIST, CN=pelican_komsa1/emailAddress=pavel@kusto.com.ru
        Subject Public Key Info:
            Public Key Algorithm: rsaEncryption
            RSA Public Key: (1024 bit)
                Modulus (1024 bit):
                    00:e0:50:51:53:cd:83:6f:61:fd:64:9b:1e:a1:82:
                    cb:c5:59:87:34:2c:a3:e4:90:07:a9:ed:2e:8c:fc:
                    f7:48:5d:7f:c8:82:8f:b1:16:12:83:0b:5e:cd:83:
                    29:49:30:98:a2:64:1c:85:8e:8f:47:1d:20:95:6c:
                    49:77:25:5d:d6:d4:c1:75:eb:40:6f:1f:aa:c1:d7:
                    e0:06:e2:70:4d:4f:23:fd:2c:37:29:41:ad:db:a2:
                    c8:84:a3:4f:85:50:74:39:45:4f:99:2a:54:81:ce:
                    f4:75:0f:ce:48:e9:06:3b:58:b6:89:43:1a:d4:f9:
                    cd:ea:d3:ee:4b:9d:60:e1:73
                Exponent: 65537 (0x10001)
        X509v3 extensions:
            X509v3 Basic Constraints: 
                CA:FALSE
            Netscape Comment: 
                OpenSSL Generated Certificate
            X509v3 Subject Key Identifier: 
                81:2E:5B:19:67:7C:CA:98:0C:31:E1:B9:7B:BF:8D:96:A1:B4:C6:60
            X509v3 Authority Key Identifier: 
                keyid:F6:7C:E6:FB:14:B7:F6:C1:5E:03:99:12:AA:ED:40:E4:44:12:76:38
                DirName:/C=RU/ST=NA/L=TOGLIATTI/O=INZA-LTD-AIST/CN=server/emailAddress=pavel@kusto.com.ru
                serial:00

    Signature Algorithm: md5WithRSAEncryption
        b5:69:14:76:85:fa:1d:44:88:21:66:9b:33:0e:24:19:5a:74:
        9c:60:2a:0d:89:9c:f1:c0:d5:37:3e:eb:92:db:29:80:0a:a8:
        ec:43:c1:97:1c:49:00:26:c8:b3:48:f6:d8:2a:d4:ab:c1:26:
        b8:55:40:23:5c:a8:ce:55:c1:44:92:21:94:5f:5e:19:d2:6a:
        58:d6:9b:d9:c1:db:ac:26:18:78:29:74:a1:8c:31:20:52:3e:
        fb:4a:f6:38:12:85:61:e7:67:84:09:2f:57:21:ab:27:2b:af:
        20:7e:85:7b:45:1b:c1:19:3f:0c:6d:61:7e:25:64:6d:c3:19:
        3e:f7
-----BEGIN CERTIFICATE-----
MIIDYjCCAsugAwIBAgIBPjANBgkqhkiG9w0BAQQFADB6MQswCQYDVQQGEwJSVTEL
MAkGA1UECBMCTkExEjAQBgNVBAcTCVRPR0xJQVRUSTEWMBQGA1UEChMNSU5aQS1M
VEQtQUlTVDEPMA0GA1UEAxMGc2VydmVyMSEwHwYJKoZIhvcNAQkBFhJwYXZlbEBr
dXN0by5jb20ucnUwHhcNMTAxMTA4MTEyNzM2WhcNMjAxMTA1MTEyNzM2WjBuMQsw
CQYDVQQGEwJSVTELMAkGA1UECBMCTkExFjAUBgNVBAoTDUlOWkEtTFRELUFJU1Qx
FzAVBgNVBAMUDnBlbGljYW5fa29tc2ExMSEwHwYJKoZIhvcNAQkBFhJwYXZlbEBr
dXN0by5jb20ucnUwgZ8wDQYJKoZIhvcNAQEBBQADgY0AMIGJAoGBAOBQUVPNg29h
/WSbHqGCy8VZhzQso+SQB6ntLoz890hdf8iCj7EWEoMLXs2DKUkwmKJkHIWOj0cd
IJVsSXclXdbUwXXrQG8fqsHX4AbicE1PI/0sNylBrduiyISjT4VQdDlFT5kqVIHO
9HUPzkjpBjtYtolDGtT5zerT7kudYOFzAgMBAAGjggECMIH/MAkGA1UdEwQCMAAw
LAYJYIZIAYb4QgENBB8WHU9wZW5TU0wgR2VuZXJhdGVkIENlcnRpZmljYXRlMB0G
A1UdDgQWBBSBLlsZZ3zKmAwx4bl7v42WobTGYDCBpAYDVR0jBIGcMIGZgBT2fOb7
FLf2wV4DmRKq7UDkRBJ2OKF+pHwwejELMAkGA1UEBhMCUlUxCzAJBgNVBAgTAk5B
MRIwEAYDVQQHEwlUT0dMSUFUVEkxFjAUBgNVBAoTDUlOWkEtTFRELUFJU1QxDzAN
BgNVBAMTBnNlcnZlcjEhMB8GCSqGSIb3DQEJARYScGF2ZWxAa3VzdG8uY29tLnJ1
ggEAMA0GCSqGSIb3DQEBBAUAA4GBALVpFHaF+h1EiCFmmzMOJBladJxgKg2JnPHA
1Tc+65LbKYAKqOxDwZccSQAmyLNI9tgq1KvBJrhVQCNcqM5VwUSSIZRfXhnSaljW
m9nB26wmGHgpdKGMMSBSPvtK9jgShWHnZ4QJL1chqycrryB+hXtFG8EZPwxtYX4l
ZG3DGT73
-----END CERTIFICATE-----
