Certificate:
    Data:
        Version: 3 (0x2)
        Serial Number: 67 (0x43)
        Signature Algorithm: md5WithRSAEncryption
        Issuer: C=RU, ST=NA, L=TOGLIATTI, O=INZA-LTD-AIST, CN=server/emailAddress=pavel@kusto.com.ru
        Validity
            Not Before: Dec 14 06:49:16 2010 GMT
            Not After : Dec 11 06:49:16 2020 GMT
        Subject: C=RU, ST=NA, O=INZA-LTD-AIST, CN=pelican_gag1/emailAddress=pavel@kusto.com.ru
        Subject Public Key Info:
            Public Key Algorithm: rsaEncryption
            RSA Public Key: (1024 bit)
                Modulus (1024 bit):
                    00:b3:77:85:85:98:7f:8c:6b:da:96:68:3b:15:7f:
                    88:92:ca:c0:51:23:8c:69:e8:dc:f6:67:cf:06:07:
                    ad:75:54:ce:54:db:86:7f:6d:96:23:8c:c1:bd:07:
                    c1:c3:93:5a:3c:93:c8:9f:8b:9d:96:d0:c4:85:e8:
                    1a:b4:56:5e:83:11:21:cf:e4:c7:98:c5:76:91:28:
                    4b:e7:da:15:1a:a1:a8:40:60:d3:bb:11:c1:22:17:
                    80:19:7b:ce:34:45:c6:24:3b:98:af:42:be:9f:36:
                    a5:ae:a8:81:8b:0e:25:92:06:7d:83:4d:f7:54:0b:
                    ee:eb:5e:b0:46:e9:92:3b:19
                Exponent: 65537 (0x10001)
        X509v3 extensions:
            X509v3 Basic Constraints: 
                CA:FALSE
            Netscape Comment: 
                OpenSSL Generated Certificate
            X509v3 Subject Key Identifier: 
                EB:7B:94:70:55:F4:5F:A7:05:41:B4:AF:AF:1E:35:F8:F7:CA:44:0F
            X509v3 Authority Key Identifier: 
                keyid:F6:7C:E6:FB:14:B7:F6:C1:5E:03:99:12:AA:ED:40:E4:44:12:76:38
                DirName:/C=RU/ST=NA/L=TOGLIATTI/O=INZA-LTD-AIST/CN=server/emailAddress=pavel@kusto.com.ru
                serial:00

    Signature Algorithm: md5WithRSAEncryption
        13:45:36:42:be:2b:ee:83:7f:4f:b5:30:64:93:76:e4:8c:ca:
        ff:f5:65:38:36:29:4f:1f:7b:a9:61:cd:79:08:8e:e0:ee:ab:
        0a:fd:a9:5a:62:fa:32:6f:44:3c:9a:5f:3f:46:a1:a3:0b:d6:
        cd:73:c5:c7:65:dc:96:44:8c:92:28:3d:85:d5:c9:4e:4c:8c:
        9e:49:cd:82:34:80:0a:e5:4c:05:9a:12:0b:d4:27:95:97:0d:
        3c:64:9d:b9:23:71:c7:96:57:62:0b:aa:ff:fb:d3:60:9a:1a:
        c9:b4:d4:8c:8d:5d:5f:6e:72:fc:f0:68:a4:98:d0:25:b5:cf:
        87:c2
-----BEGIN CERTIFICATE-----
MIIDYDCCAsmgAwIBAgIBQzANBgkqhkiG9w0BAQQFADB6MQswCQYDVQQGEwJSVTEL
MAkGA1UECBMCTkExEjAQBgNVBAcTCVRPR0xJQVRUSTEWMBQGA1UEChMNSU5aQS1M
VEQtQUlTVDEPMA0GA1UEAxMGc2VydmVyMSEwHwYJKoZIhvcNAQkBFhJwYXZlbEBr
dXN0by5jb20ucnUwHhcNMTAxMjE0MDY0OTE2WhcNMjAxMjExMDY0OTE2WjBsMQsw
CQYDVQQGEwJSVTELMAkGA1UECBMCTkExFjAUBgNVBAoTDUlOWkEtTFRELUFJU1Qx
FTATBgNVBAMUDHBlbGljYW5fZ2FnMTEhMB8GCSqGSIb3DQEJARYScGF2ZWxAa3Vz
dG8uY29tLnJ1MIGfMA0GCSqGSIb3DQEBAQUAA4GNADCBiQKBgQCzd4WFmH+Ma9qW
aDsVf4iSysBRI4xp6Nz2Z88GB611VM5U24Z/bZYjjMG9B8HDk1o8k8ifi52W0MSF
6Bq0Vl6DESHP5MeYxXaRKEvn2hUaoahAYNO7EcEiF4AZe840RcYkO5ivQr6fNqWu
qIGLDiWSBn2DTfdUC+7rXrBG6ZI7GQIDAQABo4IBAjCB/zAJBgNVHRMEAjAAMCwG
CWCGSAGG+EIBDQQfFh1PcGVuU1NMIEdlbmVyYXRlZCBDZXJ0aWZpY2F0ZTAdBgNV
HQ4EFgQU63uUcFX0X6cFQbSvrx41+PfKRA8wgaQGA1UdIwSBnDCBmYAU9nzm+xS3
9sFeA5kSqu1A5EQSdjihfqR8MHoxCzAJBgNVBAYTAlJVMQswCQYDVQQIEwJOQTES
MBAGA1UEBxMJVE9HTElBVFRJMRYwFAYDVQQKEw1JTlpBLUxURC1BSVNUMQ8wDQYD
VQQDEwZzZXJ2ZXIxITAfBgkqhkiG9w0BCQEWEnBhdmVsQGt1c3RvLmNvbS5ydYIB
ADANBgkqhkiG9w0BAQQFAAOBgQATRTZCvivug39PtTBkk3bkjMr/9WU4NilPH3up
Yc15CI7g7qsK/alaYvoyb0Q8ml8/RqGjC9bNc8XHZdyWRIySKD2F1clOTIyeSc2C
NIAK5UwFmhIL1CeVlw08ZJ25I3HHlldiC6r/+9NgmhrJtNSMjV1fbnL88GikmNAl
tc+Hwg==
-----END CERTIFICATE-----
