Certificate:
    Data:
        Version: 3 (0x2)
        Serial Number: 86 (0x56)
        Signature Algorithm: md5WithRSAEncryption
        Issuer: C=RU, ST=NA, L=TOGLIATTI, O=INZA-LTD-AIST, CN=server/emailAddress=pavel@kusto.com.ru
        Validity
            Not Before: Jul  8 12:20:49 2011 GMT
            Not After : Jul  5 12:20:49 2021 GMT
        Subject: C=RU, ST=NA, O=INZA-LTD-AIST, CN=julia/emailAddress=pavel@kusto.com.ru
        Subject Public Key Info:
            Public Key Algorithm: rsaEncryption
            RSA Public Key: (1024 bit)
                Modulus (1024 bit):
                    00:d6:6d:9b:38:b3:a7:6e:51:70:64:e4:52:59:6b:
                    00:61:48:6a:94:43:6b:26:7f:57:59:2a:f9:4e:53:
                    15:ab:1b:3f:50:a3:3b:32:59:79:30:8b:03:1c:04:
                    2f:d2:a4:ae:cd:0f:f7:a2:2e:a6:b8:73:e1:92:4c:
                    b4:cb:c3:84:30:35:55:37:6f:74:c9:b1:6f:a0:01:
                    bc:e3:b5:2a:47:57:de:ea:16:f2:2d:95:09:15:dc:
                    dc:74:bb:f7:e6:79:74:86:21:e3:36:7c:3f:f3:b3:
                    b4:56:e3:ab:ff:e7:09:2b:d5:3c:2e:55:54:39:ae:
                    e4:30:01:8e:e5:ea:95:30:71
                Exponent: 65537 (0x10001)
        X509v3 extensions:
            X509v3 Basic Constraints: 
                CA:FALSE
            Netscape Comment: 
                OpenSSL Generated Certificate
            X509v3 Subject Key Identifier: 
                37:D9:9E:F3:B8:7B:7E:8D:7D:66:09:D4:17:8D:16:9B:E2:E9:67:F2
            X509v3 Authority Key Identifier: 
                keyid:F6:7C:E6:FB:14:B7:F6:C1:5E:03:99:12:AA:ED:40:E4:44:12:76:38
                DirName:/C=RU/ST=NA/L=TOGLIATTI/O=INZA-LTD-AIST/CN=server/emailAddress=pavel@kusto.com.ru
                serial:00

    Signature Algorithm: md5WithRSAEncryption
        5f:4c:03:36:df:26:0f:52:0d:8c:2d:1b:36:9b:36:bf:72:5e:
        51:f0:d9:2e:c0:1d:75:7a:a5:dd:d0:e6:c4:51:83:0e:fe:5e:
        d9:9f:2a:bc:91:9f:63:e2:b5:a1:1a:74:0c:c8:13:d2:26:96:
        04:c7:27:a3:8b:9c:9c:85:0b:6d:30:8a:94:4b:fb:8d:17:46:
        cf:bd:82:e7:aa:2f:7b:87:16:55:bb:41:40:58:95:5b:83:58:
        bb:e5:43:3d:fe:99:24:ed:73:4a:d0:6e:1b:13:b6:a4:07:3b:
        79:bc:24:92:59:09:55:a0:d4:51:55:fe:a8:54:f6:87:f6:2a:
        47:84
-----BEGIN CERTIFICATE-----
MIIDWTCCAsKgAwIBAgIBVjANBgkqhkiG9w0BAQQFADB6MQswCQYDVQQGEwJSVTEL
MAkGA1UECBMCTkExEjAQBgNVBAcTCVRPR0xJQVRUSTEWMBQGA1UEChMNSU5aQS1M
VEQtQUlTVDEPMA0GA1UEAxMGc2VydmVyMSEwHwYJKoZIhvcNAQkBFhJwYXZlbEBr
dXN0by5jb20ucnUwHhcNMTEwNzA4MTIyMDQ5WhcNMjEwNzA1MTIyMDQ5WjBlMQsw
CQYDVQQGEwJSVTELMAkGA1UECBMCTkExFjAUBgNVBAoTDUlOWkEtTFRELUFJU1Qx
DjAMBgNVBAMTBWp1bGlhMSEwHwYJKoZIhvcNAQkBFhJwYXZlbEBrdXN0by5jb20u
cnUwgZ8wDQYJKoZIhvcNAQEBBQADgY0AMIGJAoGBANZtmzizp25RcGTkUllrAGFI
apRDayZ/V1kq+U5TFasbP1CjOzJZeTCLAxwEL9Kkrs0P96Iuprhz4ZJMtMvDhDA1
VTdvdMmxb6ABvOO1KkdX3uoW8i2VCRXc3HS79+Z5dIYh4zZ8P/OztFbjq//nCSvV
PC5VVDmu5DABjuXqlTBxAgMBAAGjggECMIH/MAkGA1UdEwQCMAAwLAYJYIZIAYb4
QgENBB8WHU9wZW5TU0wgR2VuZXJhdGVkIENlcnRpZmljYXRlMB0GA1UdDgQWBBQ3
2Z7zuHt+jX1mCdQXjRab4uln8jCBpAYDVR0jBIGcMIGZgBT2fOb7FLf2wV4DmRKq
7UDkRBJ2OKF+pHwwejELMAkGA1UEBhMCUlUxCzAJBgNVBAgTAk5BMRIwEAYDVQQH
EwlUT0dMSUFUVEkxFjAUBgNVBAoTDUlOWkEtTFRELUFJU1QxDzANBgNVBAMTBnNl
cnZlcjEhMB8GCSqGSIb3DQEJARYScGF2ZWxAa3VzdG8uY29tLnJ1ggEAMA0GCSqG
SIb3DQEBBAUAA4GBAF9MAzbfJg9SDYwtGzabNr9yXlHw2S7AHXV6pd3Q5sRRgw7+
XtmfKryRn2PitaEadAzIE9ImlgTHJ6OLnJyFC20wipRL+40XRs+9gueqL3uHFlW7
QUBYlVuDWLvlQz3+mSTtc0rQbhsTtqQHO3m8JJJZCVWg1FFV/qhU9of2KkeE
-----END CERTIFICATE-----
