Certificate:
    Data:
        Version: 3 (0x2)
        Serial Number: 92 (0x5c)
        Signature Algorithm: md5WithRSAEncryption
        Issuer: C=RU, ST=NA, L=TOGLIATTI, O=INZA-LTD-AIST, CN=server/emailAddress=pavel@kusto.com.ru
        Validity
            Not Before: Sep 26 06:54:06 2011 GMT
            Not After : Sep 23 06:54:06 2021 GMT
        Subject: C=RU, ST=NA, O=INZA-LTD-AIST, CN=pel11_2/emailAddress=pavel@kusto.com.ru
        Subject Public Key Info:
            Public Key Algorithm: rsaEncryption
            RSA Public Key: (1024 bit)
                Modulus (1024 bit):
                    00:b1:03:61:a8:96:f8:0a:8e:3b:5c:b3:2f:5a:e9:
                    ab:ef:60:a2:61:f9:01:c6:43:6c:6b:cb:f1:5d:be:
                    eb:90:54:31:11:16:21:81:06:41:f4:5b:d7:60:08:
                    a2:94:af:73:d3:4d:1c:60:5f:41:e3:15:1e:ce:a1:
                    96:87:aa:f9:ae:c9:f3:88:7a:b8:26:65:d9:89:e6:
                    7e:e8:bc:ab:87:ff:2f:5d:a5:73:5a:c8:58:82:7a:
                    5f:3d:06:59:49:90:29:08:72:3c:cd:23:2a:17:b7:
                    d5:9e:34:fb:6b:e3:76:ed:d3:0b:ad:40:02:27:bc:
                    73:cb:dc:f9:54:8c:ff:00:db
                Exponent: 65537 (0x10001)
        X509v3 extensions:
            X509v3 Basic Constraints: 
                CA:FALSE
            Netscape Comment: 
                OpenSSL Generated Certificate
            X509v3 Subject Key Identifier: 
                00:B7:D2:2F:BA:FB:3D:A0:44:D0:DB:47:EF:B7:6E:3F:CF:19:B5:04
            X509v3 Authority Key Identifier: 
                keyid:F6:7C:E6:FB:14:B7:F6:C1:5E:03:99:12:AA:ED:40:E4:44:12:76:38
                DirName:/C=RU/ST=NA/L=TOGLIATTI/O=INZA-LTD-AIST/CN=server/emailAddress=pavel@kusto.com.ru
                serial:00

    Signature Algorithm: md5WithRSAEncryption
        bb:0d:ea:ff:8c:95:27:ea:79:2d:01:57:e1:93:48:3e:cd:94:
        34:1e:b6:da:d1:0b:17:0c:65:55:68:a2:a8:8c:d4:d1:7b:49:
        1c:b8:0b:33:4c:bc:23:8f:08:e8:d9:a6:c4:31:2b:f8:db:f0:
        f1:10:19:44:38:b4:ec:bf:9d:f4:ac:75:dd:4d:b5:5a:27:1c:
        cb:bd:b5:8e:60:0a:74:d3:c5:33:87:bc:98:98:19:7f:6c:2a:
        f2:3d:8f:50:29:c6:d0:b0:cb:aa:e4:35:3a:aa:0c:7a:e4:b6:
        32:de:be:e4:ea:1e:d0:85:6b:58:9e:db:a5:e3:db:5c:61:d6:
        9d:28
-----BEGIN CERTIFICATE-----
MIIDWzCCAsSgAwIBAgIBXDANBgkqhkiG9w0BAQQFADB6MQswCQYDVQQGEwJSVTEL
MAkGA1UECBMCTkExEjAQBgNVBAcTCVRPR0xJQVRUSTEWMBQGA1UEChMNSU5aQS1M
VEQtQUlTVDEPMA0GA1UEAxMGc2VydmVyMSEwHwYJKoZIhvcNAQkBFhJwYXZlbEBr
dXN0by5jb20ucnUwHhcNMTEwOTI2MDY1NDA2WhcNMjEwOTIzMDY1NDA2WjBnMQsw
CQYDVQQGEwJSVTELMAkGA1UECBMCTkExFjAUBgNVBAoTDUlOWkEtTFRELUFJU1Qx
EDAOBgNVBAMUB3BlbDExXzIxITAfBgkqhkiG9w0BCQEWEnBhdmVsQGt1c3RvLmNv
bS5ydTCBnzANBgkqhkiG9w0BAQEFAAOBjQAwgYkCgYEAsQNhqJb4Co47XLMvWumr
72CiYfkBxkNsa8vxXb7rkFQxERYhgQZB9FvXYAiilK9z000cYF9B4xUezqGWh6r5
rsnziHq4JmXZieZ+6Lyrh/8vXaVzWshYgnpfPQZZSZApCHI8zSMqF7fVnjT7a+N2
7dMLrUACJ7xzy9z5VIz/ANsCAwEAAaOCAQIwgf8wCQYDVR0TBAIwADAsBglghkgB
hvhCAQ0EHxYdT3BlblNTTCBHZW5lcmF0ZWQgQ2VydGlmaWNhdGUwHQYDVR0OBBYE
FAC30i+6+z2gRNDbR++3bj/PGbUEMIGkBgNVHSMEgZwwgZmAFPZ85vsUt/bBXgOZ
EqrtQOREEnY4oX6kfDB6MQswCQYDVQQGEwJSVTELMAkGA1UECBMCTkExEjAQBgNV
BAcTCVRPR0xJQVRUSTEWMBQGA1UEChMNSU5aQS1MVEQtQUlTVDEPMA0GA1UEAxMG
c2VydmVyMSEwHwYJKoZIhvcNAQkBFhJwYXZlbEBrdXN0by5jb20ucnWCAQAwDQYJ
KoZIhvcNAQEEBQADgYEAuw3q/4yVJ+p5LQFX4ZNIPs2UNB622tELFwxlVWiiqIzU
0XtJHLgLM0y8I48I6NmmxDEr+Nvw8RAZRDi07L+d9Kx13U21Wiccy721jmAKdNPF
M4e8mJgZf2wq8j2PUCnG0LDLquQ1OqoMeuS2Mt6+5Ooe0IVrWJ7bpePbXGHWnSg=
-----END CERTIFICATE-----
