Certificate:
    Data:
        Version: 3 (0x2)
        Serial Number: 95 (0x5f)
        Signature Algorithm: md5WithRSAEncryption
        Issuer: C=RU, ST=NA, L=TOGLIATTI, O=INZA-LTD-AIST, CN=server/emailAddress=pavel@kusto.com.ru
        Validity
            Not Before: Sep 26 11:47:18 2012 GMT
            Not After : Sep 24 11:47:18 2022 GMT
        Subject: C=RU, ST=NA, O=INZA-LTD-AIST, CN=p_11/emailAddress=pavel@kusto.com.ru
        Subject Public Key Info:
            Public Key Algorithm: rsaEncryption
            RSA Public Key: (1024 bit)
                Modulus (1024 bit):
                    00:bd:94:21:7e:24:a1:5a:38:b8:dd:f8:20:3b:eb:
                    9b:c2:b2:6f:bd:e0:8e:d3:50:1c:a3:66:08:59:44:
                    f1:a2:3d:70:fe:fa:c5:39:0c:92:b5:4b:23:31:bf:
                    16:42:80:43:d2:4f:f6:f2:cd:c9:65:f0:52:b9:89:
                    b5:f1:d9:ff:23:0b:24:09:80:63:9d:92:aa:ed:b7:
                    ad:da:2d:b7:7d:03:de:5a:f9:44:c0:bc:27:3c:b0:
                    05:ac:29:aa:7c:a6:91:80:3d:b3:6e:01:d0:9e:28:
                    b2:44:c6:d3:89:db:0f:26:8d:56:24:c8:6b:c4:ed:
                    94:ea:3b:11:5b:e5:66:42:bb
                Exponent: 65537 (0x10001)
        X509v3 extensions:
            X509v3 Basic Constraints: 
                CA:FALSE
            Netscape Comment: 
                OpenSSL Generated Certificate
            X509v3 Subject Key Identifier: 
                78:D0:F4:E3:A7:91:6F:62:BE:A3:1A:2C:D3:82:12:A2:1D:36:04:C2
            X509v3 Authority Key Identifier: 
                keyid:F6:7C:E6:FB:14:B7:F6:C1:5E:03:99:12:AA:ED:40:E4:44:12:76:38
                DirName:/C=RU/ST=NA/L=TOGLIATTI/O=INZA-LTD-AIST/CN=server/emailAddress=pavel@kusto.com.ru
                serial:00

    Signature Algorithm: md5WithRSAEncryption
        8e:32:dc:66:2c:7d:47:fe:4d:48:74:90:a4:1a:3d:47:5b:b1:
        e0:57:46:52:79:44:96:a3:5a:1c:64:08:69:b3:2b:05:86:f1:
        a3:5d:99:27:8d:26:32:f5:0f:fe:ef:db:1d:50:a8:23:88:17:
        ff:56:0f:2d:fe:63:cd:be:03:9f:4c:8d:93:c4:e2:c3:6e:e7:
        6a:28:d3:7b:92:fc:d9:78:d7:61:b7:9c:1f:a0:34:05:5c:71:
        5f:dd:ae:de:59:27:5c:e9:0a:b7:3f:fd:73:d8:3d:79:31:59:
        66:51:12:d7:63:49:a4:42:6c:4a:34:c5:86:6d:18:ee:ec:99:
        4d:09
-----BEGIN CERTIFICATE-----
MIIDWDCCAsGgAwIBAgIBXzANBgkqhkiG9w0BAQQFADB6MQswCQYDVQQGEwJSVTEL
MAkGA1UECBMCTkExEjAQBgNVBAcTCVRPR0xJQVRUSTEWMBQGA1UEChMNSU5aQS1M
VEQtQUlTVDEPMA0GA1UEAxMGc2VydmVyMSEwHwYJKoZIhvcNAQkBFhJwYXZlbEBr
dXN0by5jb20ucnUwHhcNMTIwOTI2MTE0NzE4WhcNMjIwOTI0MTE0NzE4WjBkMQsw
CQYDVQQGEwJSVTELMAkGA1UECBMCTkExFjAUBgNVBAoTDUlOWkEtTFRELUFJU1Qx
DTALBgNVBAMUBHBfMTExITAfBgkqhkiG9w0BCQEWEnBhdmVsQGt1c3RvLmNvbS5y
dTCBnzANBgkqhkiG9w0BAQEFAAOBjQAwgYkCgYEAvZQhfiShWji43fggO+ubwrJv
veCO01Aco2YIWUTxoj1w/vrFOQyStUsjMb8WQoBD0k/28s3JZfBSuYm18dn/Iwsk
CYBjnZKq7bet2i23fQPeWvlEwLwnPLAFrCmqfKaRgD2zbgHQniiyRMbTidsPJo1W
JMhrxO2U6jsRW+VmQrsCAwEAAaOCAQIwgf8wCQYDVR0TBAIwADAsBglghkgBhvhC
AQ0EHxYdT3BlblNTTCBHZW5lcmF0ZWQgQ2VydGlmaWNhdGUwHQYDVR0OBBYEFHjQ
9OOnkW9ivqMaLNOCEqIdNgTCMIGkBgNVHSMEgZwwgZmAFPZ85vsUt/bBXgOZEqrt
QOREEnY4oX6kfDB6MQswCQYDVQQGEwJSVTELMAkGA1UECBMCTkExEjAQBgNVBAcT
CVRPR0xJQVRUSTEWMBQGA1UEChMNSU5aQS1MVEQtQUlTVDEPMA0GA1UEAxMGc2Vy
dmVyMSEwHwYJKoZIhvcNAQkBFhJwYXZlbEBrdXN0by5jb20ucnWCAQAwDQYJKoZI
hvcNAQEEBQADgYEAjjLcZix9R/5NSHSQpBo9R1ux4FdGUnlElqNaHGQIabMrBYbx
o12ZJ40mMvUP/u/bHVCoI4gX/1YPLf5jzb4Dn0yNk8Tiw27naijTe5L82XjXYbec
H6A0BVxxX92u3lknXOkKtz/9c9g9eTFZZlES12NJpEJsSjTFhm0Y7uyZTQk=
-----END CERTIFICATE-----
