Certificate:
    Data:
        Version: 3 (0x2)
        Serial Number: 96 (0x60)
        Signature Algorithm: md5WithRSAEncryption
        Issuer: C=RU, ST=NA, L=TOGLIATTI, O=INZA-LTD-AIST, CN=server/emailAddress=pavel@kusto.com.ru
        Validity
            Not Before: Apr 16 05:37:59 2013 GMT
            Not After : Apr 14 05:37:59 2023 GMT
        Subject: C=RU, ST=NA, O=INZA-LTD-AIST, CN=pel_50let2/emailAddress=pavel@kusto.com.ru
        Subject Public Key Info:
            Public Key Algorithm: rsaEncryption
            RSA Public Key: (1024 bit)
                Modulus (1024 bit):
                    00:dd:a6:1a:5e:65:cc:6b:18:f1:d2:52:2a:1b:30:
                    bb:1e:4c:2c:db:f9:58:03:4f:d0:00:d8:2f:07:b6:
                    ba:94:04:0b:f8:b4:ad:91:e5:b5:38:9e:89:3b:81:
                    42:6f:eb:20:de:56:dc:5f:44:b8:90:b5:51:63:73:
                    45:94:4d:ca:aa:ff:5a:8a:30:20:ee:4b:a3:bf:4e:
                    d9:23:82:75:47:9f:8e:9e:d9:b1:5b:fa:47:51:97:
                    6d:f5:e3:10:7f:04:d1:6d:c5:6a:23:fe:e8:01:a8:
                    62:d5:1d:2b:f8:39:b0:ce:a5:50:e7:24:2d:74:bb:
                    c0:1b:d3:79:7e:c6:50:b2:39
                Exponent: 65537 (0x10001)
        X509v3 extensions:
            X509v3 Basic Constraints: 
                CA:FALSE
            Netscape Comment: 
                OpenSSL Generated Certificate
            X509v3 Subject Key Identifier: 
                B0:2F:78:13:FD:51:0A:F0:9E:26:08:C4:2C:7F:AB:BE:BD:AD:88:E2
            X509v3 Authority Key Identifier: 
                keyid:F6:7C:E6:FB:14:B7:F6:C1:5E:03:99:12:AA:ED:40:E4:44:12:76:38
                DirName:/C=RU/ST=NA/L=TOGLIATTI/O=INZA-LTD-AIST/CN=server/emailAddress=pavel@kusto.com.ru
                serial:00

    Signature Algorithm: md5WithRSAEncryption
        a4:e3:47:aa:1f:12:0a:57:8f:f8:ad:5f:bc:f5:34:03:12:f0:
        57:7d:99:d1:af:e4:a0:56:2a:72:34:2e:14:74:64:d4:bb:e3:
        50:2e:ea:47:2e:e1:b2:33:df:7a:0c:2b:e5:60:1d:22:cd:3a:
        4a:77:69:b6:af:fb:0b:26:de:cf:66:26:d5:3b:96:8e:a7:e7:
        bf:a2:74:07:9f:99:a1:33:ab:81:9e:11:94:08:df:95:e1:1d:
        af:e3:c3:4f:7a:ed:2c:dd:d5:51:29:fb:bb:63:0f:62:13:28:
        d5:a5:f8:83:ea:5c:3c:a1:73:25:90:47:bd:2f:34:e3:4c:e9:
        07:8f
-----BEGIN CERTIFICATE-----
MIIDXjCCAsegAwIBAgIBYDANBgkqhkiG9w0BAQQFADB6MQswCQYDVQQGEwJSVTEL
MAkGA1UECBMCTkExEjAQBgNVBAcTCVRPR0xJQVRUSTEWMBQGA1UEChMNSU5aQS1M
VEQtQUlTVDEPMA0GA1UEAxMGc2VydmVyMSEwHwYJKoZIhvcNAQkBFhJwYXZlbEBr
dXN0by5jb20ucnUwHhcNMTMwNDE2MDUzNzU5WhcNMjMwNDE0MDUzNzU5WjBqMQsw
CQYDVQQGEwJSVTELMAkGA1UECBMCTkExFjAUBgNVBAoTDUlOWkEtTFRELUFJU1Qx
EzARBgNVBAMUCnBlbF81MGxldDIxITAfBgkqhkiG9w0BCQEWEnBhdmVsQGt1c3Rv
LmNvbS5ydTCBnzANBgkqhkiG9w0BAQEFAAOBjQAwgYkCgYEA3aYaXmXMaxjx0lIq
GzC7Hkws2/lYA0/QANgvB7a6lAQL+LStkeW1OJ6JO4FCb+sg3lbcX0S4kLVRY3NF
lE3Kqv9aijAg7kujv07ZI4J1R5+OntmxW/pHUZdt9eMQfwTRbcVqI/7oAahi1R0r
+DmwzqVQ5yQtdLvAG9N5fsZQsjkCAwEAAaOCAQIwgf8wCQYDVR0TBAIwADAsBglg
hkgBhvhCAQ0EHxYdT3BlblNTTCBHZW5lcmF0ZWQgQ2VydGlmaWNhdGUwHQYDVR0O
BBYEFLAveBP9UQrwniYIxCx/q769rYjiMIGkBgNVHSMEgZwwgZmAFPZ85vsUt/bB
XgOZEqrtQOREEnY4oX6kfDB6MQswCQYDVQQGEwJSVTELMAkGA1UECBMCTkExEjAQ
BgNVBAcTCVRPR0xJQVRUSTEWMBQGA1UEChMNSU5aQS1MVEQtQUlTVDEPMA0GA1UE
AxMGc2VydmVyMSEwHwYJKoZIhvcNAQkBFhJwYXZlbEBrdXN0by5jb20ucnWCAQAw
DQYJKoZIhvcNAQEEBQADgYEApONHqh8SCleP+K1fvPU0AxLwV32Z0a/koFYqcjQu
FHRk1LvjUC7qRy7hsjPfegwr5WAdIs06Sndptq/7Cybez2Ym1TuWjqfnv6J0B5+Z
oTOrgZ4RlAjfleEdr+PDT3rtLN3VUSn7u2MPYhMo1aX4g+pcPKFzJZBHvS8040zp
B48=
-----END CERTIFICATE-----
