Certificate:
    Data:
        Version: 3 (0x2)
        Serial Number: 24 (0x18)
        Signature Algorithm: md5WithRSAEncryption
        Issuer: C=RU, ST=NA, L=TOGLIATTI, O=INZA-LTD-AIST, CN=server/emailAddress=pavel@kusto.com.ru
        Validity
            Not Before: May  6 11:47:11 2009 GMT
            Not After : May  4 11:47:11 2019 GMT
        Subject: C=RU, ST=NA, O=INZA-LTD-AIST, OU=pel1_2, CN=pel1_2/emailAddress=pavel@kusto.com.ru
        Subject Public Key Info:
            Public Key Algorithm: rsaEncryption
            RSA Public Key: (1024 bit)
                Modulus (1024 bit):
                    00:f3:60:ed:e5:ac:af:29:19:e2:e3:75:9c:04:29:
                    f7:86:00:4b:3a:f7:91:b0:85:45:11:82:b1:43:92:
                    4e:5f:30:b8:16:7b:6f:20:9c:aa:a1:ca:21:52:aa:
                    18:fb:02:9d:b0:1d:57:77:42:d4:4d:c5:f1:70:ce:
                    02:a8:e2:93:41:2c:6c:66:72:d9:d7:74:da:56:59:
                    60:29:4e:a7:f3:5d:b6:4e:a7:ba:4d:e2:84:d8:f1:
                    be:3b:af:aa:32:ea:40:cf:b2:f9:d8:ad:cc:c6:8f:
                    3b:ee:1c:40:aa:94:54:03:ac:51:84:10:70:5a:70:
                    7c:93:0c:bc:07:0c:80:38:f7
                Exponent: 65537 (0x10001)
        X509v3 extensions:
            X509v3 Basic Constraints: 
                CA:FALSE
            Netscape Comment: 
                OpenSSL Generated Certificate
            X509v3 Subject Key Identifier: 
                12:98:CF:3C:B2:C8:01:C5:F3:4C:B4:60:6A:F2:63:8F:B6:34:AB:13
            X509v3 Authority Key Identifier: 
                keyid:F6:7C:E6:FB:14:B7:F6:C1:5E:03:99:12:AA:ED:40:E4:44:12:76:38
                DirName:/C=RU/ST=NA/L=TOGLIATTI/O=INZA-LTD-AIST/CN=server/emailAddress=pavel@kusto.com.ru
                serial:00

    Signature Algorithm: md5WithRSAEncryption
        09:32:ee:7a:3e:e7:13:e2:69:4f:33:bd:5f:f5:eb:7e:38:fb:
        6c:2e:7f:02:f6:7b:03:1f:fb:68:74:f9:5d:c5:10:39:71:b6:
        c8:5c:fb:5a:ae:5f:d7:82:9f:65:41:74:fd:23:c1:45:83:06:
        c7:f2:e0:41:cd:a1:e4:0b:d1:f9:0f:ec:69:93:fb:c9:66:37:
        fd:cd:ac:7c:00:07:07:e3:bb:7e:2c:16:8e:a8:b0:ad:3c:fc:
        cf:01:86:fe:4e:08:49:62:5d:31:08:01:08:8c:f2:d4:5b:33:
        b4:2a:38:12:d4:46:2b:e6:03:41:3c:20:12:c4:d5:40:e5:7f:
        eb:05
-----BEGIN CERTIFICATE-----
MIIDazCCAtSgAwIBAgIBGDANBgkqhkiG9w0BAQQFADB6MQswCQYDVQQGEwJSVTEL
MAkGA1UECBMCTkExEjAQBgNVBAcTCVRPR0xJQVRUSTEWMBQGA1UEChMNSU5aQS1M
VEQtQUlTVDEPMA0GA1UEAxMGc2VydmVyMSEwHwYJKoZIhvcNAQkBFhJwYXZlbEBr
dXN0by5jb20ucnUwHhcNMDkwNTA2MTE0NzExWhcNMTkwNTA0MTE0NzExWjB3MQsw
CQYDVQQGEwJSVTELMAkGA1UECBMCTkExFjAUBgNVBAoTDUlOWkEtTFRELUFJU1Qx
DzANBgNVBAsUBnBlbDFfMjEPMA0GA1UEAxQGcGVsMV8yMSEwHwYJKoZIhvcNAQkB
FhJwYXZlbEBrdXN0by5jb20ucnUwgZ8wDQYJKoZIhvcNAQEBBQADgY0AMIGJAoGB
APNg7eWsrykZ4uN1nAQp94YASzr3kbCFRRGCsUOSTl8wuBZ7byCcqqHKIVKqGPsC
nbAdV3dC1E3F8XDOAqjik0EsbGZy2dd02lZZYClOp/Ndtk6nuk3ihNjxvjuvqjLq
QM+y+ditzMaPO+4cQKqUVAOsUYQQcFpwfJMMvAcMgDj3AgMBAAGjggECMIH/MAkG
A1UdEwQCMAAwLAYJYIZIAYb4QgENBB8WHU9wZW5TU0wgR2VuZXJhdGVkIENlcnRp
ZmljYXRlMB0GA1UdDgQWBBQSmM88ssgBxfNMtGBq8mOPtjSrEzCBpAYDVR0jBIGc
MIGZgBT2fOb7FLf2wV4DmRKq7UDkRBJ2OKF+pHwwejELMAkGA1UEBhMCUlUxCzAJ
BgNVBAgTAk5BMRIwEAYDVQQHEwlUT0dMSUFUVEkxFjAUBgNVBAoTDUlOWkEtTFRE
LUFJU1QxDzANBgNVBAMTBnNlcnZlcjEhMB8GCSqGSIb3DQEJARYScGF2ZWxAa3Vz
dG8uY29tLnJ1ggEAMA0GCSqGSIb3DQEBBAUAA4GBAAky7no+5xPiaU8zvV/16344
+2wufwL2ewMf+2h0+V3FEDlxtshc+1quX9eCn2VBdP0jwUWDBsfy4EHNoeQL0fkP
7GmT+8lmN/3NrHwABwfju34sFo6osK08/M8Bhv5OCEliXTEIAQiM8tRbM7QqOBLU
RivmA0E8IBLE1UDlf+sF
-----END CERTIFICATE-----
