Certificate:
    Data:
        Version: 3 (0x2)
        Serial Number: 60 (0x3c)
        Signature Algorithm: md5WithRSAEncryption
        Issuer: C=RU, ST=NA, L=TOGLIATTI, O=INZA-LTD-AIST, CN=server/emailAddress=pavel@kusto.com.ru
        Validity
            Not Before: Oct  5 13:20:15 2010 GMT
            Not After : Oct  2 13:20:15 2020 GMT
        Subject: C=RU, ST=NA, O=INZA-LTD-AIST, CN=pelican_kirova/emailAddress=pavel@kusto.com.ru
        Subject Public Key Info:
            Public Key Algorithm: rsaEncryption
            RSA Public Key: (1024 bit)
                Modulus (1024 bit):
                    00:e3:08:39:bd:0a:1c:cf:e6:fa:56:3d:41:04:b3:
                    f2:2a:46:ff:af:d9:1a:b5:ae:90:8e:58:9c:d8:07:
                    6e:35:8c:2f:42:01:45:87:ba:08:77:1d:c8:72:27:
                    ac:df:34:60:c8:e9:ea:24:1f:07:1a:8b:41:5d:88:
                    a7:70:ed:19:fd:d2:a7:61:92:a6:86:53:87:9f:8b:
                    b0:12:bd:2a:03:8b:25:69:38:d3:a8:56:fc:f8:00:
                    ed:21:c0:b9:94:de:cd:bf:ba:4d:b0:ec:f7:50:ba:
                    4f:0d:6a:53:87:15:45:89:42:dc:54:24:e4:dc:62:
                    cb:8a:e2:8a:21:be:87:78:8b
                Exponent: 65537 (0x10001)
        X509v3 extensions:
            X509v3 Basic Constraints: 
                CA:FALSE
            Netscape Comment: 
                OpenSSL Generated Certificate
            X509v3 Subject Key Identifier: 
                4D:31:66:E4:53:35:D1:4D:7D:41:F5:27:1E:07:35:B8:37:5C:82:52
            X509v3 Authority Key Identifier: 
                keyid:F6:7C:E6:FB:14:B7:F6:C1:5E:03:99:12:AA:ED:40:E4:44:12:76:38
                DirName:/C=RU/ST=NA/L=TOGLIATTI/O=INZA-LTD-AIST/CN=server/emailAddress=pavel@kusto.com.ru
                serial:00

    Signature Algorithm: md5WithRSAEncryption
        3d:38:cb:aa:4d:ea:81:d6:a5:93:04:db:0b:ed:77:0a:c0:cd:
        15:14:82:f1:09:b7:b5:bf:ad:65:7f:f6:48:c9:3e:79:0f:2b:
        bb:13:51:b0:41:f0:9b:19:bb:35:9c:23:18:de:06:88:b1:db:
        30:66:b9:ba:89:fe:d6:77:af:36:46:a1:10:f3:7c:89:da:81:
        a6:20:e0:68:20:f7:68:09:6c:ca:09:c5:fb:93:7f:37:6b:7e:
        ed:45:fb:77:65:d7:67:9e:a9:69:e4:45:da:9b:3f:f0:3b:09:
        d7:5a:90:23:b8:4f:29:6f:b7:30:52:d8:02:41:14:75:a7:1f:
        29:cc
-----BEGIN CERTIFICATE-----
MIIDYjCCAsugAwIBAgIBPDANBgkqhkiG9w0BAQQFADB6MQswCQYDVQQGEwJSVTEL
MAkGA1UECBMCTkExEjAQBgNVBAcTCVRPR0xJQVRUSTEWMBQGA1UEChMNSU5aQS1M
VEQtQUlTVDEPMA0GA1UEAxMGc2VydmVyMSEwHwYJKoZIhvcNAQkBFhJwYXZlbEBr
dXN0by5jb20ucnUwHhcNMTAxMDA1MTMyMDE1WhcNMjAxMDAyMTMyMDE1WjBuMQsw
CQYDVQQGEwJSVTELMAkGA1UECBMCTkExFjAUBgNVBAoTDUlOWkEtTFRELUFJU1Qx
FzAVBgNVBAMUDnBlbGljYW5fa2lyb3ZhMSEwHwYJKoZIhvcNAQkBFhJwYXZlbEBr
dXN0by5jb20ucnUwgZ8wDQYJKoZIhvcNAQEBBQADgY0AMIGJAoGBAOMIOb0KHM/m
+lY9QQSz8ipG/6/ZGrWukI5YnNgHbjWML0IBRYe6CHcdyHInrN80YMjp6iQfBxqL
QV2Ip3DtGf3Sp2GSpoZTh5+LsBK9KgOLJWk406hW/PgA7SHAuZTezb+6TbDs91C6
Tw1qU4cVRYlC3FQk5Nxiy4riiiG+h3iLAgMBAAGjggECMIH/MAkGA1UdEwQCMAAw
LAYJYIZIAYb4QgENBB8WHU9wZW5TU0wgR2VuZXJhdGVkIENlcnRpZmljYXRlMB0G
A1UdDgQWBBRNMWbkUzXRTX1B9SceBzW4N1yCUjCBpAYDVR0jBIGcMIGZgBT2fOb7
FLf2wV4DmRKq7UDkRBJ2OKF+pHwwejELMAkGA1UEBhMCUlUxCzAJBgNVBAgTAk5B
MRIwEAYDVQQHEwlUT0dMSUFUVEkxFjAUBgNVBAoTDUlOWkEtTFRELUFJU1QxDzAN
BgNVBAMTBnNlcnZlcjEhMB8GCSqGSIb3DQEJARYScGF2ZWxAa3VzdG8uY29tLnJ1
ggEAMA0GCSqGSIb3DQEBBAUAA4GBAD04y6pN6oHWpZME2wvtdwrAzRUUgvEJt7W/
rWV/9kjJPnkPK7sTUbBB8JsZuzWcIxjeBoix2zBmubqJ/tZ3rzZGoRDzfInagaYg
4Ggg92gJbMoJxfuTfzdrfu1F+3dl12eeqWnkRdqbP/A7CddakCO4TylvtzBS2AJB
FHWnHynM
-----END CERTIFICATE-----
