Certificate:
    Data:
        Version: 3 (0x2)
        Serial Number: 42 (0x2a)
        Signature Algorithm: md5WithRSAEncryption
        Issuer: C=RU, ST=NA, L=TOGLIATTI, O=INZA-LTD-AIST, CN=server/emailAddress=pavel@kusto.com.ru
        Validity
            Not Before: Nov  2 12:24:48 2009 GMT
            Not After : Oct 31 12:24:48 2019 GMT
        Subject: C=RU, ST=NA, O=INZA-LTD-AIST, CN=pelican10_kv/emailAddress=pavel@kusto.com.ru
        Subject Public Key Info:
            Public Key Algorithm: rsaEncryption
            RSA Public Key: (1024 bit)
                Modulus (1024 bit):
                    00:a1:3b:73:5c:d4:71:0b:99:f4:39:f4:e1:a8:0e:
                    e7:f2:ad:1e:6b:c7:9a:18:04:20:4c:38:0e:55:eb:
                    3d:ba:8f:5e:d5:5b:53:d9:19:77:da:b9:7d:cd:06:
                    0e:7a:ae:d6:c6:29:ee:77:16:4c:39:09:1b:54:34:
                    85:76:91:56:27:bc:5f:9c:29:96:92:5c:78:f8:28:
                    8b:0c:73:a0:32:ab:76:4a:6d:8e:5f:ef:54:18:cd:
                    1c:a7:8c:da:87:61:7c:22:bf:c9:df:2c:a9:1c:30:
                    6f:77:74:b5:04:06:74:35:6b:e7:a8:e9:5a:d2:bb:
                    b4:8a:b5:4d:1d:8d:e7:f2:67
                Exponent: 65537 (0x10001)
        X509v3 extensions:
            X509v3 Basic Constraints: 
                CA:FALSE
            Netscape Comment: 
                OpenSSL Generated Certificate
            X509v3 Subject Key Identifier: 
                09:6F:40:66:9E:84:1F:95:ED:EF:8B:36:1C:E2:89:75:A5:62:66:41
            X509v3 Authority Key Identifier: 
                keyid:F6:7C:E6:FB:14:B7:F6:C1:5E:03:99:12:AA:ED:40:E4:44:12:76:38
                DirName:/C=RU/ST=NA/L=TOGLIATTI/O=INZA-LTD-AIST/CN=server/emailAddress=pavel@kusto.com.ru
                serial:00

    Signature Algorithm: md5WithRSAEncryption
        b3:a1:7b:91:1e:84:a9:6a:e3:44:4c:d4:19:94:6d:ea:a9:f6:
        35:fa:d6:34:96:51:04:e7:da:94:00:dd:50:8d:67:4d:dc:a1:
        22:f7:66:84:59:69:66:30:31:ea:38:17:4a:6e:70:46:b6:be:
        8b:c1:f2:e9:49:dd:41:89:1e:aa:b0:cd:2a:72:f5:15:7b:23:
        34:dd:cd:06:52:89:12:4c:63:6d:ab:f7:4b:6a:3f:c6:a1:07:
        6e:ce:96:eb:22:12:56:b9:bf:4a:5d:3d:40:a3:c5:aa:e1:53:
        38:73:cd:79:92:15:ed:ce:a2:da:45:26:d0:88:e3:0b:5e:2a:
        b1:1d
-----BEGIN CERTIFICATE-----
MIIDYDCCAsmgAwIBAgIBKjANBgkqhkiG9w0BAQQFADB6MQswCQYDVQQGEwJSVTEL
MAkGA1UECBMCTkExEjAQBgNVBAcTCVRPR0xJQVRUSTEWMBQGA1UEChMNSU5aQS1M
VEQtQUlTVDEPMA0GA1UEAxMGc2VydmVyMSEwHwYJKoZIhvcNAQkBFhJwYXZlbEBr
dXN0by5jb20ucnUwHhcNMDkxMTAyMTIyNDQ4WhcNMTkxMDMxMTIyNDQ4WjBsMQsw
CQYDVQQGEwJSVTELMAkGA1UECBMCTkExFjAUBgNVBAoTDUlOWkEtTFRELUFJU1Qx
FTATBgNVBAMUDHBlbGljYW4xMF9rdjEhMB8GCSqGSIb3DQEJARYScGF2ZWxAa3Vz
dG8uY29tLnJ1MIGfMA0GCSqGSIb3DQEBAQUAA4GNADCBiQKBgQChO3Nc1HELmfQ5
9OGoDufyrR5rx5oYBCBMOA5V6z26j17VW1PZGXfauX3NBg56rtbGKe53Fkw5CRtU
NIV2kVYnvF+cKZaSXHj4KIsMc6Ayq3ZKbY5f71QYzRynjNqHYXwiv8nfLKkcMG93
dLUEBnQ1a+eo6VrSu7SKtU0djefyZwIDAQABo4IBAjCB/zAJBgNVHRMEAjAAMCwG
CWCGSAGG+EIBDQQfFh1PcGVuU1NMIEdlbmVyYXRlZCBDZXJ0aWZpY2F0ZTAdBgNV
HQ4EFgQUCW9AZp6EH5Xt74s2HOKJdaViZkEwgaQGA1UdIwSBnDCBmYAU9nzm+xS3
9sFeA5kSqu1A5EQSdjihfqR8MHoxCzAJBgNVBAYTAlJVMQswCQYDVQQIEwJOQTES
MBAGA1UEBxMJVE9HTElBVFRJMRYwFAYDVQQKEw1JTlpBLUxURC1BSVNUMQ8wDQYD
VQQDEwZzZXJ2ZXIxITAfBgkqhkiG9w0BCQEWEnBhdmVsQGt1c3RvLmNvbS5ydYIB
ADANBgkqhkiG9w0BAQQFAAOBgQCzoXuRHoSpauNETNQZlG3qqfY1+tY0llEE59qU
AN1QjWdN3KEi92aEWWlmMDHqOBdKbnBGtr6LwfLpSd1BiR6qsM0qcvUVeyM03c0G
UokSTGNtq/dLaj/GoQduzpbrIhJWub9KXT1Ao8Wq4VM4c815khXtzqLaRSbQiOML
XiqxHQ==
-----END CERTIFICATE-----
