Certificate:
    Data:
        Version: 3 (0x2)
        Serial Number: 5 (0x5)
    Signature Algorithm: sha1WithRSAEncryption
        Issuer: C=RU, ST=SAMARSKAYA, L=TOGLIATTY, O=NEOTREID-LTD, CN=NEOTREID-LTD CA/emailAddress=muxa@neo63.ru
        Validity
            Not Before: Aug  2 13:01:41 2015 GMT
            Not After : Jul 30 13:01:41 2025 GMT
        Subject: C=RU, ST=SAMARSKAYA, L=TOGLIATTY, O=NEOTREID-LTD, CN=p_mezhrech/emailAddress=muxa@neo63.ru
        Subject Public Key Info:
            Public Key Algorithm: rsaEncryption
                Public-Key: (1024 bit)
                Modulus:
                    00:d5:3d:dd:fe:54:82:e4:bb:12:65:32:9a:1b:07:
                    cf:8b:c2:50:7e:2f:ad:b7:2c:ad:97:8e:b8:13:53:
                    47:f1:fe:d8:7b:f3:ae:08:f4:84:98:fb:a9:60:61:
                    f4:67:8c:7c:c1:81:95:37:2b:72:80:04:de:5b:3f:
                    f7:2b:8b:8d:fb:4d:b3:92:3b:14:b4:4f:7b:bb:83:
                    56:fa:cb:4a:f8:24:41:4f:b4:2a:91:bf:9c:4c:42:
                    e2:ac:71:d1:1c:69:87:53:36:14:8a:4e:f9:95:3f:
                    63:7f:10:2b:4b:38:de:80:c5:ab:f2:a7:76:be:bf:
                    94:d4:d9:ff:0a:01:16:27:07
                Exponent: 65537 (0x10001)
        X509v3 extensions:
            X509v3 Basic Constraints: 
                CA:FALSE
            Netscape Comment: 
                Easy-RSA Generated Certificate
            X509v3 Subject Key Identifier: 
                4B:6D:84:51:F2:CA:DD:8E:37:48:CC:1B:5F:3C:E0:1A:82:7A:2E:93
            X509v3 Authority Key Identifier: 
                keyid:F8:AD:6B:CF:05:6A:F5:01:B7:8A:6F:A2:91:D0:F3:C3:E3:2B:62:F3
                DirName:/C=RU/ST=SAMARSKAYA/L=TOGLIATTY/O=NEOTREID-LTD/CN=NEOTREID-LTD CA/emailAddress=muxa@neo63.ru
                serial:A3:2E:2A:A8:AE:52:1B:B7

            X509v3 Extended Key Usage: 
                TLS Web Client Authentication
            X509v3 Key Usage: 
                Digital Signature
    Signature Algorithm: sha1WithRSAEncryption
         1b:07:c4:cd:ff:35:a1:c2:8c:f2:07:5d:c2:e4:b6:e4:79:6c:
         fa:61:34:62:f9:6b:81:cc:b7:cd:3b:ee:f2:14:62:21:71:35:
         fb:f9:38:c3:ef:72:84:88:e4:df:06:3c:48:3a:d2:51:46:57:
         c8:53:e7:50:45:4d:08:11:f5:c4:73:73:7a:50:1b:25:71:22:
         44:71:80:20:a6:93:9b:85:8b:bd:67:29:20:b6:66:96:73:57:
         f6:70:0a:46:59:3b:30:fe:b9:43:5b:1a:46:a0:4c:57:9e:e6:
         ca:a4:59:9e:f3:94:f2:d8:97:61:bd:82:50:64:5a:1f:ea:ab:
         0b:07
-----BEGIN CERTIFICATE-----
MIIDuzCCAySgAwIBAgIBBTANBgkqhkiG9w0BAQUFADCBhTELMAkGA1UEBhMCUlUx
EzARBgNVBAgTClNBTUFSU0tBWUExEjAQBgNVBAcTCVRPR0xJQVRUWTEVMBMGA1UE
ChMMTkVPVFJFSUQtTFREMRgwFgYDVQQDEw9ORU9UUkVJRC1MVEQgQ0ExHDAaBgkq
hkiG9w0BCQEWDW11eGFAbmVvNjMucnUwHhcNMTUwODAyMTMwMTQxWhcNMjUwNzMw
MTMwMTQxWjCBgDELMAkGA1UEBhMCUlUxEzARBgNVBAgTClNBTUFSU0tBWUExEjAQ
BgNVBAcTCVRPR0xJQVRUWTEVMBMGA1UEChMMTkVPVFJFSUQtTFREMRMwEQYDVQQD
FApwX21lemhyZWNoMRwwGgYJKoZIhvcNAQkBFg1tdXhhQG5lbzYzLnJ1MIGfMA0G
CSqGSIb3DQEBAQUAA4GNADCBiQKBgQDVPd3+VILkuxJlMpobB8+LwlB+L623LK2X
jrgTU0fx/th7864I9ISY+6lgYfRnjHzBgZU3K3KABN5bP/cri437TbOSOxS0T3u7
g1b6y0r4JEFPtCqRv5xMQuKscdEcaYdTNhSKTvmVP2N/ECtLON6Axavyp3a+v5TU
2f8KARYnBwIDAQABo4IBPDCCATgwCQYDVR0TBAIwADAtBglghkgBhvhCAQ0EIBYe
RWFzeS1SU0EgR2VuZXJhdGVkIENlcnRpZmljYXRlMB0GA1UdDgQWBBRLbYRR8srd
jjdIzBtfPOAagnoukzCBugYDVR0jBIGyMIGvgBT4rWvPBWr1AbeKb6KR0PPD4yti
86GBi6SBiDCBhTELMAkGA1UEBhMCUlUxEzARBgNVBAgTClNBTUFSU0tBWUExEjAQ
BgNVBAcTCVRPR0xJQVRUWTEVMBMGA1UEChMMTkVPVFJFSUQtTFREMRgwFgYDVQQD
Ew9ORU9UUkVJRC1MVEQgQ0ExHDAaBgkqhkiG9w0BCQEWDW11eGFAbmVvNjMucnWC
CQCjLiqorlIbtzATBgNVHSUEDDAKBggrBgEFBQcDAjALBgNVHQ8EBAMCB4AwDQYJ
KoZIhvcNAQEFBQADgYEAGwfEzf81ocKM8gddwuS25Hls+mE0Yvlrgcy3zTvu8hRi
IXE1+/k4w+9yhIjk3wY8SDrSUUZXyFPnUEVNCBH1xHNzelAbJXEiRHGAIKaTm4WL
vWcpILZmlnNX9nAKRlk7MP65Q1saRqBMV57myqRZnvOU8tiXYb2CUGRaH+qrCwc=
-----END CERTIFICATE-----
