Certificate:
    Data:
        Version: 3 (0x2)
        Serial Number: 13 (0xd)
    Signature Algorithm: sha1WithRSAEncryption
        Issuer: C=RU, ST=SAMARSKAYA, L=TOGLIATTY, O=NEOTREID-LTD, CN=NEOTREID-LTD CA/emailAddress=muxa@neo63.ru
        Validity
            Not Before: Oct 19 10:41:06 2015 GMT
            Not After : Oct 16 10:41:06 2025 GMT
        Subject: C=RU, ST=SAMARSKAYA, L=TOGLIATTY, O=NEOTREID-LTD, CN=p_timofeevka2/emailAddress=muxa@neo63.ru
        Subject Public Key Info:
            Public Key Algorithm: rsaEncryption
                Public-Key: (1024 bit)
                Modulus:
                    00:e5:f3:ef:ba:1c:40:88:f6:b4:d4:03:50:6c:8e:
                    96:e3:ed:cb:cf:3d:4e:95:d7:bd:04:c3:31:90:e4:
                    b2:06:12:49:b5:bc:97:6e:11:43:f5:cd:a3:e8:4f:
                    c4:72:a9:5b:eb:6b:f7:b5:d7:bf:48:8c:81:69:ec:
                    71:1c:58:6c:f7:f0:29:2b:f7:50:27:82:4c:dd:0f:
                    29:73:1e:4c:61:1d:05:bb:7a:1f:f3:1b:67:d8:47:
                    9d:54:32:68:a2:56:dd:db:62:90:ff:80:cb:09:4b:
                    56:77:d3:58:4a:ce:2e:a0:2d:4d:d7:d9:0a:09:17:
                    d2:21:4e:a5:95:3a:6d:4c:fd
                Exponent: 65537 (0x10001)
        X509v3 extensions:
            X509v3 Basic Constraints: 
                CA:FALSE
            Netscape Comment: 
                Easy-RSA Generated Certificate
            X509v3 Subject Key Identifier: 
                73:E5:0B:03:C7:36:61:20:BE:17:DA:84:A6:55:F7:AA:97:F3:0C:92
            X509v3 Authority Key Identifier: 
                keyid:F8:AD:6B:CF:05:6A:F5:01:B7:8A:6F:A2:91:D0:F3:C3:E3:2B:62:F3
                DirName:/C=RU/ST=SAMARSKAYA/L=TOGLIATTY/O=NEOTREID-LTD/CN=NEOTREID-LTD CA/emailAddress=muxa@neo63.ru
                serial:A3:2E:2A:A8:AE:52:1B:B7

            X509v3 Extended Key Usage: 
                TLS Web Client Authentication
            X509v3 Key Usage: 
                Digital Signature
    Signature Algorithm: sha1WithRSAEncryption
         46:3e:bb:81:50:28:85:92:24:43:2a:7b:72:44:ac:df:74:1b:
         64:c4:25:56:12:3f:12:d8:1a:3d:1c:da:48:6f:57:7d:44:f4:
         71:93:e4:ea:16:25:90:cf:b0:96:90:cb:dd:57:1e:62:df:2e:
         94:42:d0:dd:b5:26:b9:46:91:16:cd:99:ba:45:5d:78:ef:42:
         e6:f3:3d:2c:e2:4e:f3:55:d2:9c:4f:98:86:b0:3b:b6:c5:8c:
         af:4f:21:53:c1:79:06:c8:0f:0d:20:08:18:4b:c1:bc:58:4b:
         b5:d1:5e:b2:0e:c3:d9:63:8b:86:f5:c8:23:70:88:4e:8f:ed:
         cd:2d
-----BEGIN CERTIFICATE-----
MIIDvjCCAyegAwIBAgIBDTANBgkqhkiG9w0BAQUFADCBhTELMAkGA1UEBhMCUlUx
EzARBgNVBAgTClNBTUFSU0tBWUExEjAQBgNVBAcTCVRPR0xJQVRUWTEVMBMGA1UE
ChMMTkVPVFJFSUQtTFREMRgwFgYDVQQDEw9ORU9UUkVJRC1MVEQgQ0ExHDAaBgkq
hkiG9w0BCQEWDW11eGFAbmVvNjMucnUwHhcNMTUxMDE5MTA0MTA2WhcNMjUxMDE2
MTA0MTA2WjCBgzELMAkGA1UEBhMCUlUxEzARBgNVBAgTClNBTUFSU0tBWUExEjAQ
BgNVBAcTCVRPR0xJQVRUWTEVMBMGA1UEChMMTkVPVFJFSUQtTFREMRYwFAYDVQQD
FA1wX3RpbW9mZWV2a2EyMRwwGgYJKoZIhvcNAQkBFg1tdXhhQG5lbzYzLnJ1MIGf
MA0GCSqGSIb3DQEBAQUAA4GNADCBiQKBgQDl8++6HECI9rTUA1Bsjpbj7cvPPU6V
170EwzGQ5LIGEkm1vJduEUP1zaPoT8RyqVvra/e1179IjIFp7HEcWGz38Ckr91An
gkzdDylzHkxhHQW7eh/zG2fYR51UMmiiVt3bYpD/gMsJS1Z301hKzi6gLU3X2QoJ
F9IhTqWVOm1M/QIDAQABo4IBPDCCATgwCQYDVR0TBAIwADAtBglghkgBhvhCAQ0E
IBYeRWFzeS1SU0EgR2VuZXJhdGVkIENlcnRpZmljYXRlMB0GA1UdDgQWBBRz5QsD
xzZhIL4X2oSmVfeql/MMkjCBugYDVR0jBIGyMIGvgBT4rWvPBWr1AbeKb6KR0PPD
4yti86GBi6SBiDCBhTELMAkGA1UEBhMCUlUxEzARBgNVBAgTClNBTUFSU0tBWUEx
EjAQBgNVBAcTCVRPR0xJQVRUWTEVMBMGA1UEChMMTkVPVFJFSUQtTFREMRgwFgYD
VQQDEw9ORU9UUkVJRC1MVEQgQ0ExHDAaBgkqhkiG9w0BCQEWDW11eGFAbmVvNjMu
cnWCCQCjLiqorlIbtzATBgNVHSUEDDAKBggrBgEFBQcDAjALBgNVHQ8EBAMCB4Aw
DQYJKoZIhvcNAQEFBQADgYEARj67gVAohZIkQyp7ckSs33QbZMQlVhI/EtgaPRza
SG9XfUT0cZPk6hYlkM+wlpDL3VceYt8ulELQ3bUmuUaRFs2ZukVdeO9C5vM9LOJO
81XSnE+YhrA7tsWMr08hU8F5BsgPDSAIGEvBvFhLtdFesg7D2WOLhvXII3CITo/t
zS0=
-----END CERTIFICATE-----
