Certificate:
    Data:
        Version: 3 (0x2)
        Serial Number: 16 (0x10)
    Signature Algorithm: sha1WithRSAEncryption
        Issuer: C=RU, ST=SAMARSKAYA, L=TOGLIATTY, O=NEOTREID-LTD, CN=NEOTREID-LTD CA/emailAddress=muxa@neo63.ru
        Validity
            Not Before: Dec  4 07:37:12 2015 GMT
            Not After : Dec  1 07:37:12 2025 GMT
        Subject: C=RU, ST=SAMARSKAYA, L=TOGLIATTY, O=NEOTREID-LTD, CN=primorsky/emailAddress=muxa@neo63.ru
        Subject Public Key Info:
            Public Key Algorithm: rsaEncryption
                Public-Key: (1024 bit)
                Modulus:
                    00:b8:c7:12:ca:b2:45:17:5a:58:3f:6d:92:fa:51:
                    0b:67:18:9f:c8:c0:91:ad:ca:39:d7:fb:8d:25:91:
                    25:9f:48:7c:fa:84:69:dd:16:9e:90:59:da:79:f6:
                    ae:89:da:25:0b:82:5d:3d:ae:91:1d:5d:17:32:ef:
                    73:45:4b:41:dd:93:26:86:5b:13:9c:c3:36:69:df:
                    cc:68:c6:14:5e:42:6a:a0:d0:8e:fc:8c:1b:b1:53:
                    89:8c:16:d4:f8:7c:7e:71:f0:e3:49:14:38:ae:5d:
                    13:62:5b:9e:57:86:3c:da:10:39:63:d0:fd:88:47:
                    93:f9:3f:ce:84:3e:0a:44:4b
                Exponent: 65537 (0x10001)
        X509v3 extensions:
            X509v3 Basic Constraints: 
                CA:FALSE
            Netscape Comment: 
                Easy-RSA Generated Certificate
            X509v3 Subject Key Identifier: 
                DE:AD:9F:F2:FA:1E:E1:C2:DE:B6:6F:86:D4:5A:3A:ED:76:1A:18:8F
            X509v3 Authority Key Identifier: 
                keyid:F8:AD:6B:CF:05:6A:F5:01:B7:8A:6F:A2:91:D0:F3:C3:E3:2B:62:F3
                DirName:/C=RU/ST=SAMARSKAYA/L=TOGLIATTY/O=NEOTREID-LTD/CN=NEOTREID-LTD CA/emailAddress=muxa@neo63.ru
                serial:A3:2E:2A:A8:AE:52:1B:B7

            X509v3 Extended Key Usage: 
                TLS Web Client Authentication
            X509v3 Key Usage: 
                Digital Signature
    Signature Algorithm: sha1WithRSAEncryption
         8f:5d:53:67:1e:2f:c6:d0:ee:a3:84:cf:a0:c5:d5:d7:1b:6e:
         30:48:c6:1c:0e:cc:65:35:a6:fd:17:40:fe:84:39:f5:00:a5:
         1d:aa:41:3b:f7:c2:7c:7f:60:cf:b5:2c:8f:7e:e1:d3:87:45:
         81:e8:04:00:fa:7c:0c:11:25:8e:04:67:59:bd:60:c6:45:7c:
         c2:58:c4:3f:6b:c1:68:03:70:eb:7f:0e:9e:d5:91:fd:6b:2e:
         3c:1a:ed:e5:3a:b4:0c:22:84:aa:47:60:4b:4c:0e:c4:21:0f:
         5e:3b:e8:c8:e2:75:d2:16:b9:b5:fe:8f:15:aa:03:07:49:82:
         60:22
-----BEGIN CERTIFICATE-----
MIIDuTCCAyKgAwIBAgIBEDANBgkqhkiG9w0BAQUFADCBhTELMAkGA1UEBhMCUlUx
EzARBgNVBAgTClNBTUFSU0tBWUExEjAQBgNVBAcTCVRPR0xJQVRUWTEVMBMGA1UE
ChMMTkVPVFJFSUQtTFREMRgwFgYDVQQDEw9ORU9UUkVJRC1MVEQgQ0ExHDAaBgkq
hkiG9w0BCQEWDW11eGFAbmVvNjMucnUwHhcNMTUxMjA0MDczNzEyWhcNMjUxMjAx
MDczNzEyWjB/MQswCQYDVQQGEwJSVTETMBEGA1UECBMKU0FNQVJTS0FZQTESMBAG
A1UEBxMJVE9HTElBVFRZMRUwEwYDVQQKEwxORU9UUkVJRC1MVEQxEjAQBgNVBAMT
CXByaW1vcnNreTEcMBoGCSqGSIb3DQEJARYNbXV4YUBuZW82My5ydTCBnzANBgkq
hkiG9w0BAQEFAAOBjQAwgYkCgYEAuMcSyrJFF1pYP22S+lELZxifyMCRrco51/uN
JZEln0h8+oRp3RaekFnaefauidolC4JdPa6RHV0XMu9zRUtB3ZMmhlsTnMM2ad/M
aMYUXkJqoNCO/IwbsVOJjBbU+Hx+cfDjSRQ4rl0TYlueV4Y82hA5Y9D9iEeT+T/O
hD4KREsCAwEAAaOCATwwggE4MAkGA1UdEwQCMAAwLQYJYIZIAYb4QgENBCAWHkVh
c3ktUlNBIEdlbmVyYXRlZCBDZXJ0aWZpY2F0ZTAdBgNVHQ4EFgQU3q2f8voe4cLe
tm+G1Fo67XYaGI8wgboGA1UdIwSBsjCBr4AU+K1rzwVq9QG3im+ikdDzw+MrYvOh
gYukgYgwgYUxCzAJBgNVBAYTAlJVMRMwEQYDVQQIEwpTQU1BUlNLQVlBMRIwEAYD
VQQHEwlUT0dMSUFUVFkxFTATBgNVBAoTDE5FT1RSRUlELUxURDEYMBYGA1UEAxMP
TkVPVFJFSUQtTFREIENBMRwwGgYJKoZIhvcNAQkBFg1tdXhhQG5lbzYzLnJ1ggkA
oy4qqK5SG7cwEwYDVR0lBAwwCgYIKwYBBQUHAwIwCwYDVR0PBAQDAgeAMA0GCSqG
SIb3DQEBBQUAA4GBAI9dU2ceL8bQ7qOEz6DF1dcbbjBIxhwOzGU1pv0XQP6EOfUA
pR2qQTv3wnx/YM+1LI9+4dOHRYHoBAD6fAwRJY4EZ1m9YMZFfMJYxD9rwWgDcOt/
Dp7Vkf1rLjwa7eU6tAwihKpHYEtMDsQhD1476MjiddIWubX+jxWqAwdJgmAi
-----END CERTIFICATE-----
