Certificate:
    Data:
        Version: 3 (0x2)
        Serial Number: 21 (0x15)
    Signature Algorithm: sha1WithRSAEncryption
        Issuer: C=RU, ST=SAMARSKAYA, L=TOGLIATTY, O=NEOTREID-LTD, CN=NEOTREID-LTD CA/emailAddress=muxa@neo63.ru
        Validity
            Not Before: May 13 10:21:14 2016 GMT
            Not After : May 11 10:21:14 2026 GMT
        Subject: C=RU, ST=SAMARSKAYA, L=TOGLIATTY, O=NEOTREID-LTD, CN=golubev/emailAddress=muxa@neo63.ru
        Subject Public Key Info:
            Public Key Algorithm: rsaEncryption
                Public-Key: (1024 bit)
                Modulus:
                    00:ca:4c:a7:3d:03:0b:11:28:5c:50:15:ad:1f:9a:
                    f1:44:50:43:f4:92:73:47:71:17:0e:73:76:c5:c5:
                    99:6a:20:5a:2a:62:a9:3e:8e:81:ad:42:70:d1:72:
                    42:3f:ac:0c:d6:24:5c:b0:a6:ac:62:43:a3:7c:1b:
                    97:c8:4b:1c:81:8e:40:d6:b0:9e:03:c9:74:53:61:
                    6f:b5:62:64:9b:b1:a2:10:0c:8f:11:5e:30:cb:c5:
                    1a:96:83:6e:99:78:e8:0e:70:ad:77:e7:44:01:78:
                    44:fb:20:74:78:d6:2c:70:90:75:45:dd:3f:f8:a0:
                    99:dc:7d:0c:13:7a:97:44:bb
                Exponent: 65537 (0x10001)
        X509v3 extensions:
            X509v3 Basic Constraints: 
                CA:FALSE
            Netscape Comment: 
                Easy-RSA Generated Certificate
            X509v3 Subject Key Identifier: 
                62:C0:64:51:1B:A3:CE:DE:93:FD:CF:5E:45:BD:94:E7:91:9B:19:9E
            X509v3 Authority Key Identifier: 
                keyid:F8:AD:6B:CF:05:6A:F5:01:B7:8A:6F:A2:91:D0:F3:C3:E3:2B:62:F3
                DirName:/C=RU/ST=SAMARSKAYA/L=TOGLIATTY/O=NEOTREID-LTD/CN=NEOTREID-LTD CA/emailAddress=muxa@neo63.ru
                serial:A3:2E:2A:A8:AE:52:1B:B7

            X509v3 Extended Key Usage: 
                TLS Web Client Authentication
            X509v3 Key Usage: 
                Digital Signature
    Signature Algorithm: sha1WithRSAEncryption
         4f:58:76:e2:4b:20:71:c1:26:4e:23:72:bd:5b:d5:1d:9a:97:
         0d:64:86:5a:0d:d0:9e:01:d6:07:ce:5b:43:b1:0e:0d:9f:7a:
         78:a8:81:f5:0f:19:5f:52:c3:0c:7f:e5:d6:d1:e8:36:2d:13:
         3a:f6:c9:42:e4:ed:6b:5b:7d:e1:3a:f8:63:81:a3:03:df:1e:
         32:72:4a:cb:bb:60:cc:82:bf:9e:c4:fa:25:54:05:0d:7a:bd:
         07:a5:ab:33:9a:74:89:58:66:f4:d5:1d:76:25:3a:b9:26:ec:
         dc:2b:53:76:f4:40:33:17:59:8b:3a:ef:03:9b:27:d0:44:cb:
         a3:70
-----BEGIN CERTIFICATE-----
MIIDtzCCAyCgAwIBAgIBFTANBgkqhkiG9w0BAQUFADCBhTELMAkGA1UEBhMCUlUx
EzARBgNVBAgTClNBTUFSU0tBWUExEjAQBgNVBAcTCVRPR0xJQVRUWTEVMBMGA1UE
ChMMTkVPVFJFSUQtTFREMRgwFgYDVQQDEw9ORU9UUkVJRC1MVEQgQ0ExHDAaBgkq
hkiG9w0BCQEWDW11eGFAbmVvNjMucnUwHhcNMTYwNTEzMTAyMTE0WhcNMjYwNTEx
MTAyMTE0WjB9MQswCQYDVQQGEwJSVTETMBEGA1UECBMKU0FNQVJTS0FZQTESMBAG
A1UEBxMJVE9HTElBVFRZMRUwEwYDVQQKEwxORU9UUkVJRC1MVEQxEDAOBgNVBAMT
B2dvbHViZXYxHDAaBgkqhkiG9w0BCQEWDW11eGFAbmVvNjMucnUwgZ8wDQYJKoZI
hvcNAQEBBQADgY0AMIGJAoGBAMpMpz0DCxEoXFAVrR+a8URQQ/SSc0dxFw5zdsXF
mWogWipiqT6Oga1CcNFyQj+sDNYkXLCmrGJDo3wbl8hLHIGOQNawngPJdFNhb7Vi
ZJuxohAMjxFeMMvFGpaDbpl46A5wrXfnRAF4RPsgdHjWLHCQdUXdP/igmdx9DBN6
l0S7AgMBAAGjggE8MIIBODAJBgNVHRMEAjAAMC0GCWCGSAGG+EIBDQQgFh5FYXN5
LVJTQSBHZW5lcmF0ZWQgQ2VydGlmaWNhdGUwHQYDVR0OBBYEFGLAZFEbo87ek/3P
XkW9lOeRmxmeMIG6BgNVHSMEgbIwga+AFPita88FavUBt4pvopHQ88PjK2LzoYGL
pIGIMIGFMQswCQYDVQQGEwJSVTETMBEGA1UECBMKU0FNQVJTS0FZQTESMBAGA1UE
BxMJVE9HTElBVFRZMRUwEwYDVQQKEwxORU9UUkVJRC1MVEQxGDAWBgNVBAMTD05F
T1RSRUlELUxURCBDQTEcMBoGCSqGSIb3DQEJARYNbXV4YUBuZW82My5ydYIJAKMu
KqiuUhu3MBMGA1UdJQQMMAoGCCsGAQUFBwMCMAsGA1UdDwQEAwIHgDANBgkqhkiG
9w0BAQUFAAOBgQBPWHbiSyBxwSZOI3K9W9UdmpcNZIZaDdCeAdYHzltDsQ4Nn3p4
qIH1DxlfUsMMf+XW0eg2LRM69slC5O1rW33hOvhjgaMD3x4yckrLu2DMgr+exPol
VAUNer0HpaszmnSJWGb01R12JTq5JuzcK1N29EAzF1mLOu8DmyfQRMujcA==
-----END CERTIFICATE-----
