Certificate:
    Data:
        Version: 3 (0x2)
        Serial Number: 23 (0x17)
    Signature Algorithm: sha1WithRSAEncryption
        Issuer: C=RU, ST=SAMARSKAYA, L=TOGLIATTY, O=NEOTREID-LTD, CN=NEOTREID-LTD CA/emailAddress=muxa@neo63.ru
        Validity
            Not Before: Jun 24 07:47:46 2016 GMT
            Not After : Jun 22 07:47:46 2026 GMT
        Subject: C=RU, ST=SAMARSKAYA, L=TOGLIATTY, O=NEOTREID-LTD, CN=atayan/emailAddress=muxa@neo63.ru
        Subject Public Key Info:
            Public Key Algorithm: rsaEncryption
                Public-Key: (1024 bit)
                Modulus:
                    00:f2:88:aa:a6:50:a2:45:28:ac:cb:93:d7:7f:d5:
                    6b:38:79:e2:b3:07:bc:40:f5:9c:c8:95:38:21:6c:
                    41:ab:e6:95:8c:15:29:d6:0c:93:db:c8:e9:42:38:
                    2a:33:c6:72:c3:a7:d7:a0:ad:e6:13:83:2b:c9:f0:
                    e1:e3:98:46:c4:9b:b7:67:62:e2:bd:0f:ae:4e:0e:
                    97:6c:29:65:a7:0e:36:86:6c:ee:1b:fd:56:3f:4b:
                    59:56:18:88:e8:87:f0:15:1e:28:c7:44:6f:3b:1d:
                    2e:82:e9:e4:14:10:27:1b:ef:a9:d8:f0:1a:ff:18:
                    4e:16:ef:3a:42:9f:91:91:af
                Exponent: 65537 (0x10001)
        X509v3 extensions:
            X509v3 Basic Constraints: 
                CA:FALSE
            Netscape Comment: 
                Easy-RSA Generated Certificate
            X509v3 Subject Key Identifier: 
                83:10:ED:DB:51:8F:0A:41:BA:39:0B:A5:99:4A:BB:4A:3B:66:2E:9E
            X509v3 Authority Key Identifier: 
                keyid:F8:AD:6B:CF:05:6A:F5:01:B7:8A:6F:A2:91:D0:F3:C3:E3:2B:62:F3
                DirName:/C=RU/ST=SAMARSKAYA/L=TOGLIATTY/O=NEOTREID-LTD/CN=NEOTREID-LTD CA/emailAddress=muxa@neo63.ru
                serial:A3:2E:2A:A8:AE:52:1B:B7

            X509v3 Extended Key Usage: 
                TLS Web Client Authentication
            X509v3 Key Usage: 
                Digital Signature
    Signature Algorithm: sha1WithRSAEncryption
         4d:5a:ea:cd:0e:e2:51:48:0f:e4:99:0c:e1:46:bc:6e:8e:96:
         f3:4c:f2:b7:71:0e:1c:af:2c:a5:30:e7:67:0a:0d:6b:dc:07:
         e0:ff:95:d5:75:1a:25:0f:06:00:e8:3e:e9:e7:48:01:b6:3d:
         30:36:ae:3b:8a:b8:bc:b5:99:e2:29:44:f7:59:4c:bf:7e:79:
         e2:bd:f9:81:5f:28:13:b9:b4:c0:e1:3c:9e:a8:99:b7:38:85:
         a7:a3:3b:23:e0:7f:70:07:59:96:d9:dd:b3:f7:fe:28:3e:ae:
         b7:3d:ef:d8:2c:7a:0f:7b:ed:6c:89:b2:10:79:f0:44:24:d5:
         6e:31
-----BEGIN CERTIFICATE-----
MIIDtjCCAx+gAwIBAgIBFzANBgkqhkiG9w0BAQUFADCBhTELMAkGA1UEBhMCUlUx
EzARBgNVBAgTClNBTUFSU0tBWUExEjAQBgNVBAcTCVRPR0xJQVRUWTEVMBMGA1UE
ChMMTkVPVFJFSUQtTFREMRgwFgYDVQQDEw9ORU9UUkVJRC1MVEQgQ0ExHDAaBgkq
hkiG9w0BCQEWDW11eGFAbmVvNjMucnUwHhcNMTYwNjI0MDc0NzQ2WhcNMjYwNjIy
MDc0NzQ2WjB8MQswCQYDVQQGEwJSVTETMBEGA1UECBMKU0FNQVJTS0FZQTESMBAG
A1UEBxMJVE9HTElBVFRZMRUwEwYDVQQKEwxORU9UUkVJRC1MVEQxDzANBgNVBAMT
BmF0YXlhbjEcMBoGCSqGSIb3DQEJARYNbXV4YUBuZW82My5ydTCBnzANBgkqhkiG
9w0BAQEFAAOBjQAwgYkCgYEA8oiqplCiRSisy5PXf9VrOHniswe8QPWcyJU4IWxB
q+aVjBUp1gyT28jpQjgqM8Zyw6fXoK3mE4MryfDh45hGxJu3Z2LivQ+uTg6XbCll
pw42hmzuG/1WP0tZVhiI6IfwFR4ox0RvOx0ugunkFBAnG++p2PAa/xhOFu86Qp+R
ka8CAwEAAaOCATwwggE4MAkGA1UdEwQCMAAwLQYJYIZIAYb4QgENBCAWHkVhc3kt
UlNBIEdlbmVyYXRlZCBDZXJ0aWZpY2F0ZTAdBgNVHQ4EFgQUgxDt21GPCkG6OQul
mUq7SjtmLp4wgboGA1UdIwSBsjCBr4AU+K1rzwVq9QG3im+ikdDzw+MrYvOhgYuk
gYgwgYUxCzAJBgNVBAYTAlJVMRMwEQYDVQQIEwpTQU1BUlNLQVlBMRIwEAYDVQQH
EwlUT0dMSUFUVFkxFTATBgNVBAoTDE5FT1RSRUlELUxURDEYMBYGA1UEAxMPTkVP
VFJFSUQtTFREIENBMRwwGgYJKoZIhvcNAQkBFg1tdXhhQG5lbzYzLnJ1ggkAoy4q
qK5SG7cwEwYDVR0lBAwwCgYIKwYBBQUHAwIwCwYDVR0PBAQDAgeAMA0GCSqGSIb3
DQEBBQUAA4GBAE1a6s0O4lFID+SZDOFGvG6OlvNM8rdxDhyvLKUw52cKDWvcB+D/
ldV1GiUPBgDoPunnSAG2PTA2rjuKuLy1meIpRPdZTL9+eeK9+YFfKBO5tMDhPJ6o
mbc4haejOyPgf3AHWZbZ3bP3/ig+rrc979gseg977WyJshB58EQk1W4x
-----END CERTIFICATE-----
