Certificate:
    Data:
        Version: 3 (0x2)
        Serial Number: 25 (0x19)
    Signature Algorithm: sha1WithRSAEncryption
        Issuer: C=RU, ST=SAMARSKAYA, L=TOGLIATTY, O=NEOTREID-LTD, CN=NEOTREID-LTD CA/emailAddress=muxa@neo63.ru
        Validity
            Not Before: Jul  4 12:15:05 2016 GMT
            Not After : Jul  2 12:15:05 2026 GMT
        Subject: C=RU, ST=SAMARSKAYA, L=TOGLIATTY, O=NEOTREID-LTD, CN=vasilyevka/emailAddress=muxa@neo63.ru
        Subject Public Key Info:
            Public Key Algorithm: rsaEncryption
                Public-Key: (1024 bit)
                Modulus:
                    00:b7:30:bc:b1:45:47:dd:4c:fa:97:76:8b:fe:27:
                    42:e8:9e:d0:09:c1:23:aa:9a:c4:99:b5:16:86:1a:
                    6e:20:48:95:10:91:71:01:93:1a:1c:91:1c:8f:8f:
                    d3:14:d0:50:49:4f:2a:56:d2:3c:2e:bf:32:b9:8f:
                    2b:82:a7:65:80:db:89:c6:9f:32:d1:1d:7a:47:22:
                    c0:d6:a9:44:e2:99:7b:35:3a:dc:5e:5e:92:d1:7c:
                    bb:8f:1d:17:d7:3c:ab:13:e5:86:10:4c:7f:48:01:
                    4b:66:48:dc:6b:1b:c2:aa:11:7c:c6:a7:f1:2b:54:
                    e8:36:a7:c5:04:ee:8a:46:cf
                Exponent: 65537 (0x10001)
        X509v3 extensions:
            X509v3 Basic Constraints: 
                CA:FALSE
            Netscape Comment: 
                Easy-RSA Generated Certificate
            X509v3 Subject Key Identifier: 
                34:0B:4A:93:E1:BE:D0:B5:15:2F:22:CB:2F:12:13:DC:0B:21:9B:3A
            X509v3 Authority Key Identifier: 
                keyid:F8:AD:6B:CF:05:6A:F5:01:B7:8A:6F:A2:91:D0:F3:C3:E3:2B:62:F3
                DirName:/C=RU/ST=SAMARSKAYA/L=TOGLIATTY/O=NEOTREID-LTD/CN=NEOTREID-LTD CA/emailAddress=muxa@neo63.ru
                serial:A3:2E:2A:A8:AE:52:1B:B7

            X509v3 Extended Key Usage: 
                TLS Web Client Authentication
            X509v3 Key Usage: 
                Digital Signature
    Signature Algorithm: sha1WithRSAEncryption
         3d:95:d1:a8:bc:75:58:80:41:ee:64:b9:ca:75:4a:6c:f0:ef:
         af:3a:8d:d1:9e:19:9a:3a:99:d3:cb:24:bc:0e:5e:e4:2a:c6:
         74:41:55:28:ba:70:64:a8:1b:02:38:69:6e:c8:39:68:90:9a:
         85:64:e5:ba:6d:47:fc:1b:84:a5:24:ec:49:05:40:42:91:16:
         ea:65:5b:7a:95:18:05:1f:e0:0a:6a:41:6f:4e:bd:66:19:ad:
         98:1d:b4:58:99:c4:2c:7e:69:f3:c9:7f:8b:c6:30:72:cc:98:
         39:df:b1:45:d5:a9:e9:31:35:15:25:5d:94:3c:43:e5:ed:27:
         8b:1f
-----BEGIN CERTIFICATE-----
MIIDuzCCAySgAwIBAgIBGTANBgkqhkiG9w0BAQUFADCBhTELMAkGA1UEBhMCUlUx
EzARBgNVBAgTClNBTUFSU0tBWUExEjAQBgNVBAcTCVRPR0xJQVRUWTEVMBMGA1UE
ChMMTkVPVFJFSUQtTFREMRgwFgYDVQQDEw9ORU9UUkVJRC1MVEQgQ0ExHDAaBgkq
hkiG9w0BCQEWDW11eGFAbmVvNjMucnUwHhcNMTYwNzA0MTIxNTA1WhcNMjYwNzAy
MTIxNTA1WjCBgDELMAkGA1UEBhMCUlUxEzARBgNVBAgTClNBTUFSU0tBWUExEjAQ
BgNVBAcTCVRPR0xJQVRUWTEVMBMGA1UEChMMTkVPVFJFSUQtTFREMRMwEQYDVQQD
Ewp2YXNpbHlldmthMRwwGgYJKoZIhvcNAQkBFg1tdXhhQG5lbzYzLnJ1MIGfMA0G
CSqGSIb3DQEBAQUAA4GNADCBiQKBgQC3MLyxRUfdTPqXdov+J0LontAJwSOqmsSZ
tRaGGm4gSJUQkXEBkxockRyPj9MU0FBJTypW0jwuvzK5jyuCp2WA24nGnzLRHXpH
IsDWqUTimXs1OtxeXpLRfLuPHRfXPKsT5YYQTH9IAUtmSNxrG8KqEXzGp/ErVOg2
p8UE7opGzwIDAQABo4IBPDCCATgwCQYDVR0TBAIwADAtBglghkgBhvhCAQ0EIBYe
RWFzeS1SU0EgR2VuZXJhdGVkIENlcnRpZmljYXRlMB0GA1UdDgQWBBQ0C0qT4b7Q
tRUvIssvEhPcCyGbOjCBugYDVR0jBIGyMIGvgBT4rWvPBWr1AbeKb6KR0PPD4yti
86GBi6SBiDCBhTELMAkGA1UEBhMCUlUxEzARBgNVBAgTClNBTUFSU0tBWUExEjAQ
BgNVBAcTCVRPR0xJQVRUWTEVMBMGA1UEChMMTkVPVFJFSUQtTFREMRgwFgYDVQQD
Ew9ORU9UUkVJRC1MVEQgQ0ExHDAaBgkqhkiG9w0BCQEWDW11eGFAbmVvNjMucnWC
CQCjLiqorlIbtzATBgNVHSUEDDAKBggrBgEFBQcDAjALBgNVHQ8EBAMCB4AwDQYJ
KoZIhvcNAQEFBQADgYEAPZXRqLx1WIBB7mS5ynVKbPDvrzqN0Z4ZmjqZ08skvA5e
5CrGdEFVKLpwZKgbAjhpbsg5aJCahWTlum1H/BuEpSTsSQVAQpEW6mVbepUYBR/g
CmpBb069ZhmtmB20WJnELH5p88l/i8YwcsyYOd+xRdWp6TE1FSVdlDxD5e0nix8=
-----END CERTIFICATE-----
