Certificate:
    Data:
        Version: 3 (0x2)
        Serial Number: 28 (0x1c)
    Signature Algorithm: sha1WithRSAEncryption
        Issuer: C=RU, ST=SAMARSKAYA, L=TOGLIATTY, O=NEOTREID-LTD, CN=NEOTREID-LTD CA/emailAddress=muxa@neo63.ru
        Validity
            Not Before: Jul 20 06:12:04 2016 GMT
            Not After : Jul 18 06:12:04 2026 GMT
        Subject: C=RU, ST=SAMARSKAYA, L=TOGLIATTY, O=NEOTREID-LTD, CN=lovagina/emailAddress=muxa@neo63.ru
        Subject Public Key Info:
            Public Key Algorithm: rsaEncryption
                Public-Key: (1024 bit)
                Modulus:
                    00:bd:ee:f2:4b:f3:f5:df:c3:fd:de:41:c3:d9:90:
                    0c:b4:98:2f:7a:99:e1:56:48:d5:5e:ac:49:dc:a4:
                    d6:32:28:01:2c:b4:86:99:0f:a2:ce:d4:d7:2f:b4:
                    f4:23:e9:38:49:18:dc:01:4e:20:e9:42:56:9c:0e:
                    36:42:65:cf:2b:73:0b:01:07:81:a9:c3:9c:9b:eb:
                    82:f1:d2:cd:e7:5b:db:36:b3:dc:b1:80:11:4b:fe:
                    4d:22:bb:47:16:32:06:33:6e:e2:2a:40:a5:c4:bb:
                    64:84:5c:f5:1b:21:ae:c6:b6:0a:ca:21:5b:52:6c:
                    9d:d9:c6:fc:5d:6e:93:ca:d5
                Exponent: 65537 (0x10001)
        X509v3 extensions:
            X509v3 Basic Constraints: 
                CA:FALSE
            Netscape Comment: 
                Easy-RSA Generated Certificate
            X509v3 Subject Key Identifier: 
                3E:97:D9:44:24:F7:64:EA:4E:90:89:53:50:6B:EF:95:EB:94:CD:3F
            X509v3 Authority Key Identifier: 
                keyid:F8:AD:6B:CF:05:6A:F5:01:B7:8A:6F:A2:91:D0:F3:C3:E3:2B:62:F3
                DirName:/C=RU/ST=SAMARSKAYA/L=TOGLIATTY/O=NEOTREID-LTD/CN=NEOTREID-LTD CA/emailAddress=muxa@neo63.ru
                serial:A3:2E:2A:A8:AE:52:1B:B7

            X509v3 Extended Key Usage: 
                TLS Web Client Authentication
            X509v3 Key Usage: 
                Digital Signature
    Signature Algorithm: sha1WithRSAEncryption
         0e:82:ee:9d:e6:84:55:08:a4:67:9e:79:4d:f0:5e:d4:9c:08:
         2b:5a:c9:69:45:13:c2:49:96:26:1c:5e:1a:9f:2f:f2:e8:dc:
         a1:56:9c:29:79:ff:bf:ff:e1:b8:34:31:4f:9b:15:8c:ac:5c:
         b3:33:a7:3a:60:d3:1d:40:55:19:bb:a9:31:79:61:93:ef:84:
         6e:ec:ad:a5:38:36:36:89:ab:4d:44:c7:60:8d:04:0d:88:36:
         e9:b0:7d:26:23:b6:8b:ab:f8:1f:01:f0:b4:f2:bf:59:1d:10:
         ad:2c:ae:9c:62:19:9b:fc:b5:18:84:a5:db:2c:9f:f1:8d:ab:
         72:59
-----BEGIN CERTIFICATE-----
MIIDuDCCAyGgAwIBAgIBHDANBgkqhkiG9w0BAQUFADCBhTELMAkGA1UEBhMCUlUx
EzARBgNVBAgTClNBTUFSU0tBWUExEjAQBgNVBAcTCVRPR0xJQVRUWTEVMBMGA1UE
ChMMTkVPVFJFSUQtTFREMRgwFgYDVQQDEw9ORU9UUkVJRC1MVEQgQ0ExHDAaBgkq
hkiG9w0BCQEWDW11eGFAbmVvNjMucnUwHhcNMTYwNzIwMDYxMjA0WhcNMjYwNzE4
MDYxMjA0WjB+MQswCQYDVQQGEwJSVTETMBEGA1UECBMKU0FNQVJTS0FZQTESMBAG
A1UEBxMJVE9HTElBVFRZMRUwEwYDVQQKEwxORU9UUkVJRC1MVEQxETAPBgNVBAMT
CGxvdmFnaW5hMRwwGgYJKoZIhvcNAQkBFg1tdXhhQG5lbzYzLnJ1MIGfMA0GCSqG
SIb3DQEBAQUAA4GNADCBiQKBgQC97vJL8/Xfw/3eQcPZkAy0mC96meFWSNVerEnc
pNYyKAEstIaZD6LO1NcvtPQj6ThJGNwBTiDpQlacDjZCZc8rcwsBB4Gpw5yb64Lx
0s3nW9s2s9yxgBFL/k0iu0cWMgYzbuIqQKXEu2SEXPUbIa7GtgrKIVtSbJ3Zxvxd
bpPK1QIDAQABo4IBPDCCATgwCQYDVR0TBAIwADAtBglghkgBhvhCAQ0EIBYeRWFz
eS1SU0EgR2VuZXJhdGVkIENlcnRpZmljYXRlMB0GA1UdDgQWBBQ+l9lEJPdk6k6Q
iVNQa++V65TNPzCBugYDVR0jBIGyMIGvgBT4rWvPBWr1AbeKb6KR0PPD4yti86GB
i6SBiDCBhTELMAkGA1UEBhMCUlUxEzARBgNVBAgTClNBTUFSU0tBWUExEjAQBgNV
BAcTCVRPR0xJQVRUWTEVMBMGA1UEChMMTkVPVFJFSUQtTFREMRgwFgYDVQQDEw9O
RU9UUkVJRC1MVEQgQ0ExHDAaBgkqhkiG9w0BCQEWDW11eGFAbmVvNjMucnWCCQCj
LiqorlIbtzATBgNVHSUEDDAKBggrBgEFBQcDAjALBgNVHQ8EBAMCB4AwDQYJKoZI
hvcNAQEFBQADgYEADoLuneaEVQikZ555TfBe1JwIK1rJaUUTwkmWJhxeGp8v8ujc
oVacKXn/v//huDQxT5sVjKxcszOnOmDTHUBVGbupMXlhk++EbuytpTg2NomrTUTH
YI0EDYg26bB9JiO2i6v4HwHwtPK/WR0QrSyunGIZm/y1GISl2yyf8Y2rclk=
-----END CERTIFICATE-----
