Certificate:
    Data:
        Version: 3 (0x2)
        Serial Number: 30 (0x1e)
    Signature Algorithm: sha1WithRSAEncryption
        Issuer: C=RU, ST=SAMARSKAYA, L=TOGLIATTY, O=NEOTREID-LTD, CN=NEOTREID-LTD CA/emailAddress=muxa@neo63.ru
        Validity
            Not Before: Jul 22 17:51:43 2016 GMT
            Not After : Jul 20 17:51:43 2026 GMT
        Subject: C=RU, ST=SAMARSKAYA, L=TOGLIATTY, O=NEOTREID-LTD, CN=sab/emailAddress=muxa@neo63.ru
        Subject Public Key Info:
            Public Key Algorithm: rsaEncryption
                Public-Key: (1024 bit)
                Modulus:
                    00:c9:dc:28:54:29:95:d7:76:16:1e:c2:d6:15:29:
                    8e:bc:c8:b6:c1:6e:12:8a:23:b5:e0:45:0d:8a:fb:
                    46:fa:52:1a:0c:36:46:a8:89:48:da:63:06:1b:38:
                    db:79:e5:10:12:4e:b1:f5:47:92:53:9d:4d:11:af:
                    de:55:f9:73:17:c1:39:a1:a4:43:fc:5f:4f:5b:97:
                    f9:39:3f:7c:8f:18:c4:57:22:a9:4b:5b:1b:b3:ea:
                    2b:ef:5b:3c:ff:f0:b7:d5:af:db:ec:4b:9b:3a:88:
                    86:4e:00:da:77:f7:b7:92:00:60:92:7e:cd:dc:7e:
                    91:e7:59:25:a5:93:42:a8:bb
                Exponent: 65537 (0x10001)
        X509v3 extensions:
            X509v3 Basic Constraints: 
                CA:FALSE
            Netscape Comment: 
                Easy-RSA Generated Certificate
            X509v3 Subject Key Identifier: 
                37:D5:F4:12:23:C4:34:09:B6:E3:45:6C:44:AD:A8:EB:BD:28:22:53
            X509v3 Authority Key Identifier: 
                keyid:F8:AD:6B:CF:05:6A:F5:01:B7:8A:6F:A2:91:D0:F3:C3:E3:2B:62:F3
                DirName:/C=RU/ST=SAMARSKAYA/L=TOGLIATTY/O=NEOTREID-LTD/CN=NEOTREID-LTD CA/emailAddress=muxa@neo63.ru
                serial:A3:2E:2A:A8:AE:52:1B:B7

            X509v3 Extended Key Usage: 
                TLS Web Client Authentication
            X509v3 Key Usage: 
                Digital Signature
    Signature Algorithm: sha1WithRSAEncryption
         82:8e:1f:67:05:91:a7:5c:08:ca:7e:77:f9:69:a6:9c:2a:06:
         a1:df:c0:32:64:76:02:ec:2f:1f:c4:36:5b:a9:6e:b8:ae:b9:
         21:e6:fe:ef:6f:4e:73:56:52:39:b6:79:92:b4:dd:d3:1d:69:
         e6:9e:07:7d:80:75:55:e8:02:c6:45:39:17:f3:08:fd:07:68:
         78:72:24:65:38:11:3a:37:31:92:2d:67:61:a7:ee:06:18:2d:
         3b:17:55:2f:58:f0:18:db:bc:76:d5:b6:bc:62:7e:e2:04:bb:
         b0:bd:95:9d:07:c4:f5:ef:bc:9b:03:49:f8:ad:ab:e3:06:28:
         cb:d6
-----BEGIN CERTIFICATE-----
MIIDszCCAxygAwIBAgIBHjANBgkqhkiG9w0BAQUFADCBhTELMAkGA1UEBhMCUlUx
EzARBgNVBAgTClNBTUFSU0tBWUExEjAQBgNVBAcTCVRPR0xJQVRUWTEVMBMGA1UE
ChMMTkVPVFJFSUQtTFREMRgwFgYDVQQDEw9ORU9UUkVJRC1MVEQgQ0ExHDAaBgkq
hkiG9w0BCQEWDW11eGFAbmVvNjMucnUwHhcNMTYwNzIyMTc1MTQzWhcNMjYwNzIw
MTc1MTQzWjB5MQswCQYDVQQGEwJSVTETMBEGA1UECBMKU0FNQVJTS0FZQTESMBAG
A1UEBxMJVE9HTElBVFRZMRUwEwYDVQQKEwxORU9UUkVJRC1MVEQxDDAKBgNVBAMT
A3NhYjEcMBoGCSqGSIb3DQEJARYNbXV4YUBuZW82My5ydTCBnzANBgkqhkiG9w0B
AQEFAAOBjQAwgYkCgYEAydwoVCmV13YWHsLWFSmOvMi2wW4SiiO14EUNivtG+lIa
DDZGqIlI2mMGGzjbeeUQEk6x9UeSU51NEa/eVflzF8E5oaRD/F9PW5f5OT98jxjE
VyKpS1sbs+or71s8//C31a/b7EubOoiGTgDad/e3kgBgkn7N3H6R51klpZNCqLsC
AwEAAaOCATwwggE4MAkGA1UdEwQCMAAwLQYJYIZIAYb4QgENBCAWHkVhc3ktUlNB
IEdlbmVyYXRlZCBDZXJ0aWZpY2F0ZTAdBgNVHQ4EFgQUN9X0EiPENAm240VsRK2o
670oIlMwgboGA1UdIwSBsjCBr4AU+K1rzwVq9QG3im+ikdDzw+MrYvOhgYukgYgw
gYUxCzAJBgNVBAYTAlJVMRMwEQYDVQQIEwpTQU1BUlNLQVlBMRIwEAYDVQQHEwlU
T0dMSUFUVFkxFTATBgNVBAoTDE5FT1RSRUlELUxURDEYMBYGA1UEAxMPTkVPVFJF
SUQtTFREIENBMRwwGgYJKoZIhvcNAQkBFg1tdXhhQG5lbzYzLnJ1ggkAoy4qqK5S
G7cwEwYDVR0lBAwwCgYIKwYBBQUHAwIwCwYDVR0PBAQDAgeAMA0GCSqGSIb3DQEB
BQUAA4GBAIKOH2cFkadcCMp+d/lpppwqBqHfwDJkdgLsLx/ENlupbriuuSHm/u9v
TnNWUjm2eZK03dMdaeaeB32AdVXoAsZFORfzCP0HaHhyJGU4ETo3MZItZ2Gn7gYY
LTsXVS9Y8BjbvHbVtrxifuIEu7C9lZ0HxPXvvJsDSfitq+MGKMvW
-----END CERTIFICATE-----
