Certificate:
    Data:
        Version: 3 (0x2)
        Serial Number: 31 (0x1f)
    Signature Algorithm: sha1WithRSAEncryption
        Issuer: C=RU, ST=SAMARSKAYA, L=TOGLIATTY, O=NEOTREID-LTD, CN=NEOTREID-LTD CA/emailAddress=muxa@neo63.ru
        Validity
            Not Before: Jul 26 05:43:40 2016 GMT
            Not After : Jul 24 05:43:40 2026 GMT
        Subject: C=RU, ST=SAMARSKAYA, L=TOGLIATTY, O=NEOTREID-LTD, CN=valera_new/emailAddress=muxa@neo63.ru
        Subject Public Key Info:
            Public Key Algorithm: rsaEncryption
                Public-Key: (1024 bit)
                Modulus:
                    00:e5:65:de:77:87:29:af:d8:b9:2e:e7:3f:18:68:
                    6d:0a:f6:81:f4:aa:da:04:95:35:48:4f:a5:a5:3d:
                    52:fc:eb:08:09:8f:35:89:84:16:ce:43:8a:8a:3a:
                    6f:f4:3f:fd:b2:95:f9:1d:bd:13:87:df:49:b8:85:
                    bc:68:dd:ed:35:d8:b2:8b:61:76:6e:ec:a3:98:dc:
                    f6:3d:1f:24:dd:d0:af:c5:ed:8a:22:a9:6e:53:45:
                    89:48:33:1a:0c:60:d0:1e:2e:68:ad:16:c8:e7:ab:
                    1a:be:5c:ed:aa:f7:49:9b:04:88:d8:10:e9:b8:1c:
                    b0:0d:26:fe:12:5e:29:0b:a1
                Exponent: 65537 (0x10001)
        X509v3 extensions:
            X509v3 Basic Constraints: 
                CA:FALSE
            Netscape Comment: 
                Easy-RSA Generated Certificate
            X509v3 Subject Key Identifier: 
                96:39:6E:A1:36:3E:91:08:94:F4:A1:FB:8C:5C:0D:83:F1:E3:0E:7D
            X509v3 Authority Key Identifier: 
                keyid:F8:AD:6B:CF:05:6A:F5:01:B7:8A:6F:A2:91:D0:F3:C3:E3:2B:62:F3
                DirName:/C=RU/ST=SAMARSKAYA/L=TOGLIATTY/O=NEOTREID-LTD/CN=NEOTREID-LTD CA/emailAddress=muxa@neo63.ru
                serial:A3:2E:2A:A8:AE:52:1B:B7

            X509v3 Extended Key Usage: 
                TLS Web Client Authentication
            X509v3 Key Usage: 
                Digital Signature
    Signature Algorithm: sha1WithRSAEncryption
         4f:45:df:52:4f:43:ba:3f:04:e1:bc:8f:00:03:99:e0:86:2a:
         57:f3:5f:11:d9:cb:6f:44:ad:fb:69:cf:e7:39:92:10:14:9d:
         19:b8:6e:56:ee:90:c0:7d:90:9c:4f:87:a4:c3:e0:30:70:a3:
         3d:33:e9:a6:0c:bd:03:1c:17:3c:8d:78:ad:cd:25:50:8e:bb:
         d9:96:2d:07:28:07:d2:25:6b:90:2e:a8:32:dd:56:82:ac:40:
         cc:41:44:a8:72:71:97:b3:9c:ec:7e:15:2d:ad:89:7a:40:6a:
         5e:b2:53:57:55:10:91:40:f1:50:07:7c:10:a0:cd:c2:e9:69:
         28:57
-----BEGIN CERTIFICATE-----
MIIDuzCCAySgAwIBAgIBHzANBgkqhkiG9w0BAQUFADCBhTELMAkGA1UEBhMCUlUx
EzARBgNVBAgTClNBTUFSU0tBWUExEjAQBgNVBAcTCVRPR0xJQVRUWTEVMBMGA1UE
ChMMTkVPVFJFSUQtTFREMRgwFgYDVQQDEw9ORU9UUkVJRC1MVEQgQ0ExHDAaBgkq
hkiG9w0BCQEWDW11eGFAbmVvNjMucnUwHhcNMTYwNzI2MDU0MzQwWhcNMjYwNzI0
MDU0MzQwWjCBgDELMAkGA1UEBhMCUlUxEzARBgNVBAgTClNBTUFSU0tBWUExEjAQ
BgNVBAcTCVRPR0xJQVRUWTEVMBMGA1UEChMMTkVPVFJFSUQtTFREMRMwEQYDVQQD
FAp2YWxlcmFfbmV3MRwwGgYJKoZIhvcNAQkBFg1tdXhhQG5lbzYzLnJ1MIGfMA0G
CSqGSIb3DQEBAQUAA4GNADCBiQKBgQDlZd53hymv2Lku5z8YaG0K9oH0qtoElTVI
T6WlPVL86wgJjzWJhBbOQ4qKOm/0P/2ylfkdvROH30m4hbxo3e012LKLYXZu7KOY
3PY9HyTd0K/F7YoiqW5TRYlIMxoMYNAeLmitFsjnqxq+XO2q90mbBIjYEOm4HLAN
Jv4SXikLoQIDAQABo4IBPDCCATgwCQYDVR0TBAIwADAtBglghkgBhvhCAQ0EIBYe
RWFzeS1SU0EgR2VuZXJhdGVkIENlcnRpZmljYXRlMB0GA1UdDgQWBBSWOW6hNj6R
CJT0ofuMXA2D8eMOfTCBugYDVR0jBIGyMIGvgBT4rWvPBWr1AbeKb6KR0PPD4yti
86GBi6SBiDCBhTELMAkGA1UEBhMCUlUxEzARBgNVBAgTClNBTUFSU0tBWUExEjAQ
BgNVBAcTCVRPR0xJQVRUWTEVMBMGA1UEChMMTkVPVFJFSUQtTFREMRgwFgYDVQQD
Ew9ORU9UUkVJRC1MVEQgQ0ExHDAaBgkqhkiG9w0BCQEWDW11eGFAbmVvNjMucnWC
CQCjLiqorlIbtzATBgNVHSUEDDAKBggrBgEFBQcDAjALBgNVHQ8EBAMCB4AwDQYJ
KoZIhvcNAQEFBQADgYEAT0XfUk9Duj8E4byPAAOZ4IYqV/NfEdnLb0St+2nP5zmS
EBSdGbhuVu6QwH2QnE+HpMPgMHCjPTPppgy9AxwXPI14rc0lUI672ZYtBygH0iVr
kC6oMt1WgqxAzEFEqHJxl7Oc7H4VLa2JekBqXrJTV1UQkUDxUAd8EKDNwulpKFc=
-----END CERTIFICATE-----
