Certificate:
    Data:
        Version: 3 (0x2)
        Serial Number: 34 (0x22)
    Signature Algorithm: sha1WithRSAEncryption
        Issuer: C=RU, ST=SAMARSKAYA, L=TOGLIATTY, O=NEOTREID-LTD, CN=NEOTREID-LTD CA/emailAddress=muxa@neo63.ru
        Validity
            Not Before: Aug 26 06:03:48 2016 GMT
            Not After : Aug 24 06:03:48 2026 GMT
        Subject: C=RU, ST=SAMARSKAYA, L=TOGLIATTY, O=NEOTREID-LTD, CN=golosova/emailAddress=muxa@neo63.ru
        Subject Public Key Info:
            Public Key Algorithm: rsaEncryption
                Public-Key: (1024 bit)
                Modulus:
                    00:a7:3e:f1:f1:19:59:22:c6:91:ab:4e:c8:b6:58:
                    54:6d:0e:12:ab:4b:3f:47:10:c8:73:6c:12:b3:fb:
                    5b:de:a8:2e:ff:dc:fc:c1:94:89:36:69:0f:43:d9:
                    5c:ec:2b:87:b0:e8:26:f3:8d:c8:f6:09:91:1c:10:
                    02:9a:f3:f1:a5:91:ef:86:f8:e4:27:56:69:eb:fb:
                    91:dc:89:5e:b4:e6:f7:9e:04:af:01:d5:66:da:94:
                    45:29:ac:e7:2c:e5:a9:27:9f:1b:81:fc:e6:d9:01:
                    fb:b1:d7:d1:6d:26:7f:72:8f:39:84:35:91:29:1d:
                    a8:73:75:18:cb:3b:e8:4f:a7
                Exponent: 65537 (0x10001)
        X509v3 extensions:
            X509v3 Basic Constraints: 
                CA:FALSE
            Netscape Comment: 
                Easy-RSA Generated Certificate
            X509v3 Subject Key Identifier: 
                A3:D1:6D:C8:E8:F1:01:98:63:D3:1E:32:4A:B7:55:D9:8D:8D:1D:47
            X509v3 Authority Key Identifier: 
                keyid:F8:AD:6B:CF:05:6A:F5:01:B7:8A:6F:A2:91:D0:F3:C3:E3:2B:62:F3
                DirName:/C=RU/ST=SAMARSKAYA/L=TOGLIATTY/O=NEOTREID-LTD/CN=NEOTREID-LTD CA/emailAddress=muxa@neo63.ru
                serial:A3:2E:2A:A8:AE:52:1B:B7

            X509v3 Extended Key Usage: 
                TLS Web Client Authentication
            X509v3 Key Usage: 
                Digital Signature
    Signature Algorithm: sha1WithRSAEncryption
         6c:8a:dd:fd:3b:2b:0c:f3:fd:a9:77:ec:32:bf:dd:b0:78:61:
         2b:e1:30:7a:01:95:6c:dd:b5:3d:59:17:ee:a5:8f:86:ee:b0:
         93:14:bb:f8:5a:fd:a5:a4:20:24:64:5a:46:c8:5d:3e:cd:9c:
         5e:dc:19:d0:d7:d0:d6:fd:7b:67:ec:1e:56:54:41:a5:bb:64:
         f8:84:aa:ed:a8:cd:2c:84:99:f6:b0:fe:fe:59:60:76:07:22:
         fe:3b:df:76:f7:b6:f2:7d:7a:bc:ac:c5:80:0f:96:a9:3d:13:
         bd:7a:82:1a:bd:c3:20:87:58:52:2f:fd:78:a6:fe:ce:a1:42:
         ae:82
-----BEGIN CERTIFICATE-----
MIIDuDCCAyGgAwIBAgIBIjANBgkqhkiG9w0BAQUFADCBhTELMAkGA1UEBhMCUlUx
EzARBgNVBAgTClNBTUFSU0tBWUExEjAQBgNVBAcTCVRPR0xJQVRUWTEVMBMGA1UE
ChMMTkVPVFJFSUQtTFREMRgwFgYDVQQDEw9ORU9UUkVJRC1MVEQgQ0ExHDAaBgkq
hkiG9w0BCQEWDW11eGFAbmVvNjMucnUwHhcNMTYwODI2MDYwMzQ4WhcNMjYwODI0
MDYwMzQ4WjB+MQswCQYDVQQGEwJSVTETMBEGA1UECBMKU0FNQVJTS0FZQTESMBAG
A1UEBxMJVE9HTElBVFRZMRUwEwYDVQQKEwxORU9UUkVJRC1MVEQxETAPBgNVBAMT
CGdvbG9zb3ZhMRwwGgYJKoZIhvcNAQkBFg1tdXhhQG5lbzYzLnJ1MIGfMA0GCSqG
SIb3DQEBAQUAA4GNADCBiQKBgQCnPvHxGVkixpGrTsi2WFRtDhKrSz9HEMhzbBKz
+1veqC7/3PzBlIk2aQ9D2VzsK4ew6Cbzjcj2CZEcEAKa8/Glke+G+OQnVmnr+5Hc
iV605veeBK8B1WbalEUprOcs5aknnxuB/ObZAfux19FtJn9yjzmENZEpHahzdRjL
O+hPpwIDAQABo4IBPDCCATgwCQYDVR0TBAIwADAtBglghkgBhvhCAQ0EIBYeRWFz
eS1SU0EgR2VuZXJhdGVkIENlcnRpZmljYXRlMB0GA1UdDgQWBBSj0W3I6PEBmGPT
HjJKt1XZjY0dRzCBugYDVR0jBIGyMIGvgBT4rWvPBWr1AbeKb6KR0PPD4yti86GB
i6SBiDCBhTELMAkGA1UEBhMCUlUxEzARBgNVBAgTClNBTUFSU0tBWUExEjAQBgNV
BAcTCVRPR0xJQVRUWTEVMBMGA1UEChMMTkVPVFJFSUQtTFREMRgwFgYDVQQDEw9O
RU9UUkVJRC1MVEQgQ0ExHDAaBgkqhkiG9w0BCQEWDW11eGFAbmVvNjMucnWCCQCj
LiqorlIbtzATBgNVHSUEDDAKBggrBgEFBQcDAjALBgNVHQ8EBAMCB4AwDQYJKoZI
hvcNAQEFBQADgYEAbIrd/TsrDPP9qXfsMr/dsHhhK+EwegGVbN21PVkX7qWPhu6w
kxS7+Fr9paQgJGRaRshdPs2cXtwZ0NfQ1v17Z+weVlRBpbtk+ISq7ajNLISZ9rD+
/llgdgci/jvfdve28n16vKzFgA+WqT0TvXqCGr3DIIdYUi/9eKb+zqFCroI=
-----END CERTIFICATE-----
