Certificate:
    Data:
        Version: 3 (0x2)
        Serial Number: 35 (0x23)
    Signature Algorithm: sha1WithRSAEncryption
        Issuer: C=RU, ST=SAMARSKAYA, L=TOGLIATTY, O=NEOTREID-LTD, CN=NEOTREID-LTD CA/emailAddress=muxa@neo63.ru
        Validity
            Not Before: Sep  6 11:02:33 2016 GMT
            Not After : Sep  4 11:02:33 2026 GMT
        Subject: C=RU, ST=SAMARSKAYA, L=TOGLIATTY, O=NEOTREID-LTD, CN=zankin/emailAddress=muxa@neo63.ru
        Subject Public Key Info:
            Public Key Algorithm: rsaEncryption
                Public-Key: (1024 bit)
                Modulus:
                    00:ca:80:90:72:63:9e:d4:13:a5:6e:f0:56:aa:f2:
                    b2:c2:c3:ba:1e:da:16:0a:42:8e:04:82:05:54:4c:
                    41:7e:ec:da:fb:bf:0f:da:7a:6e:9e:2a:3e:8b:32:
                    e8:86:ad:f3:82:de:5b:a7:8a:a8:61:7c:6b:5e:4f:
                    fe:b5:bf:43:b0:36:79:6f:d7:ce:32:d5:4c:cd:25:
                    40:cf:4a:e0:58:c0:e2:9d:eb:83:f7:80:c0:3d:2c:
                    6e:b7:1e:8d:d4:6b:44:4c:ac:37:f6:88:75:e0:54:
                    95:5b:73:8e:9e:f0:d1:2d:12:cb:f7:bf:7b:36:5d:
                    fc:e1:73:cc:08:4f:4b:08:3f
                Exponent: 65537 (0x10001)
        X509v3 extensions:
            X509v3 Basic Constraints: 
                CA:FALSE
            Netscape Comment: 
                Easy-RSA Generated Certificate
            X509v3 Subject Key Identifier: 
                CB:41:04:39:45:68:D1:06:07:69:99:74:6A:91:87:47:00:A3:26:03
            X509v3 Authority Key Identifier: 
                keyid:F8:AD:6B:CF:05:6A:F5:01:B7:8A:6F:A2:91:D0:F3:C3:E3:2B:62:F3
                DirName:/C=RU/ST=SAMARSKAYA/L=TOGLIATTY/O=NEOTREID-LTD/CN=NEOTREID-LTD CA/emailAddress=muxa@neo63.ru
                serial:A3:2E:2A:A8:AE:52:1B:B7

            X509v3 Extended Key Usage: 
                TLS Web Client Authentication
            X509v3 Key Usage: 
                Digital Signature
    Signature Algorithm: sha1WithRSAEncryption
         48:9b:b2:c0:fc:72:68:77:23:dc:84:02:e8:71:a2:bf:25:49:
         7e:3d:af:44:8c:70:89:cb:97:ec:b9:40:45:4f:b3:27:66:62:
         b0:c3:d3:9f:39:65:bd:ca:93:cb:bd:d7:34:e0:21:42:a4:76:
         fc:08:40:5d:61:83:d1:23:26:80:61:17:74:e5:72:43:57:9d:
         68:b4:ed:1a:6e:59:bc:5e:86:6d:d0:50:f0:4d:39:7d:42:87:
         ad:98:25:6d:79:34:59:b0:ea:00:03:b2:c5:9d:08:26:fe:fc:
         3b:61:13:53:9d:4a:07:b4:bf:47:60:e1:d5:38:51:41:61:7f:
         9b:87
-----BEGIN CERTIFICATE-----
MIIDtjCCAx+gAwIBAgIBIzANBgkqhkiG9w0BAQUFADCBhTELMAkGA1UEBhMCUlUx
EzARBgNVBAgTClNBTUFSU0tBWUExEjAQBgNVBAcTCVRPR0xJQVRUWTEVMBMGA1UE
ChMMTkVPVFJFSUQtTFREMRgwFgYDVQQDEw9ORU9UUkVJRC1MVEQgQ0ExHDAaBgkq
hkiG9w0BCQEWDW11eGFAbmVvNjMucnUwHhcNMTYwOTA2MTEwMjMzWhcNMjYwOTA0
MTEwMjMzWjB8MQswCQYDVQQGEwJSVTETMBEGA1UECBMKU0FNQVJTS0FZQTESMBAG
A1UEBxMJVE9HTElBVFRZMRUwEwYDVQQKEwxORU9UUkVJRC1MVEQxDzANBgNVBAMT
BnphbmtpbjEcMBoGCSqGSIb3DQEJARYNbXV4YUBuZW82My5ydTCBnzANBgkqhkiG
9w0BAQEFAAOBjQAwgYkCgYEAyoCQcmOe1BOlbvBWqvKywsO6HtoWCkKOBIIFVExB
fuza+78P2npunio+izLohq3zgt5bp4qoYXxrXk/+tb9DsDZ5b9fOMtVMzSVAz0rg
WMDineuD94DAPSxutx6N1GtETKw39oh14FSVW3OOnvDRLRLL9797Nl384XPMCE9L
CD8CAwEAAaOCATwwggE4MAkGA1UdEwQCMAAwLQYJYIZIAYb4QgENBCAWHkVhc3kt
UlNBIEdlbmVyYXRlZCBDZXJ0aWZpY2F0ZTAdBgNVHQ4EFgQUy0EEOUVo0QYHaZl0
apGHRwCjJgMwgboGA1UdIwSBsjCBr4AU+K1rzwVq9QG3im+ikdDzw+MrYvOhgYuk
gYgwgYUxCzAJBgNVBAYTAlJVMRMwEQYDVQQIEwpTQU1BUlNLQVlBMRIwEAYDVQQH
EwlUT0dMSUFUVFkxFTATBgNVBAoTDE5FT1RSRUlELUxURDEYMBYGA1UEAxMPTkVP
VFJFSUQtTFREIENBMRwwGgYJKoZIhvcNAQkBFg1tdXhhQG5lbzYzLnJ1ggkAoy4q
qK5SG7cwEwYDVR0lBAwwCgYIKwYBBQUHAwIwCwYDVR0PBAQDAgeAMA0GCSqGSIb3
DQEBBQUAA4GBAEibssD8cmh3I9yEAuhxor8lSX49r0SMcInLl+y5QEVPsydmYrDD
0585Zb3Kk8u91zTgIUKkdvwIQF1hg9EjJoBhF3TlckNXnWi07RpuWbxehm3QUPBN
OX1Ch62YJW15NFmw6gADssWdCCb+/DthE1OdSge0v0dg4dU4UUFhf5uH
-----END CERTIFICATE-----
