Certificate:
    Data:
        Version: 3 (0x2)
        Serial Number: 38 (0x26)
    Signature Algorithm: sha1WithRSAEncryption
        Issuer: C=RU, ST=SAMARSKAYA, L=TOGLIATTY, O=NEOTREID-LTD, CN=NEOTREID-LTD CA/emailAddress=muxa@neo63.ru
        Validity
            Not Before: Nov  1 06:32:53 2016 GMT
            Not After : Oct 30 06:32:53 2026 GMT
        Subject: C=RU, ST=SAMARSKAYA, L=TOGLIATTY, O=NEOTREID-LTD, CN=p10_5/emailAddress=muxa@neo63.ru
        Subject Public Key Info:
            Public Key Algorithm: rsaEncryption
                Public-Key: (1024 bit)
                Modulus:
                    00:a5:a1:77:c8:9d:aa:5e:78:59:2c:7a:0b:7e:be:
                    f3:a2:89:a0:53:4f:02:c7:4b:02:d5:23:86:16:31:
                    73:0e:59:1f:49:71:8b:1f:be:c0:3d:1c:f3:41:ad:
                    38:04:7f:29:1e:65:f5:2a:b5:65:ec:68:7b:f0:8d:
                    58:8e:e2:2b:46:ca:04:c0:39:67:fc:e1:d3:e1:79:
                    2d:5c:b4:2d:ab:93:cd:f4:20:66:63:44:52:83:fc:
                    c2:97:f8:1f:29:22:fa:a3:4e:5d:d7:b5:c6:8d:91:
                    4e:2c:d0:d8:4f:1d:31:c2:38:8f:ed:53:5b:08:e8:
                    2e:4e:98:21:89:7a:3b:1a:0b
                Exponent: 65537 (0x10001)
        X509v3 extensions:
            X509v3 Basic Constraints: 
                CA:FALSE
            Netscape Comment: 
                Easy-RSA Generated Certificate
            X509v3 Subject Key Identifier: 
                14:09:BF:3A:86:88:F2:46:C7:82:1A:FC:E0:2D:9E:F5:F7:23:12:54
            X509v3 Authority Key Identifier: 
                keyid:F8:AD:6B:CF:05:6A:F5:01:B7:8A:6F:A2:91:D0:F3:C3:E3:2B:62:F3
                DirName:/C=RU/ST=SAMARSKAYA/L=TOGLIATTY/O=NEOTREID-LTD/CN=NEOTREID-LTD CA/emailAddress=muxa@neo63.ru
                serial:A3:2E:2A:A8:AE:52:1B:B7

            X509v3 Extended Key Usage: 
                TLS Web Client Authentication
            X509v3 Key Usage: 
                Digital Signature
    Signature Algorithm: sha1WithRSAEncryption
         48:2c:f3:8e:2c:11:a1:b3:b0:1b:9c:1e:46:15:14:3f:38:b4:
         54:a0:55:cc:c3:0e:44:3f:7d:d7:a3:6f:ae:11:a6:20:ad:b4:
         23:10:a5:61:f8:d2:b2:8b:01:80:6d:52:0a:aa:0c:bc:8f:2b:
         68:28:9c:f4:4f:08:b3:3f:1d:00:c5:11:36:7d:8a:1d:a9:6e:
         fb:ca:0a:c4:b5:e6:5f:b4:3e:e5:b2:7e:c8:7d:be:41:38:7e:
         cb:bf:64:1f:41:d6:40:8e:d7:ab:50:e8:dc:3f:19:55:b7:df:
         d0:09:8f:66:a2:1d:9c:47:da:b7:2a:ef:2f:56:d1:3a:0f:53:
         f4:22
-----BEGIN CERTIFICATE-----
MIIDtTCCAx6gAwIBAgIBJjANBgkqhkiG9w0BAQUFADCBhTELMAkGA1UEBhMCUlUx
EzARBgNVBAgTClNBTUFSU0tBWUExEjAQBgNVBAcTCVRPR0xJQVRUWTEVMBMGA1UE
ChMMTkVPVFJFSUQtTFREMRgwFgYDVQQDEw9ORU9UUkVJRC1MVEQgQ0ExHDAaBgkq
hkiG9w0BCQEWDW11eGFAbmVvNjMucnUwHhcNMTYxMTAxMDYzMjUzWhcNMjYxMDMw
MDYzMjUzWjB7MQswCQYDVQQGEwJSVTETMBEGA1UECBMKU0FNQVJTS0FZQTESMBAG
A1UEBxMJVE9HTElBVFRZMRUwEwYDVQQKEwxORU9UUkVJRC1MVEQxDjAMBgNVBAMU
BXAxMF81MRwwGgYJKoZIhvcNAQkBFg1tdXhhQG5lbzYzLnJ1MIGfMA0GCSqGSIb3
DQEBAQUAA4GNADCBiQKBgQCloXfInapeeFksegt+vvOiiaBTTwLHSwLVI4YWMXMO
WR9JcYsfvsA9HPNBrTgEfykeZfUqtWXsaHvwjViO4itGygTAOWf84dPheS1ctC2r
k830IGZjRFKD/MKX+B8pIvqjTl3XtcaNkU4s0NhPHTHCOI/tU1sI6C5OmCGJejsa
CwIDAQABo4IBPDCCATgwCQYDVR0TBAIwADAtBglghkgBhvhCAQ0EIBYeRWFzeS1S
U0EgR2VuZXJhdGVkIENlcnRpZmljYXRlMB0GA1UdDgQWBBQUCb86hojyRseCGvzg
LZ719yMSVDCBugYDVR0jBIGyMIGvgBT4rWvPBWr1AbeKb6KR0PPD4yti86GBi6SB
iDCBhTELMAkGA1UEBhMCUlUxEzARBgNVBAgTClNBTUFSU0tBWUExEjAQBgNVBAcT
CVRPR0xJQVRUWTEVMBMGA1UEChMMTkVPVFJFSUQtTFREMRgwFgYDVQQDEw9ORU9U
UkVJRC1MVEQgQ0ExHDAaBgkqhkiG9w0BCQEWDW11eGFAbmVvNjMucnWCCQCjLiqo
rlIbtzATBgNVHSUEDDAKBggrBgEFBQcDAjALBgNVHQ8EBAMCB4AwDQYJKoZIhvcN
AQEFBQADgYEASCzzjiwRobOwG5weRhUUPzi0VKBVzMMORD9916NvrhGmIK20IxCl
YfjSsosBgG1SCqoMvI8raCic9E8Isz8dAMURNn2KHalu+8oKxLXmX7Q+5bJ+yH2+
QTh+y79kH0HWQI7Xq1Do3D8ZVbff0AmPZqIdnEfatyrvL1bROg9T9CI=
-----END CERTIFICATE-----
