Certificate:
    Data:
        Version: 3 (0x2)
        Serial Number: 40 (0x28)
    Signature Algorithm: sha1WithRSAEncryption
        Issuer: C=RU, ST=SAMARSKAYA, L=TOGLIATTY, O=NEOTREID-LTD, CN=NEOTREID-LTD CA/emailAddress=muxa@neo63.ru
        Validity
            Not Before: Nov 24 05:54:14 2016 GMT
            Not After : Nov 22 05:54:14 2026 GMT
        Subject: C=RU, ST=SAMARSKAYA, L=TOGLIATTY, O=NEOTREID-LTD, CN=lunacharski/emailAddress=muxa@neo63.ru
        Subject Public Key Info:
            Public Key Algorithm: rsaEncryption
                Public-Key: (1024 bit)
                Modulus:
                    00:a3:2c:99:45:dc:36:64:26:e2:0c:4b:3c:37:67:
                    91:f9:8a:1e:88:10:70:02:d9:1f:a4:53:31:5d:4d:
                    fa:b6:5c:9c:fc:1b:6b:cf:4f:97:84:7a:60:e0:8f:
                    a3:15:10:00:53:86:a4:b4:6e:23:5f:0a:05:c9:89:
                    6f:20:74:54:db:d2:c6:8b:5d:bc:ba:76:0f:1b:99:
                    7c:17:4c:f7:8c:46:ce:6b:02:dc:b8:41:7c:d6:76:
                    d5:63:bb:80:01:f5:18:4e:db:3f:7c:8d:5d:65:e3:
                    d9:4f:83:78:ce:1c:06:1c:0a:98:a3:51:6e:79:ce:
                    b0:9c:02:be:ee:fe:d0:53:b7
                Exponent: 65537 (0x10001)
        X509v3 extensions:
            X509v3 Basic Constraints: 
                CA:FALSE
            Netscape Comment: 
                Easy-RSA Generated Certificate
            X509v3 Subject Key Identifier: 
                49:00:47:DE:DD:8F:96:9A:59:F8:3D:79:8F:0E:B4:B2:4B:EB:0C:38
            X509v3 Authority Key Identifier: 
                keyid:F8:AD:6B:CF:05:6A:F5:01:B7:8A:6F:A2:91:D0:F3:C3:E3:2B:62:F3
                DirName:/C=RU/ST=SAMARSKAYA/L=TOGLIATTY/O=NEOTREID-LTD/CN=NEOTREID-LTD CA/emailAddress=muxa@neo63.ru
                serial:A3:2E:2A:A8:AE:52:1B:B7

            X509v3 Extended Key Usage: 
                TLS Web Client Authentication
            X509v3 Key Usage: 
                Digital Signature
    Signature Algorithm: sha1WithRSAEncryption
         49:8f:2f:82:80:49:c4:fd:f8:d9:f2:2c:ac:4b:4c:f7:37:f3:
         ae:f5:ee:8b:90:40:b4:11:78:1b:bf:7e:28:69:b9:84:c5:17:
         31:7e:22:ed:0b:92:77:77:c6:79:16:23:df:ec:8c:a7:cd:9e:
         74:c9:61:cb:30:ce:02:a0:cf:78:07:fb:98:92:ac:6f:b6:21:
         85:0d:3e:61:fc:bb:7c:16:1f:d6:81:0a:c9:12:7e:da:c9:e2:
         7b:94:30:55:0b:8a:a3:9a:fb:c0:73:76:c2:f3:03:60:41:4a:
         4b:f0:2b:4e:3f:e3:96:e7:8c:d8:0f:20:24:a1:d1:51:03:f8:
         be:1b
-----BEGIN CERTIFICATE-----
MIIDvDCCAyWgAwIBAgIBKDANBgkqhkiG9w0BAQUFADCBhTELMAkGA1UEBhMCUlUx
EzARBgNVBAgTClNBTUFSU0tBWUExEjAQBgNVBAcTCVRPR0xJQVRUWTEVMBMGA1UE
ChMMTkVPVFJFSUQtTFREMRgwFgYDVQQDEw9ORU9UUkVJRC1MVEQgQ0ExHDAaBgkq
hkiG9w0BCQEWDW11eGFAbmVvNjMucnUwHhcNMTYxMTI0MDU1NDE0WhcNMjYxMTIy
MDU1NDE0WjCBgTELMAkGA1UEBhMCUlUxEzARBgNVBAgTClNBTUFSU0tBWUExEjAQ
BgNVBAcTCVRPR0xJQVRUWTEVMBMGA1UEChMMTkVPVFJFSUQtTFREMRQwEgYDVQQD
EwtsdW5hY2hhcnNraTEcMBoGCSqGSIb3DQEJARYNbXV4YUBuZW82My5ydTCBnzAN
BgkqhkiG9w0BAQEFAAOBjQAwgYkCgYEAoyyZRdw2ZCbiDEs8N2eR+YoeiBBwAtkf
pFMxXU36tlyc/Btrz0+XhHpg4I+jFRAAU4aktG4jXwoFyYlvIHRU29LGi128unYP
G5l8F0z3jEbOawLcuEF81nbVY7uAAfUYTts/fI1dZePZT4N4zhwGHAqYo1Fuec6w
nAK+7v7QU7cCAwEAAaOCATwwggE4MAkGA1UdEwQCMAAwLQYJYIZIAYb4QgENBCAW
HkVhc3ktUlNBIEdlbmVyYXRlZCBDZXJ0aWZpY2F0ZTAdBgNVHQ4EFgQUSQBH3t2P
lppZ+D15jw60skvrDDgwgboGA1UdIwSBsjCBr4AU+K1rzwVq9QG3im+ikdDzw+Mr
YvOhgYukgYgwgYUxCzAJBgNVBAYTAlJVMRMwEQYDVQQIEwpTQU1BUlNLQVlBMRIw
EAYDVQQHEwlUT0dMSUFUVFkxFTATBgNVBAoTDE5FT1RSRUlELUxURDEYMBYGA1UE
AxMPTkVPVFJFSUQtTFREIENBMRwwGgYJKoZIhvcNAQkBFg1tdXhhQG5lbzYzLnJ1
ggkAoy4qqK5SG7cwEwYDVR0lBAwwCgYIKwYBBQUHAwIwCwYDVR0PBAQDAgeAMA0G
CSqGSIb3DQEBBQUAA4GBAEmPL4KAScT9+NnyLKxLTPc386717ouQQLQReBu/fihp
uYTFFzF+Iu0Lknd3xnkWI9/sjKfNnnTJYcswzgKgz3gH+5iSrG+2IYUNPmH8u3wW
H9aBCskSftrJ4nuUMFULiqOa+8BzdsLzA2BBSkvwK04/45bnjNgPICSh0VED+L4b
-----END CERTIFICATE-----
