Certificate:
    Data:
        Version: 3 (0x2)
        Serial Number: 45 (0x2d)
    Signature Algorithm: sha1WithRSAEncryption
        Issuer: C=RU, ST=SAMARSKAYA, L=TOGLIATTY, O=NEOTREID-LTD, CN=NEOTREID-LTD CA/emailAddress=muxa@neo63.ru
        Validity
            Not Before: Dec 30 06:58:12 2016 GMT
            Not After : Dec 28 06:58:12 2026 GMT
        Subject: C=RU, ST=SAMARSKAYA, L=TOGLIATTY, O=NEOTREID-LTD, CN=zorina/emailAddress=muxa@neo63.ru
        Subject Public Key Info:
            Public Key Algorithm: rsaEncryption
                Public-Key: (1024 bit)
                Modulus:
                    00:bb:90:e8:a7:83:ab:1f:65:fd:0e:f2:f5:90:37:
                    6c:63:9f:6a:b5:09:61:bf:51:19:1c:e7:17:f9:ff:
                    f1:55:37:0e:e8:66:9f:e0:16:f0:40:c8:c9:be:90:
                    3a:ad:ee:4e:6f:87:7e:0e:2a:24:5b:1c:55:b3:85:
                    4c:e8:7b:f0:be:96:b9:1b:81:a5:82:ed:ea:9c:fb:
                    20:3b:33:df:4a:7f:09:ef:38:0a:03:6e:67:f0:53:
                    02:40:b9:bb:82:ec:3c:77:04:6b:8b:0e:4e:d7:0e:
                    61:19:0f:2a:50:c1:d4:8e:ed:86:2e:37:d5:0a:82:
                    d3:e2:bd:f9:37:44:73:0a:29
                Exponent: 65537 (0x10001)
        X509v3 extensions:
            X509v3 Basic Constraints: 
                CA:FALSE
            Netscape Comment: 
                Easy-RSA Generated Certificate
            X509v3 Subject Key Identifier: 
                C7:FC:BA:0C:27:12:A6:39:4B:F5:BC:A5:F6:90:2A:5B:90:94:F6:4F
            X509v3 Authority Key Identifier: 
                keyid:F8:AD:6B:CF:05:6A:F5:01:B7:8A:6F:A2:91:D0:F3:C3:E3:2B:62:F3
                DirName:/C=RU/ST=SAMARSKAYA/L=TOGLIATTY/O=NEOTREID-LTD/CN=NEOTREID-LTD CA/emailAddress=muxa@neo63.ru
                serial:A3:2E:2A:A8:AE:52:1B:B7

            X509v3 Extended Key Usage: 
                TLS Web Client Authentication
            X509v3 Key Usage: 
                Digital Signature
    Signature Algorithm: sha1WithRSAEncryption
         5c:e0:d0:c8:00:99:fd:e3:0a:41:73:84:d4:95:bf:34:34:74:
         ce:72:93:ef:3c:85:85:e5:8a:74:0e:21:4e:dc:12:9e:7d:bd:
         50:51:5e:ea:3b:c2:02:51:c2:c9:d0:a4:ae:12:bb:a3:fa:64:
         57:24:e0:0a:32:95:bc:49:30:9e:f4:9c:0a:40:43:f9:30:49:
         a6:1c:77:b4:31:65:33:f2:5c:a3:17:62:b0:1c:ae:32:b3:ee:
         de:81:99:bb:e0:c4:30:8d:23:35:e3:a8:5d:4f:bd:f4:80:fa:
         35:ee:ad:1e:0c:74:39:ac:1d:73:fd:17:39:73:3e:37:8e:6a:
         31:eb
-----BEGIN CERTIFICATE-----
MIIDtjCCAx+gAwIBAgIBLTANBgkqhkiG9w0BAQUFADCBhTELMAkGA1UEBhMCUlUx
EzARBgNVBAgTClNBTUFSU0tBWUExEjAQBgNVBAcTCVRPR0xJQVRUWTEVMBMGA1UE
ChMMTkVPVFJFSUQtTFREMRgwFgYDVQQDEw9ORU9UUkVJRC1MVEQgQ0ExHDAaBgkq
hkiG9w0BCQEWDW11eGFAbmVvNjMucnUwHhcNMTYxMjMwMDY1ODEyWhcNMjYxMjI4
MDY1ODEyWjB8MQswCQYDVQQGEwJSVTETMBEGA1UECBMKU0FNQVJTS0FZQTESMBAG
A1UEBxMJVE9HTElBVFRZMRUwEwYDVQQKEwxORU9UUkVJRC1MVEQxDzANBgNVBAMT
BnpvcmluYTEcMBoGCSqGSIb3DQEJARYNbXV4YUBuZW82My5ydTCBnzANBgkqhkiG
9w0BAQEFAAOBjQAwgYkCgYEAu5Dop4OrH2X9DvL1kDdsY59qtQlhv1EZHOcX+f/x
VTcO6Gaf4BbwQMjJvpA6re5Ob4d+DiokWxxVs4VM6Hvwvpa5G4Glgu3qnPsgOzPf
Sn8J7zgKA25n8FMCQLm7guw8dwRriw5O1w5hGQ8qUMHUju2GLjfVCoLT4r35N0Rz
CikCAwEAAaOCATwwggE4MAkGA1UdEwQCMAAwLQYJYIZIAYb4QgENBCAWHkVhc3kt
UlNBIEdlbmVyYXRlZCBDZXJ0aWZpY2F0ZTAdBgNVHQ4EFgQUx/y6DCcSpjlL9byl
9pAqW5CU9k8wgboGA1UdIwSBsjCBr4AU+K1rzwVq9QG3im+ikdDzw+MrYvOhgYuk
gYgwgYUxCzAJBgNVBAYTAlJVMRMwEQYDVQQIEwpTQU1BUlNLQVlBMRIwEAYDVQQH
EwlUT0dMSUFUVFkxFTATBgNVBAoTDE5FT1RSRUlELUxURDEYMBYGA1UEAxMPTkVP
VFJFSUQtTFREIENBMRwwGgYJKoZIhvcNAQkBFg1tdXhhQG5lbzYzLnJ1ggkAoy4q
qK5SG7cwEwYDVR0lBAwwCgYIKwYBBQUHAwIwCwYDVR0PBAQDAgeAMA0GCSqGSIb3
DQEBBQUAA4GBAFzg0MgAmf3jCkFzhNSVvzQ0dM5yk+88hYXlinQOIU7cEp59vVBR
Xuo7wgJRwsnQpK4Su6P6ZFck4AoylbxJMJ70nApAQ/kwSaYcd7QxZTPyXKMXYrAc
rjKz7t6BmbvgxDCNIzXjqF1PvfSA+jXurR4MdDmsHXP9FzlzPjeOajHr
-----END CERTIFICATE-----
