Certificate:
    Data:
        Version: 3 (0x2)
        Serial Number: 46 (0x2e)
    Signature Algorithm: sha1WithRSAEncryption
        Issuer: C=RU, ST=SAMARSKAYA, L=TOGLIATTY, O=NEOTREID-LTD, CN=NEOTREID-LTD CA/emailAddress=muxa@neo63.ru
        Validity
            Not Before: Jan  4 09:52:57 2017 GMT
            Not After : Jan  2 09:52:57 2027 GMT
        Subject: C=RU, ST=SAMARSKAYA, L=TOGLIATTY, O=NEOTREID-LTD, CN=3a/emailAddress=muxa@neo63.ru
        Subject Public Key Info:
            Public Key Algorithm: rsaEncryption
                Public-Key: (1024 bit)
                Modulus:
                    00:d7:32:ac:94:06:da:61:77:be:4e:ca:cc:7f:96:
                    56:6c:de:f9:e2:a9:08:31:04:75:43:50:cf:db:d0:
                    6a:71:bc:18:81:15:4d:86:00:8b:ca:83:93:4c:ff:
                    ef:60:5d:bb:d4:88:ad:8c:e2:24:5e:02:b3:2a:de:
                    8b:5a:3c:a1:8b:66:df:49:3e:ae:08:cf:aa:a8:1b:
                    9b:cb:91:59:8b:f9:42:91:bd:d0:82:66:78:2b:74:
                    7a:a9:23:f2:ab:64:2c:48:49:2a:0b:20:1d:e8:a0:
                    81:58:3f:73:ba:6d:9f:34:2e:f0:2a:be:5c:c8:a0:
                    12:68:02:7c:1f:19:e0:3e:d3
                Exponent: 65537 (0x10001)
        X509v3 extensions:
            X509v3 Basic Constraints: 
                CA:FALSE
            Netscape Comment: 
                Easy-RSA Generated Certificate
            X509v3 Subject Key Identifier: 
                1E:6B:08:37:D2:96:83:D3:B3:CD:D8:3A:DD:9D:D8:95:B5:52:ED:F5
            X509v3 Authority Key Identifier: 
                keyid:F8:AD:6B:CF:05:6A:F5:01:B7:8A:6F:A2:91:D0:F3:C3:E3:2B:62:F3
                DirName:/C=RU/ST=SAMARSKAYA/L=TOGLIATTY/O=NEOTREID-LTD/CN=NEOTREID-LTD CA/emailAddress=muxa@neo63.ru
                serial:A3:2E:2A:A8:AE:52:1B:B7

            X509v3 Extended Key Usage: 
                TLS Web Client Authentication
            X509v3 Key Usage: 
                Digital Signature
    Signature Algorithm: sha1WithRSAEncryption
         6c:dd:68:63:c7:71:ca:3d:21:f4:77:c9:c1:ff:14:95:95:c4:
         d2:ed:0b:62:a0:b6:2a:a8:6c:a0:49:38:bd:79:80:5f:94:16:
         86:12:72:92:1f:d7:d0:96:b4:45:bd:b3:eb:65:d1:e3:82:21:
         63:24:e0:f8:8a:af:da:10:1f:0a:0d:2f:1c:a1:eb:cf:de:c8:
         b2:b4:3d:9e:5c:37:bf:44:24:92:cf:19:95:e3:f4:1e:a2:e3:
         8c:4e:27:be:30:14:08:56:c0:c7:e6:62:ca:d7:f4:96:70:34:
         ae:3c:8c:c6:1c:ae:0b:78:c7:12:dc:f7:a8:2f:4f:7e:46:dd:
         cf:44
-----BEGIN CERTIFICATE-----
MIIDsjCCAxugAwIBAgIBLjANBgkqhkiG9w0BAQUFADCBhTELMAkGA1UEBhMCUlUx
EzARBgNVBAgTClNBTUFSU0tBWUExEjAQBgNVBAcTCVRPR0xJQVRUWTEVMBMGA1UE
ChMMTkVPVFJFSUQtTFREMRgwFgYDVQQDEw9ORU9UUkVJRC1MVEQgQ0ExHDAaBgkq
hkiG9w0BCQEWDW11eGFAbmVvNjMucnUwHhcNMTcwMTA0MDk1MjU3WhcNMjcwMTAy
MDk1MjU3WjB4MQswCQYDVQQGEwJSVTETMBEGA1UECBMKU0FNQVJTS0FZQTESMBAG
A1UEBxMJVE9HTElBVFRZMRUwEwYDVQQKEwxORU9UUkVJRC1MVEQxCzAJBgNVBAMT
AjNhMRwwGgYJKoZIhvcNAQkBFg1tdXhhQG5lbzYzLnJ1MIGfMA0GCSqGSIb3DQEB
AQUAA4GNADCBiQKBgQDXMqyUBtphd75Oysx/llZs3vniqQgxBHVDUM/b0GpxvBiB
FU2GAIvKg5NM/+9gXbvUiK2M4iReArMq3otaPKGLZt9JPq4Iz6qoG5vLkVmL+UKR
vdCCZngrdHqpI/KrZCxISSoLIB3ooIFYP3O6bZ80LvAqvlzIoBJoAnwfGeA+0wID
AQABo4IBPDCCATgwCQYDVR0TBAIwADAtBglghkgBhvhCAQ0EIBYeRWFzeS1SU0Eg
R2VuZXJhdGVkIENlcnRpZmljYXRlMB0GA1UdDgQWBBQeawg30paD07PN2DrdndiV
tVLt9TCBugYDVR0jBIGyMIGvgBT4rWvPBWr1AbeKb6KR0PPD4yti86GBi6SBiDCB
hTELMAkGA1UEBhMCUlUxEzARBgNVBAgTClNBTUFSU0tBWUExEjAQBgNVBAcTCVRP
R0xJQVRUWTEVMBMGA1UEChMMTkVPVFJFSUQtTFREMRgwFgYDVQQDEw9ORU9UUkVJ
RC1MVEQgQ0ExHDAaBgkqhkiG9w0BCQEWDW11eGFAbmVvNjMucnWCCQCjLiqorlIb
tzATBgNVHSUEDDAKBggrBgEFBQcDAjALBgNVHQ8EBAMCB4AwDQYJKoZIhvcNAQEF
BQADgYEAbN1oY8dxyj0h9HfJwf8UlZXE0u0LYqC2KqhsoEk4vXmAX5QWhhJykh/X
0Ja0Rb2z62XR44IhYyTg+Iqv2hAfCg0vHKHrz97IsrQ9nlw3v0Qkks8ZleP0HqLj
jE4nvjAUCFbAx+Ziytf0lnA0rjyMxhyuC3jHEtz3qC9Pfkbdz0Q=
-----END CERTIFICATE-----
