Certificate:
    Data:
        Version: 3 (0x2)
        Serial Number: 48 (0x30)
    Signature Algorithm: sha1WithRSAEncryption
        Issuer: C=RU, ST=SAMARSKAYA, L=TOGLIATTY, O=NEOTREID-LTD, CN=NEOTREID-LTD CA/emailAddress=muxa@neo63.ru
        Validity
            Not Before: Feb  3 06:59:42 2017 GMT
            Not After : Feb  1 06:59:42 2027 GMT
        Subject: C=RU, ST=SAMARSKAYA, L=TOGLIATTY, O=NEOTREID-LTD, CN=chumakov_imac/emailAddress=muxa@neo63.ru
        Subject Public Key Info:
            Public Key Algorithm: rsaEncryption
                Public-Key: (1024 bit)
                Modulus:
                    00:a5:96:84:2c:b6:cf:64:94:a1:bf:88:57:31:41:
                    c8:6e:eb:a5:a1:91:1d:c5:33:30:67:7a:75:10:ce:
                    65:c2:6e:fd:19:70:09:41:25:17:cc:0f:e5:c1:51:
                    b9:13:02:c7:f9:0f:3a:97:aa:01:92:fb:d6:3c:3b:
                    6c:1f:63:3c:23:1b:23:05:18:89:1d:74:4f:68:95:
                    5e:f3:c7:ef:aa:d4:a1:e9:5c:6d:f5:0c:46:3e:72:
                    e2:c7:1d:92:a2:0b:24:c8:a0:78:98:23:e3:5c:3d:
                    8d:72:dd:68:4a:f7:97:ad:94:80:17:47:8c:de:e5:
                    96:28:42:a0:c4:3b:57:d7:3f
                Exponent: 65537 (0x10001)
        X509v3 extensions:
            X509v3 Basic Constraints: 
                CA:FALSE
            Netscape Comment: 
                Easy-RSA Generated Certificate
            X509v3 Subject Key Identifier: 
                25:31:5C:46:AE:A6:42:42:38:03:20:48:B0:50:D1:83:62:A5:74:95
            X509v3 Authority Key Identifier: 
                keyid:F8:AD:6B:CF:05:6A:F5:01:B7:8A:6F:A2:91:D0:F3:C3:E3:2B:62:F3
                DirName:/C=RU/ST=SAMARSKAYA/L=TOGLIATTY/O=NEOTREID-LTD/CN=NEOTREID-LTD CA/emailAddress=muxa@neo63.ru
                serial:A3:2E:2A:A8:AE:52:1B:B7

            X509v3 Extended Key Usage: 
                TLS Web Client Authentication
            X509v3 Key Usage: 
                Digital Signature
    Signature Algorithm: sha1WithRSAEncryption
         89:a2:d1:fd:f0:b0:ea:79:ca:06:23:5a:6c:89:e5:a0:69:c3:
         2d:06:66:89:23:e4:09:15:36:0d:6d:8c:d4:d6:57:06:80:88:
         be:7d:9d:36:f4:35:03:06:26:9e:e6:46:d3:97:b8:5f:66:44:
         42:a9:18:8c:95:d4:63:c0:a9:b5:cb:d6:c6:ca:d3:e9:d6:47:
         f0:d3:65:8f:fd:28:f1:26:43:03:5a:82:e7:0a:b0:40:73:d3:
         4b:08:94:0b:23:cb:b0:6c:d1:0d:92:9d:dc:f0:1c:88:f7:a7:
         93:5b:e7:b1:e1:94:3d:7c:70:7c:fd:6c:be:35:87:2b:38:dc:
         16:7b
-----BEGIN CERTIFICATE-----
MIIDvjCCAyegAwIBAgIBMDANBgkqhkiG9w0BAQUFADCBhTELMAkGA1UEBhMCUlUx
EzARBgNVBAgTClNBTUFSU0tBWUExEjAQBgNVBAcTCVRPR0xJQVRUWTEVMBMGA1UE
ChMMTkVPVFJFSUQtTFREMRgwFgYDVQQDEw9ORU9UUkVJRC1MVEQgQ0ExHDAaBgkq
hkiG9w0BCQEWDW11eGFAbmVvNjMucnUwHhcNMTcwMjAzMDY1OTQyWhcNMjcwMjAx
MDY1OTQyWjCBgzELMAkGA1UEBhMCUlUxEzARBgNVBAgTClNBTUFSU0tBWUExEjAQ
BgNVBAcTCVRPR0xJQVRUWTEVMBMGA1UEChMMTkVPVFJFSUQtTFREMRYwFAYDVQQD
FA1jaHVtYWtvdl9pbWFjMRwwGgYJKoZIhvcNAQkBFg1tdXhhQG5lbzYzLnJ1MIGf
MA0GCSqGSIb3DQEBAQUAA4GNADCBiQKBgQClloQsts9klKG/iFcxQchu66WhkR3F
MzBnenUQzmXCbv0ZcAlBJRfMD+XBUbkTAsf5DzqXqgGS+9Y8O2wfYzwjGyMFGIkd
dE9olV7zx++q1KHpXG31DEY+cuLHHZKiCyTIoHiYI+NcPY1y3WhK95etlIAXR4ze
5ZYoQqDEO1fXPwIDAQABo4IBPDCCATgwCQYDVR0TBAIwADAtBglghkgBhvhCAQ0E
IBYeRWFzeS1SU0EgR2VuZXJhdGVkIENlcnRpZmljYXRlMB0GA1UdDgQWBBQlMVxG
rqZCQjgDIEiwUNGDYqV0lTCBugYDVR0jBIGyMIGvgBT4rWvPBWr1AbeKb6KR0PPD
4yti86GBi6SBiDCBhTELMAkGA1UEBhMCUlUxEzARBgNVBAgTClNBTUFSU0tBWUEx
EjAQBgNVBAcTCVRPR0xJQVRUWTEVMBMGA1UEChMMTkVPVFJFSUQtTFREMRgwFgYD
VQQDEw9ORU9UUkVJRC1MVEQgQ0ExHDAaBgkqhkiG9w0BCQEWDW11eGFAbmVvNjMu
cnWCCQCjLiqorlIbtzATBgNVHSUEDDAKBggrBgEFBQcDAjALBgNVHQ8EBAMCB4Aw
DQYJKoZIhvcNAQEFBQADgYEAiaLR/fCw6nnKBiNabInloGnDLQZmiSPkCRU2DW2M
1NZXBoCIvn2dNvQ1AwYmnuZG05e4X2ZEQqkYjJXUY8CptcvWxsrT6dZH8NNlj/0o
8SZDA1qC5wqwQHPTSwiUCyPLsGzRDZKd3PAciPenk1vnseGUPXxwfP1svjWHKzjc
Fns=
-----END CERTIFICATE-----
