Certificate:
    Data:
        Version: 3 (0x2)
        Serial Number: 51 (0x33)
    Signature Algorithm: sha1WithRSAEncryption
        Issuer: C=RU, ST=SAMARSKAYA, L=TOGLIATTY, O=NEOTREID-LTD, CN=NEOTREID-LTD CA/emailAddress=muxa@neo63.ru
        Validity
            Not Before: Mar 10 13:26:09 2017 GMT
            Not After : Mar  8 13:26:09 2027 GMT
        Subject: C=RU, ST=SAMARSKAYA, L=TOGLIATTY, O=NEOTREID-LTD, CN=p18_7/emailAddress=muxa@neo63.ru
        Subject Public Key Info:
            Public Key Algorithm: rsaEncryption
                Public-Key: (1024 bit)
                Modulus:
                    00:bd:1e:19:9a:fc:4a:33:e8:64:ce:29:37:71:b8:
                    11:3e:b1:79:a2:6b:80:a9:95:9a:3a:0a:cb:1f:94:
                    ff:11:b7:bb:b8:a7:18:7b:af:c3:94:1d:5f:42:bc:
                    db:a0:16:27:03:6a:62:af:69:69:7f:ce:b7:3d:5c:
                    b4:2b:7d:8d:c1:5b:fa:bc:81:40:07:95:9f:cf:dc:
                    44:52:7a:07:6a:26:d1:54:a1:ad:8a:c1:bf:0a:68:
                    91:7b:82:7d:12:70:44:a1:b8:84:98:95:ed:e9:98:
                    44:22:df:f8:e1:1a:3c:3d:f9:a2:45:e1:a1:25:99:
                    11:72:2f:0e:e5:06:af:4d:69
                Exponent: 65537 (0x10001)
        X509v3 extensions:
            X509v3 Basic Constraints: 
                CA:FALSE
            Netscape Comment: 
                Easy-RSA Generated Certificate
            X509v3 Subject Key Identifier: 
                7A:DB:4B:11:69:FC:6D:3E:8E:CA:26:02:B8:BB:7C:07:BF:A5:BA:59
            X509v3 Authority Key Identifier: 
                keyid:F8:AD:6B:CF:05:6A:F5:01:B7:8A:6F:A2:91:D0:F3:C3:E3:2B:62:F3
                DirName:/C=RU/ST=SAMARSKAYA/L=TOGLIATTY/O=NEOTREID-LTD/CN=NEOTREID-LTD CA/emailAddress=muxa@neo63.ru
                serial:A3:2E:2A:A8:AE:52:1B:B7

            X509v3 Extended Key Usage: 
                TLS Web Client Authentication
            X509v3 Key Usage: 
                Digital Signature
    Signature Algorithm: sha1WithRSAEncryption
         5f:0d:15:7a:84:7c:d6:f3:00:6e:32:23:f7:08:c0:36:a9:f9:
         b2:f9:da:a9:39:0a:7d:55:57:91:de:2f:1d:8c:59:14:e5:df:
         69:c1:96:36:a0:29:37:55:3f:cc:04:1a:f4:0e:b4:23:79:51:
         8b:f0:b0:95:46:a7:8d:28:56:14:49:d2:32:7b:d0:82:51:a8:
         10:57:85:d1:9f:54:95:9f:2d:76:8f:65:1b:13:69:49:8b:a0:
         3f:13:8a:e4:33:b0:9b:b1:1d:d4:8d:29:50:e4:1a:fb:ae:7d:
         56:fd:45:4f:21:81:5d:65:47:49:98:8d:84:8e:96:18:6b:08:
         47:84
-----BEGIN CERTIFICATE-----
MIIDtTCCAx6gAwIBAgIBMzANBgkqhkiG9w0BAQUFADCBhTELMAkGA1UEBhMCUlUx
EzARBgNVBAgTClNBTUFSU0tBWUExEjAQBgNVBAcTCVRPR0xJQVRUWTEVMBMGA1UE
ChMMTkVPVFJFSUQtTFREMRgwFgYDVQQDEw9ORU9UUkVJRC1MVEQgQ0ExHDAaBgkq
hkiG9w0BCQEWDW11eGFAbmVvNjMucnUwHhcNMTcwMzEwMTMyNjA5WhcNMjcwMzA4
MTMyNjA5WjB7MQswCQYDVQQGEwJSVTETMBEGA1UECBMKU0FNQVJTS0FZQTESMBAG
A1UEBxMJVE9HTElBVFRZMRUwEwYDVQQKEwxORU9UUkVJRC1MVEQxDjAMBgNVBAMU
BXAxOF83MRwwGgYJKoZIhvcNAQkBFg1tdXhhQG5lbzYzLnJ1MIGfMA0GCSqGSIb3
DQEBAQUAA4GNADCBiQKBgQC9Hhma/Eoz6GTOKTdxuBE+sXmia4CplZo6CssflP8R
t7u4pxh7r8OUHV9CvNugFicDamKvaWl/zrc9XLQrfY3BW/q8gUAHlZ/P3ERSegdq
JtFUoa2Kwb8KaJF7gn0ScEShuISYle3pmEQi3/jhGjw9+aJF4aElmRFyLw7lBq9N
aQIDAQABo4IBPDCCATgwCQYDVR0TBAIwADAtBglghkgBhvhCAQ0EIBYeRWFzeS1S
U0EgR2VuZXJhdGVkIENlcnRpZmljYXRlMB0GA1UdDgQWBBR620sRafxtPo7KJgK4
u3wHv6W6WTCBugYDVR0jBIGyMIGvgBT4rWvPBWr1AbeKb6KR0PPD4yti86GBi6SB
iDCBhTELMAkGA1UEBhMCUlUxEzARBgNVBAgTClNBTUFSU0tBWUExEjAQBgNVBAcT
CVRPR0xJQVRUWTEVMBMGA1UEChMMTkVPVFJFSUQtTFREMRgwFgYDVQQDEw9ORU9U
UkVJRC1MVEQgQ0ExHDAaBgkqhkiG9w0BCQEWDW11eGFAbmVvNjMucnWCCQCjLiqo
rlIbtzATBgNVHSUEDDAKBggrBgEFBQcDAjALBgNVHQ8EBAMCB4AwDQYJKoZIhvcN
AQEFBQADgYEAXw0VeoR81vMAbjIj9wjANqn5svnaqTkKfVVXkd4vHYxZFOXfacGW
NqApN1U/zAQa9A60I3lRi/CwlUanjShWFEnSMnvQglGoEFeF0Z9UlZ8tdo9lGxNp
SYugPxOK5DOwm7Ed1I0pUOQa+659Vv1FTyGBXWVHSZiNhI6WGGsIR4Q=
-----END CERTIFICATE-----
