Certificate:
    Data:
        Version: 3 (0x2)
        Serial Number: 54 (0x36)
    Signature Algorithm: sha1WithRSAEncryption
        Issuer: C=RU, ST=SAMARSKAYA, L=TOGLIATTY, O=NEOTREID-LTD, CN=NEOTREID-LTD CA/emailAddress=muxa@neo63.ru
        Validity
            Not Before: Apr 25 11:38:11 2017 GMT
            Not After : Apr 23 11:38:11 2027 GMT
        Subject: C=RU, ST=SAMARSKAYA, L=TOGLIATTY, O=NEOTREID-LTD, CN=zhigulevsk_sam3/emailAddress=muxa@neo63.ru
        Subject Public Key Info:
            Public Key Algorithm: rsaEncryption
                Public-Key: (1024 bit)
                Modulus:
                    00:a9:cf:9b:a5:e3:13:e6:4b:60:26:f9:6e:8f:ea:
                    f5:a0:6d:c5:4b:fd:d2:9d:02:7d:c9:8f:73:dc:44:
                    31:74:35:20:0d:d1:2b:f4:b1:56:9c:f0:64:5a:9b:
                    8d:6e:cd:6d:98:5b:89:b7:ac:f4:e7:24:d3:b2:46:
                    0c:74:f9:01:b5:e5:44:59:29:c6:55:0a:d7:1b:d1:
                    b6:40:c8:69:a8:0f:bb:4f:1d:ee:29:9c:9f:64:30:
                    f2:98:10:eb:05:53:33:83:a6:eb:d5:49:fa:94:ec:
                    5f:32:73:af:3a:e7:ae:be:03:4d:65:90:00:15:e9:
                    6b:27:ce:e3:d2:88:d2:2b:b3
                Exponent: 65537 (0x10001)
        X509v3 extensions:
            X509v3 Basic Constraints: 
                CA:FALSE
            Netscape Comment: 
                Easy-RSA Generated Certificate
            X509v3 Subject Key Identifier: 
                D1:F6:3A:ED:A7:CC:41:4A:73:8C:3A:A0:54:1D:CF:98:3C:68:88:2E
            X509v3 Authority Key Identifier: 
                keyid:F8:AD:6B:CF:05:6A:F5:01:B7:8A:6F:A2:91:D0:F3:C3:E3:2B:62:F3
                DirName:/C=RU/ST=SAMARSKAYA/L=TOGLIATTY/O=NEOTREID-LTD/CN=NEOTREID-LTD CA/emailAddress=muxa@neo63.ru
                serial:A3:2E:2A:A8:AE:52:1B:B7

            X509v3 Extended Key Usage: 
                TLS Web Client Authentication
            X509v3 Key Usage: 
                Digital Signature
    Signature Algorithm: sha1WithRSAEncryption
         9c:c4:78:f0:e1:cf:06:34:88:0a:9f:4b:ab:91:25:7c:c1:a0:
         9b:d4:8c:16:f1:d2:db:3f:bc:e4:25:7e:04:b5:af:1f:7c:92:
         1e:a0:fc:e0:8f:95:4d:96:01:f4:82:5d:2c:0c:c1:2d:01:0c:
         3b:39:04:5e:3e:83:1d:d6:70:48:6b:55:26:70:e1:c5:0c:d1:
         82:f8:70:f8:da:ee:38:15:36:ed:cf:e2:8e:e7:4e:75:87:5a:
         61:28:24:d8:ae:cc:cc:77:bf:b6:bc:cc:65:6b:11:db:95:81:
         f0:00:cf:38:ad:43:ed:97:ce:cb:95:e3:98:53:9c:3a:5f:79:
         fa:da
-----BEGIN CERTIFICATE-----
MIIDwDCCAymgAwIBAgIBNjANBgkqhkiG9w0BAQUFADCBhTELMAkGA1UEBhMCUlUx
EzARBgNVBAgTClNBTUFSU0tBWUExEjAQBgNVBAcTCVRPR0xJQVRUWTEVMBMGA1UE
ChMMTkVPVFJFSUQtTFREMRgwFgYDVQQDEw9ORU9UUkVJRC1MVEQgQ0ExHDAaBgkq
hkiG9w0BCQEWDW11eGFAbmVvNjMucnUwHhcNMTcwNDI1MTEzODExWhcNMjcwNDIz
MTEzODExWjCBhTELMAkGA1UEBhMCUlUxEzARBgNVBAgTClNBTUFSU0tBWUExEjAQ
BgNVBAcTCVRPR0xJQVRUWTEVMBMGA1UEChMMTkVPVFJFSUQtTFREMRgwFgYDVQQD
FA96aGlndWxldnNrX3NhbTMxHDAaBgkqhkiG9w0BCQEWDW11eGFAbmVvNjMucnUw
gZ8wDQYJKoZIhvcNAQEBBQADgY0AMIGJAoGBAKnPm6XjE+ZLYCb5bo/q9aBtxUv9
0p0CfcmPc9xEMXQ1IA3RK/SxVpzwZFqbjW7NbZhbibes9Ock07JGDHT5AbXlRFkp
xlUK1xvRtkDIaagPu08d7imcn2Qw8pgQ6wVTM4Om69VJ+pTsXzJzrzrnrr4DTWWQ
ABXpayfO49KI0iuzAgMBAAGjggE8MIIBODAJBgNVHRMEAjAAMC0GCWCGSAGG+EIB
DQQgFh5FYXN5LVJTQSBHZW5lcmF0ZWQgQ2VydGlmaWNhdGUwHQYDVR0OBBYEFNH2
Ou2nzEFKc4w6oFQdz5g8aIguMIG6BgNVHSMEgbIwga+AFPita88FavUBt4pvopHQ
88PjK2LzoYGLpIGIMIGFMQswCQYDVQQGEwJSVTETMBEGA1UECBMKU0FNQVJTS0FZ
QTESMBAGA1UEBxMJVE9HTElBVFRZMRUwEwYDVQQKEwxORU9UUkVJRC1MVEQxGDAW
BgNVBAMTD05FT1RSRUlELUxURCBDQTEcMBoGCSqGSIb3DQEJARYNbXV4YUBuZW82
My5ydYIJAKMuKqiuUhu3MBMGA1UdJQQMMAoGCCsGAQUFBwMCMAsGA1UdDwQEAwIH
gDANBgkqhkiG9w0BAQUFAAOBgQCcxHjw4c8GNIgKn0urkSV8waCb1IwW8dLbP7zk
JX4Eta8ffJIeoPzgj5VNlgH0gl0sDMEtAQw7OQRePoMd1nBIa1UmcOHFDNGC+HD4
2u44FTbtz+KO5051h1phKCTYrszMd7+2vMxlaxHblYHwAM84rUPtl87LleOYU5w6
X3n62g==
-----END CERTIFICATE-----
