Certificate:
    Data:
        Version: 3 (0x2)
        Serial Number: 59 (0x3b)
    Signature Algorithm: sha1WithRSAEncryption
        Issuer: C=RU, ST=SAMARSKAYA, L=TOGLIATTY, O=NEOTREID-LTD, CN=NEOTREID-LTD CA/emailAddress=muxa@neo63.ru
        Validity
            Not Before: Jun  2 11:57:21 2017 GMT
            Not After : May 31 11:57:21 2027 GMT
        Subject: C=RU, ST=SAMARSKAYA, L=TOGLIATTY, O=NEOTREID-LTD, CN=visokovoltnaya/emailAddress=muxa@neo63.ru
        Subject Public Key Info:
            Public Key Algorithm: rsaEncryption
                Public-Key: (1024 bit)
                Modulus:
                    00:b0:f9:88:9e:ff:e8:06:82:5a:54:4a:c2:86:5e:
                    49:44:37:1e:f3:3a:63:15:91:cc:7e:df:79:3a:67:
                    c6:f0:e7:ec:67:18:0a:57:f5:73:51:a0:c5:20:ff:
                    90:3d:fd:a4:98:40:d5:7f:6a:a4:84:71:7e:f8:7b:
                    47:a8:5f:5c:96:6e:7c:07:f9:04:96:52:32:6a:15:
                    9e:aa:bc:82:e1:eb:ec:de:3d:5d:df:a6:0c:d6:78:
                    5b:64:9c:c8:bd:70:59:87:12:ab:49:19:0e:4f:ee:
                    16:9c:fa:cd:17:7d:5a:83:ab:e3:2c:f0:2c:59:8e:
                    8c:03:1a:ce:2b:47:04:b5:35
                Exponent: 65537 (0x10001)
        X509v3 extensions:
            X509v3 Basic Constraints: 
                CA:FALSE
            Netscape Comment: 
                Easy-RSA Generated Certificate
            X509v3 Subject Key Identifier: 
                80:2C:75:C8:60:6D:50:3A:FF:E8:BD:2C:9A:24:C2:E4:A9:87:9E:C2
            X509v3 Authority Key Identifier: 
                keyid:F8:AD:6B:CF:05:6A:F5:01:B7:8A:6F:A2:91:D0:F3:C3:E3:2B:62:F3
                DirName:/C=RU/ST=SAMARSKAYA/L=TOGLIATTY/O=NEOTREID-LTD/CN=NEOTREID-LTD CA/emailAddress=muxa@neo63.ru
                serial:A3:2E:2A:A8:AE:52:1B:B7

            X509v3 Extended Key Usage: 
                TLS Web Client Authentication
            X509v3 Key Usage: 
                Digital Signature
    Signature Algorithm: sha1WithRSAEncryption
         48:88:ff:53:7f:13:b6:4b:5b:09:02:4a:fc:4f:b0:77:a7:7a:
         7d:84:87:e0:cb:e8:01:c1:84:f5:3a:e0:df:ea:b6:fd:21:3c:
         99:62:c5:e9:11:67:b1:ba:ab:c0:03:de:80:f4:0b:bf:92:ae:
         56:d6:87:2f:65:3b:2d:4f:ec:0f:05:82:4f:ad:b7:16:2b:02:
         58:e7:73:b2:d8:a0:15:ef:8e:bc:a0:af:de:d0:75:e1:24:34:
         2a:8a:c8:45:37:9d:bf:83:f7:fe:b2:9d:73:3c:26:9f:b2:86:
         88:71:f4:25:8b:45:a9:d3:5d:cc:08:16:d9:5e:46:6b:29:a3:
         5e:26
-----BEGIN CERTIFICATE-----
MIIDvzCCAyigAwIBAgIBOzANBgkqhkiG9w0BAQUFADCBhTELMAkGA1UEBhMCUlUx
EzARBgNVBAgTClNBTUFSU0tBWUExEjAQBgNVBAcTCVRPR0xJQVRUWTEVMBMGA1UE
ChMMTkVPVFJFSUQtTFREMRgwFgYDVQQDEw9ORU9UUkVJRC1MVEQgQ0ExHDAaBgkq
hkiG9w0BCQEWDW11eGFAbmVvNjMucnUwHhcNMTcwNjAyMTE1NzIxWhcNMjcwNTMx
MTE1NzIxWjCBhDELMAkGA1UEBhMCUlUxEzARBgNVBAgTClNBTUFSU0tBWUExEjAQ
BgNVBAcTCVRPR0xJQVRUWTEVMBMGA1UEChMMTkVPVFJFSUQtTFREMRcwFQYDVQQD
Ew52aXNva292b2x0bmF5YTEcMBoGCSqGSIb3DQEJARYNbXV4YUBuZW82My5ydTCB
nzANBgkqhkiG9w0BAQEFAAOBjQAwgYkCgYEAsPmInv/oBoJaVErChl5JRDce8zpj
FZHMft95OmfG8OfsZxgKV/VzUaDFIP+QPf2kmEDVf2qkhHF++HtHqF9clm58B/kE
llIyahWeqryC4evs3j1d36YM1nhbZJzIvXBZhxKrSRkOT+4WnPrNF31ag6vjLPAs
WY6MAxrOK0cEtTUCAwEAAaOCATwwggE4MAkGA1UdEwQCMAAwLQYJYIZIAYb4QgEN
BCAWHkVhc3ktUlNBIEdlbmVyYXRlZCBDZXJ0aWZpY2F0ZTAdBgNVHQ4EFgQUgCx1
yGBtUDr/6L0smiTC5KmHnsIwgboGA1UdIwSBsjCBr4AU+K1rzwVq9QG3im+ikdDz
w+MrYvOhgYukgYgwgYUxCzAJBgNVBAYTAlJVMRMwEQYDVQQIEwpTQU1BUlNLQVlB
MRIwEAYDVQQHEwlUT0dMSUFUVFkxFTATBgNVBAoTDE5FT1RSRUlELUxURDEYMBYG
A1UEAxMPTkVPVFJFSUQtTFREIENBMRwwGgYJKoZIhvcNAQkBFg1tdXhhQG5lbzYz
LnJ1ggkAoy4qqK5SG7cwEwYDVR0lBAwwCgYIKwYBBQUHAwIwCwYDVR0PBAQDAgeA
MA0GCSqGSIb3DQEBBQUAA4GBAEiI/1N/E7ZLWwkCSvxPsHenen2Eh+DL6AHBhPU6
4N/qtv0hPJlixekRZ7G6q8AD3oD0C7+SrlbWhy9lOy1P7A8Fgk+ttxYrAljnc7LY
oBXvjrygr97QdeEkNCqKyEU3nb+D9/6ynXM8Jp+yhohx9CWLRanTXcwIFtleRmsp
o14m
-----END CERTIFICATE-----
