Certificate:
    Data:
        Version: 3 (0x2)
        Serial Number: 61 (0x3d)
    Signature Algorithm: sha1WithRSAEncryption
        Issuer: C=RU, ST=SAMARSKAYA, L=TOGLIATTY, O=NEOTREID-LTD, CN=NEOTREID-LTD CA/emailAddress=muxa@neo63.ru
        Validity
            Not Before: Jul  3 12:36:29 2017 GMT
            Not After : Jul  1 12:36:29 2027 GMT
        Subject: C=RU, ST=SAMARSKAYA, L=TOGLIATTY, O=NEOTREID-LTD, CN=evgen_transport/emailAddress=muxa@neo63.ru
        Subject Public Key Info:
            Public Key Algorithm: rsaEncryption
                Public-Key: (1024 bit)
                Modulus:
                    00:de:27:74:55:43:da:7b:e3:88:23:87:0f:c6:49:
                    45:09:11:e7:4a:80:f8:d2:3a:c0:f3:42:f1:de:ef:
                    d1:64:60:d3:8c:45:6f:a8:82:b2:60:c4:cf:fa:42:
                    8a:12:bb:bb:64:97:eb:16:76:81:58:5e:9e:8f:df:
                    f4:0e:44:f7:1a:b6:25:01:18:3a:7b:63:76:06:0a:
                    52:ac:7d:91:bc:9c:92:68:55:eb:52:fa:d0:4f:ab:
                    99:82:99:20:c6:c0:2e:21:94:04:10:8c:47:38:15:
                    ae:d3:61:f8:6e:c1:15:49:5c:d1:67:83:8f:cf:58:
                    95:67:a3:12:d3:fb:bf:b8:bd
                Exponent: 65537 (0x10001)
        X509v3 extensions:
            X509v3 Basic Constraints: 
                CA:FALSE
            Netscape Comment: 
                Easy-RSA Generated Certificate
            X509v3 Subject Key Identifier: 
                4A:09:0A:0A:E9:1C:1B:E5:1B:E8:B3:19:E5:FF:1D:7F:53:8B:BC:53
            X509v3 Authority Key Identifier: 
                keyid:F8:AD:6B:CF:05:6A:F5:01:B7:8A:6F:A2:91:D0:F3:C3:E3:2B:62:F3
                DirName:/C=RU/ST=SAMARSKAYA/L=TOGLIATTY/O=NEOTREID-LTD/CN=NEOTREID-LTD CA/emailAddress=muxa@neo63.ru
                serial:A3:2E:2A:A8:AE:52:1B:B7

            X509v3 Extended Key Usage: 
                TLS Web Client Authentication
            X509v3 Key Usage: 
                Digital Signature
    Signature Algorithm: sha1WithRSAEncryption
         02:13:54:36:bc:fa:2c:21:74:d8:70:be:61:03:b0:c7:81:73:
         a6:88:4c:ec:8c:99:58:0c:2a:fb:e4:0e:4a:44:fe:d6:dd:93:
         f1:3a:e9:cd:d2:c6:d0:96:39:8f:45:fc:2e:84:d3:9e:32:d2:
         2c:9f:18:23:fc:aa:10:7a:18:e1:0b:f0:44:af:f8:ea:7f:24:
         7d:7b:a5:90:c7:fc:c7:31:01:e3:91:66:1f:25:76:b0:fe:3f:
         98:92:32:10:9e:ba:88:2d:72:89:6f:a1:8d:90:e8:a6:52:90:
         6a:6d:5c:b5:b9:74:52:24:3f:f6:ec:d2:45:e7:24:e8:62:99:
         64:ab
-----BEGIN CERTIFICATE-----
MIIDwDCCAymgAwIBAgIBPTANBgkqhkiG9w0BAQUFADCBhTELMAkGA1UEBhMCUlUx
EzARBgNVBAgTClNBTUFSU0tBWUExEjAQBgNVBAcTCVRPR0xJQVRUWTEVMBMGA1UE
ChMMTkVPVFJFSUQtTFREMRgwFgYDVQQDEw9ORU9UUkVJRC1MVEQgQ0ExHDAaBgkq
hkiG9w0BCQEWDW11eGFAbmVvNjMucnUwHhcNMTcwNzAzMTIzNjI5WhcNMjcwNzAx
MTIzNjI5WjCBhTELMAkGA1UEBhMCUlUxEzARBgNVBAgTClNBTUFSU0tBWUExEjAQ
BgNVBAcTCVRPR0xJQVRUWTEVMBMGA1UEChMMTkVPVFJFSUQtTFREMRgwFgYDVQQD
FA9ldmdlbl90cmFuc3BvcnQxHDAaBgkqhkiG9w0BCQEWDW11eGFAbmVvNjMucnUw
gZ8wDQYJKoZIhvcNAQEBBQADgY0AMIGJAoGBAN4ndFVD2nvjiCOHD8ZJRQkR50qA
+NI6wPNC8d7v0WRg04xFb6iCsmDEz/pCihK7u2SX6xZ2gVheno/f9A5E9xq2JQEY
OntjdgYKUqx9kbyckmhV61L60E+rmYKZIMbALiGUBBCMRzgVrtNh+G7BFUlc0WeD
j89YlWejEtP7v7i9AgMBAAGjggE8MIIBODAJBgNVHRMEAjAAMC0GCWCGSAGG+EIB
DQQgFh5FYXN5LVJTQSBHZW5lcmF0ZWQgQ2VydGlmaWNhdGUwHQYDVR0OBBYEFEoJ
CgrpHBvlG+izGeX/HX9Ti7xTMIG6BgNVHSMEgbIwga+AFPita88FavUBt4pvopHQ
88PjK2LzoYGLpIGIMIGFMQswCQYDVQQGEwJSVTETMBEGA1UECBMKU0FNQVJTS0FZ
QTESMBAGA1UEBxMJVE9HTElBVFRZMRUwEwYDVQQKEwxORU9UUkVJRC1MVEQxGDAW
BgNVBAMTD05FT1RSRUlELUxURCBDQTEcMBoGCSqGSIb3DQEJARYNbXV4YUBuZW82
My5ydYIJAKMuKqiuUhu3MBMGA1UdJQQMMAoGCCsGAQUFBwMCMAsGA1UdDwQEAwIH
gDANBgkqhkiG9w0BAQUFAAOBgQACE1Q2vPosIXTYcL5hA7DHgXOmiEzsjJlYDCr7
5A5KRP7W3ZPxOunN0sbQljmPRfwuhNOeMtIsnxgj/KoQehjhC/BEr/jqfyR9e6WQ
x/zHMQHjkWYfJXaw/j+YkjIQnrqILXKJb6GNkOimUpBqbVy1uXRSJD/27NJF5yTo
Yplkqw==
-----END CERTIFICATE-----
