Certificate:
    Data:
        Version: 3 (0x2)
        Serial Number: 33 (0x21)
    Signature Algorithm: sha1WithRSAEncryption
        Issuer: C=RU, ST=SAMARSKAYA, L=TOGLIATTY, O=NEOTREID-LTD, CN=NEOTREID-LTD CA/emailAddress=muxa@neo63.ru
        Validity
            Not Before: Aug 17 08:50:10 2016 GMT
            Not After : Aug 15 08:50:10 2026 GMT
        Subject: C=RU, ST=SAMARSKAYA, L=TOGLIATTY, O=NEOTREID-LTD, CN=50let2/emailAddress=muxa@neo63.ru
        Subject Public Key Info:
            Public Key Algorithm: rsaEncryption
                Public-Key: (1024 bit)
                Modulus:
                    00:ac:88:78:7d:3a:b3:ce:9c:eb:ea:bc:b5:98:e5:
                    4d:48:3a:19:ce:98:f9:ad:4c:44:47:3b:ed:47:03:
                    88:df:98:d2:6b:78:1b:cc:75:09:f3:46:fe:c2:bb:
                    3e:04:45:8b:33:ab:9a:be:b5:68:e8:30:1f:72:24:
                    e4:1b:c6:42:3d:0d:0a:d9:6b:d4:df:d4:e7:5e:99:
                    de:30:4f:f0:2a:d3:55:8d:52:6c:83:34:0d:ed:a2:
                    9c:8d:c3:20:10:9d:90:ad:98:53:1b:30:e8:bb:1b:
                    96:53:70:84:f4:5c:2c:6e:6a:ed:a5:b5:ef:3f:ad:
                    b9:e9:f8:e5:bf:7c:26:1d:f7
                Exponent: 65537 (0x10001)
        X509v3 extensions:
            X509v3 Basic Constraints: 
                CA:FALSE
            Netscape Comment: 
                Easy-RSA Generated Certificate
            X509v3 Subject Key Identifier: 
                81:A4:11:D7:53:4A:5C:62:A3:2A:8D:C8:C6:27:EE:B8:42:B4:31:1B
            X509v3 Authority Key Identifier: 
                keyid:F8:AD:6B:CF:05:6A:F5:01:B7:8A:6F:A2:91:D0:F3:C3:E3:2B:62:F3
                DirName:/C=RU/ST=SAMARSKAYA/L=TOGLIATTY/O=NEOTREID-LTD/CN=NEOTREID-LTD CA/emailAddress=muxa@neo63.ru
                serial:A3:2E:2A:A8:AE:52:1B:B7

            X509v3 Extended Key Usage: 
                TLS Web Client Authentication
            X509v3 Key Usage: 
                Digital Signature
    Signature Algorithm: sha1WithRSAEncryption
         56:19:cd:ac:6a:9b:18:01:0e:28:68:7d:fd:04:69:90:ec:1e:
         73:cd:f4:15:f1:59:5b:ba:9e:ca:28:59:92:ab:29:39:90:64:
         0f:47:62:d9:07:f8:4a:1b:60:d6:d5:67:03:69:aa:0f:61:9d:
         e2:48:e1:d4:e5:26:78:01:f6:a2:53:67:62:1f:33:f3:5c:4e:
         c1:8f:41:bf:92:47:ca:a0:c8:d3:fc:10:4f:56:06:c7:d9:18:
         2e:d0:5e:40:1c:1b:15:d4:e7:b5:e2:34:e7:54:11:47:73:2b:
         5b:73:a8:33:9e:31:68:ae:31:82:9a:57:59:73:ce:e0:9a:27:
         b9:54
-----BEGIN CERTIFICATE-----
MIIDtjCCAx+gAwIBAgIBITANBgkqhkiG9w0BAQUFADCBhTELMAkGA1UEBhMCUlUx
EzARBgNVBAgTClNBTUFSU0tBWUExEjAQBgNVBAcTCVRPR0xJQVRUWTEVMBMGA1UE
ChMMTkVPVFJFSUQtTFREMRgwFgYDVQQDEw9ORU9UUkVJRC1MVEQgQ0ExHDAaBgkq
hkiG9w0BCQEWDW11eGFAbmVvNjMucnUwHhcNMTYwODE3MDg1MDEwWhcNMjYwODE1
MDg1MDEwWjB8MQswCQYDVQQGEwJSVTETMBEGA1UECBMKU0FNQVJTS0FZQTESMBAG
A1UEBxMJVE9HTElBVFRZMRUwEwYDVQQKEwxORU9UUkVJRC1MVEQxDzANBgNVBAMT
BjUwbGV0MjEcMBoGCSqGSIb3DQEJARYNbXV4YUBuZW82My5ydTCBnzANBgkqhkiG
9w0BAQEFAAOBjQAwgYkCgYEArIh4fTqzzpzr6ry1mOVNSDoZzpj5rUxERzvtRwOI
35jSa3gbzHUJ80b+wrs+BEWLM6uavrVo6DAfciTkG8ZCPQ0K2WvU39TnXpneME/w
KtNVjVJsgzQN7aKcjcMgEJ2QrZhTGzDouxuWU3CE9FwsbmrtpbXvP6256fjlv3wm
HfcCAwEAAaOCATwwggE4MAkGA1UdEwQCMAAwLQYJYIZIAYb4QgENBCAWHkVhc3kt
UlNBIEdlbmVyYXRlZCBDZXJ0aWZpY2F0ZTAdBgNVHQ4EFgQUgaQR11NKXGKjKo3I
xifuuEK0MRswgboGA1UdIwSBsjCBr4AU+K1rzwVq9QG3im+ikdDzw+MrYvOhgYuk
gYgwgYUxCzAJBgNVBAYTAlJVMRMwEQYDVQQIEwpTQU1BUlNLQVlBMRIwEAYDVQQH
EwlUT0dMSUFUVFkxFTATBgNVBAoTDE5FT1RSRUlELUxURDEYMBYGA1UEAxMPTkVP
VFJFSUQtTFREIENBMRwwGgYJKoZIhvcNAQkBFg1tdXhhQG5lbzYzLnJ1ggkAoy4q
qK5SG7cwEwYDVR0lBAwwCgYIKwYBBQUHAwIwCwYDVR0PBAQDAgeAMA0GCSqGSIb3
DQEBBQUAA4GBAFYZzaxqmxgBDihoff0EaZDsHnPN9BXxWVu6nsooWZKrKTmQZA9H
YtkH+EobYNbVZwNpqg9hneJI4dTlJngB9qJTZ2IfM/NcTsGPQb+SR8qgyNP8EE9W
BsfZGC7QXkAcGxXU57XiNOdUEUdzK1tzqDOeMWiuMYKaV1lzzuCaJ7lU
-----END CERTIFICATE-----
