Certificate:
    Data:
        Version: 3 (0x2)
        Serial Number: 50 (0x32)
    Signature Algorithm: sha1WithRSAEncryption
        Issuer: C=RU, ST=SAMARSKAYA, L=TOGLIATTY, O=NEOTREID-LTD, CN=NEOTREID-LTD CA/emailAddress=muxa@neo63.ru
        Validity
            Not Before: Feb 28 11:15:15 2017 GMT
            Not After : Feb 26 11:15:15 2027 GMT
        Subject: C=RU, ST=SAMARSKAYA, L=TOGLIATTY, O=NEOTREID-LTD, CN=novozhenin/emailAddress=muxa@neo63.ru
        Subject Public Key Info:
            Public Key Algorithm: rsaEncryption
                Public-Key: (1024 bit)
                Modulus:
                    00:bf:22:b2:9e:58:62:8c:1d:0d:50:3e:a5:67:31:
                    58:35:c5:c8:6d:34:6a:53:8e:08:3e:87:fc:2c:24:
                    55:88:04:22:f8:d6:a0:0b:b7:31:38:da:12:03:8c:
                    01:1e:f2:e5:e6:62:33:52:51:37:c4:5b:29:c2:e2:
                    b1:eb:fb:96:5e:7f:2e:d9:5b:6f:9d:2f:78:ab:13:
                    04:9b:ee:86:50:bf:84:f1:21:9d:f7:8a:4e:bb:f9:
                    62:88:d4:ee:6f:2a:38:c3:0e:fe:b8:a2:6b:4b:4c:
                    00:6e:1c:79:9d:ee:1d:44:f1:dc:09:d8:0b:1c:46:
                    a6:8c:df:65:ca:48:18:33:c1
                Exponent: 65537 (0x10001)
        X509v3 extensions:
            X509v3 Basic Constraints: 
                CA:FALSE
            Netscape Comment: 
                Easy-RSA Generated Certificate
            X509v3 Subject Key Identifier: 
                51:3F:2A:A0:8D:C6:E5:32:01:53:EF:F6:26:15:0F:4C:F8:BB:CB:5F
            X509v3 Authority Key Identifier: 
                keyid:F8:AD:6B:CF:05:6A:F5:01:B7:8A:6F:A2:91:D0:F3:C3:E3:2B:62:F3
                DirName:/C=RU/ST=SAMARSKAYA/L=TOGLIATTY/O=NEOTREID-LTD/CN=NEOTREID-LTD CA/emailAddress=muxa@neo63.ru
                serial:A3:2E:2A:A8:AE:52:1B:B7

            X509v3 Extended Key Usage: 
                TLS Web Client Authentication
            X509v3 Key Usage: 
                Digital Signature
    Signature Algorithm: sha1WithRSAEncryption
         ba:40:78:a6:b8:82:87:77:6c:8d:8d:f2:86:38:37:09:02:f5:
         07:6d:95:16:bb:ae:33:73:13:4c:a0:89:0b:bb:cc:ab:fb:2e:
         c5:e0:b2:5d:26:2e:8e:81:41:68:09:3d:19:71:ea:85:0d:4b:
         bb:5c:6f:9d:3b:17:ba:34:00:e9:51:d0:3a:57:a5:d9:5c:2c:
         d4:af:a4:80:91:a2:c5:5c:a2:10:63:f3:07:c8:40:b7:05:d0:
         5c:2c:63:54:0d:3d:75:1d:e1:4b:d9:d7:c9:57:37:21:ae:7a:
         86:c5:ae:f8:38:6f:a0:92:39:12:b5:77:d7:25:d5:43:39:ef:
         53:3f
-----BEGIN CERTIFICATE-----
MIIDuzCCAySgAwIBAgIBMjANBgkqhkiG9w0BAQUFADCBhTELMAkGA1UEBhMCUlUx
EzARBgNVBAgTClNBTUFSU0tBWUExEjAQBgNVBAcTCVRPR0xJQVRUWTEVMBMGA1UE
ChMMTkVPVFJFSUQtTFREMRgwFgYDVQQDEw9ORU9UUkVJRC1MVEQgQ0ExHDAaBgkq
hkiG9w0BCQEWDW11eGFAbmVvNjMucnUwHhcNMTcwMjI4MTExNTE1WhcNMjcwMjI2
MTExNTE1WjCBgDELMAkGA1UEBhMCUlUxEzARBgNVBAgTClNBTUFSU0tBWUExEjAQ
BgNVBAcTCVRPR0xJQVRUWTEVMBMGA1UEChMMTkVPVFJFSUQtTFREMRMwEQYDVQQD
Ewpub3ZvemhlbmluMRwwGgYJKoZIhvcNAQkBFg1tdXhhQG5lbzYzLnJ1MIGfMA0G
CSqGSIb3DQEBAQUAA4GNADCBiQKBgQC/IrKeWGKMHQ1QPqVnMVg1xchtNGpTjgg+
h/wsJFWIBCL41qALtzE42hIDjAEe8uXmYjNSUTfEWynC4rHr+5Zefy7ZW2+dL3ir
EwSb7oZQv4TxIZ33ik67+WKI1O5vKjjDDv64omtLTABuHHmd7h1E8dwJ2AscRqaM
32XKSBgzwQIDAQABo4IBPDCCATgwCQYDVR0TBAIwADAtBglghkgBhvhCAQ0EIBYe
RWFzeS1SU0EgR2VuZXJhdGVkIENlcnRpZmljYXRlMB0GA1UdDgQWBBRRPyqgjcbl
MgFT7/YmFQ9M+LvLXzCBugYDVR0jBIGyMIGvgBT4rWvPBWr1AbeKb6KR0PPD4yti
86GBi6SBiDCBhTELMAkGA1UEBhMCUlUxEzARBgNVBAgTClNBTUFSU0tBWUExEjAQ
BgNVBAcTCVRPR0xJQVRUWTEVMBMGA1UEChMMTkVPVFJFSUQtTFREMRgwFgYDVQQD
Ew9ORU9UUkVJRC1MVEQgQ0ExHDAaBgkqhkiG9w0BCQEWDW11eGFAbmVvNjMucnWC
CQCjLiqorlIbtzATBgNVHSUEDDAKBggrBgEFBQcDAjALBgNVHQ8EBAMCB4AwDQYJ
KoZIhvcNAQEFBQADgYEAukB4priCh3dsjY3yhjg3CQL1B22VFruuM3MTTKCJC7vM
q/suxeCyXSYujoFBaAk9GXHqhQ1Lu1xvnTsXujQA6VHQOlel2Vws1K+kgJGixVyi
EGPzB8hAtwXQXCxjVA09dR3hS9nXyVc3Ia56hsWu+DhvoJI5ErV31yXVQznvUz8=
-----END CERTIFICATE-----
