Certificate:
    Data:
        Version: 3 (0x2)
        Serial Number: 36 (0x24)
    Signature Algorithm: sha1WithRSAEncryption
        Issuer: C=RU, ST=SAMARSKAYA, L=TOGLIATTY, O=NEOTREID-LTD, CN=NEOTREID-LTD CA/emailAddress=muxa@neo63.ru
        Validity
            Not Before: Sep 20 07:22:32 2016 GMT
            Not After : Sep 18 07:22:32 2026 GMT
        Subject: C=RU, ST=SAMARSKAYA, L=TOGLIATTY, O=NEOTREID-LTD, CN=p10_6/emailAddress=muxa@neo63.ru
        Subject Public Key Info:
            Public Key Algorithm: rsaEncryption
                Public-Key: (1024 bit)
                Modulus:
                    00:c0:56:93:3c:15:58:f9:5d:36:57:8d:27:1e:e6:
                    f1:0c:dd:a4:79:b2:90:3c:04:d6:4b:31:63:8e:91:
                    a8:56:80:d8:e8:b3:6a:9c:7f:2c:ac:1a:a0:3a:b2:
                    dc:d4:35:43:a5:9e:1a:62:95:25:cd:1d:4c:0c:35:
                    f5:71:a7:82:53:7d:de:68:0c:e7:22:b4:bc:04:8e:
                    aa:a7:44:ff:60:da:79:a6:45:39:cb:6c:32:97:02:
                    bd:9b:4a:8a:5f:e9:86:ea:09:8b:15:b8:59:af:47:
                    c6:e8:a4:de:99:96:b9:cd:1e:41:91:58:a3:ff:26:
                    85:fb:e9:af:3a:7f:0a:29:e3
                Exponent: 65537 (0x10001)
        X509v3 extensions:
            X509v3 Basic Constraints: 
                CA:FALSE
            Netscape Comment: 
                Easy-RSA Generated Certificate
            X509v3 Subject Key Identifier: 
                B0:6B:92:A0:EC:42:B5:F9:A0:21:86:18:49:A7:64:17:15:4F:65:88
            X509v3 Authority Key Identifier: 
                keyid:F8:AD:6B:CF:05:6A:F5:01:B7:8A:6F:A2:91:D0:F3:C3:E3:2B:62:F3
                DirName:/C=RU/ST=SAMARSKAYA/L=TOGLIATTY/O=NEOTREID-LTD/CN=NEOTREID-LTD CA/emailAddress=muxa@neo63.ru
                serial:A3:2E:2A:A8:AE:52:1B:B7

            X509v3 Extended Key Usage: 
                TLS Web Client Authentication
            X509v3 Key Usage: 
                Digital Signature
    Signature Algorithm: sha1WithRSAEncryption
         72:ed:ee:27:ff:75:5b:48:dc:65:36:cc:a2:66:61:2e:9b:86:
         f0:ee:64:77:8f:d9:b6:27:33:7d:cd:de:bd:10:e0:24:7a:e5:
         99:39:33:23:6d:37:92:ab:59:f1:3f:b2:f8:ca:ce:17:44:73:
         3e:f9:41:7d:e0:8b:0f:e8:cc:bf:87:86:4d:37:5e:e5:ab:6a:
         f3:a6:e7:ad:13:a0:78:f0:a2:dc:dd:27:eb:24:db:09:54:f8:
         68:10:cb:37:f6:7c:9c:16:54:69:70:81:af:1f:40:63:f1:70:
         b1:6d:58:c7:e5:df:f4:d3:8d:da:97:70:d9:20:2b:62:9f:e3:
         46:70
-----BEGIN CERTIFICATE-----
MIIDtTCCAx6gAwIBAgIBJDANBgkqhkiG9w0BAQUFADCBhTELMAkGA1UEBhMCUlUx
EzARBgNVBAgTClNBTUFSU0tBWUExEjAQBgNVBAcTCVRPR0xJQVRUWTEVMBMGA1UE
ChMMTkVPVFJFSUQtTFREMRgwFgYDVQQDEw9ORU9UUkVJRC1MVEQgQ0ExHDAaBgkq
hkiG9w0BCQEWDW11eGFAbmVvNjMucnUwHhcNMTYwOTIwMDcyMjMyWhcNMjYwOTE4
MDcyMjMyWjB7MQswCQYDVQQGEwJSVTETMBEGA1UECBMKU0FNQVJTS0FZQTESMBAG
A1UEBxMJVE9HTElBVFRZMRUwEwYDVQQKEwxORU9UUkVJRC1MVEQxDjAMBgNVBAMU
BXAxMF82MRwwGgYJKoZIhvcNAQkBFg1tdXhhQG5lbzYzLnJ1MIGfMA0GCSqGSIb3
DQEBAQUAA4GNADCBiQKBgQDAVpM8FVj5XTZXjSce5vEM3aR5spA8BNZLMWOOkahW
gNjos2qcfyysGqA6stzUNUOlnhpilSXNHUwMNfVxp4JTfd5oDOcitLwEjqqnRP9g
2nmmRTnLbDKXAr2bSopf6YbqCYsVuFmvR8bopN6ZlrnNHkGRWKP/JoX76a86fwop
4wIDAQABo4IBPDCCATgwCQYDVR0TBAIwADAtBglghkgBhvhCAQ0EIBYeRWFzeS1S
U0EgR2VuZXJhdGVkIENlcnRpZmljYXRlMB0GA1UdDgQWBBSwa5Kg7EK1+aAhhhhJ
p2QXFU9liDCBugYDVR0jBIGyMIGvgBT4rWvPBWr1AbeKb6KR0PPD4yti86GBi6SB
iDCBhTELMAkGA1UEBhMCUlUxEzARBgNVBAgTClNBTUFSU0tBWUExEjAQBgNVBAcT
CVRPR0xJQVRUWTEVMBMGA1UEChMMTkVPVFJFSUQtTFREMRgwFgYDVQQDEw9ORU9U
UkVJRC1MVEQgQ0ExHDAaBgkqhkiG9w0BCQEWDW11eGFAbmVvNjMucnWCCQCjLiqo
rlIbtzATBgNVHSUEDDAKBggrBgEFBQcDAjALBgNVHQ8EBAMCB4AwDQYJKoZIhvcN
AQEFBQADgYEAcu3uJ/91W0jcZTbMomZhLpuG8O5kd4/Zticzfc3evRDgJHrlmTkz
I203kqtZ8T+y+MrOF0RzPvlBfeCLD+jMv4eGTTde5atq86bnrROgePCi3N0n6yTb
CVT4aBDLN/Z8nBZUaXCBrx9AY/FwsW1Yx+Xf9NON2pdw2SArYp/jRnA=
-----END CERTIFICATE-----
