Certificate:
    Data:
        Version: 3 (0x2)
        Serial Number: 39 (0x27)
    Signature Algorithm: sha1WithRSAEncryption
        Issuer: C=RU, ST=SAMARSKAYA, L=TOGLIATTY, O=NEOTREID-LTD, CN=NEOTREID-LTD CA/emailAddress=muxa@neo63.ru
        Validity
            Not Before: Nov  3 09:18:39 2016 GMT
            Not After : Nov  1 09:18:39 2026 GMT
        Subject: C=RU, ST=SAMARSKAYA, L=TOGLIATTY, O=NEOTREID-LTD, CN=p1_4/emailAddress=muxa@neo63.ru
        Subject Public Key Info:
            Public Key Algorithm: rsaEncryption
                Public-Key: (1024 bit)
                Modulus:
                    00:b5:c5:c9:42:92:a6:ed:f3:ef:74:93:1f:43:49:
                    ec:c9:09:e5:eb:a0:bf:54:c7:79:15:1d:97:9c:e6:
                    81:ae:18:52:4a:a7:5b:f2:70:cd:f2:52:61:53:08:
                    02:e1:29:9c:80:4b:4d:b7:87:4a:ed:a2:8c:07:70:
                    aa:08:16:bc:06:c6:69:e1:5c:25:de:ab:06:8e:c7:
                    61:4c:78:4e:47:72:b5:fb:37:5e:95:3c:11:87:1f:
                    78:e3:22:1b:2f:4a:1a:b8:a7:80:99:3e:f4:d4:c6:
                    be:e4:ea:38:4b:8c:2a:ce:77:5d:79:3e:01:6d:6f:
                    37:15:18:77:32:2e:38:ec:a7
                Exponent: 65537 (0x10001)
        X509v3 extensions:
            X509v3 Basic Constraints: 
                CA:FALSE
            Netscape Comment: 
                Easy-RSA Generated Certificate
            X509v3 Subject Key Identifier: 
                0A:10:6E:54:23:7F:A1:F2:85:04:0C:49:64:61:9C:F7:D7:9A:A3:C9
            X509v3 Authority Key Identifier: 
                keyid:F8:AD:6B:CF:05:6A:F5:01:B7:8A:6F:A2:91:D0:F3:C3:E3:2B:62:F3
                DirName:/C=RU/ST=SAMARSKAYA/L=TOGLIATTY/O=NEOTREID-LTD/CN=NEOTREID-LTD CA/emailAddress=muxa@neo63.ru
                serial:A3:2E:2A:A8:AE:52:1B:B7

            X509v3 Extended Key Usage: 
                TLS Web Client Authentication
            X509v3 Key Usage: 
                Digital Signature
    Signature Algorithm: sha1WithRSAEncryption
         25:43:12:9b:0e:0a:fa:ba:88:20:7f:3a:1f:8e:20:64:36:dd:
         ff:b5:45:f3:23:2b:5f:fe:e9:65:f8:ba:02:45:b9:7f:19:4d:
         80:2e:a6:27:18:8c:1d:d8:07:b3:0b:dc:7e:49:2d:d4:12:37:
         ed:8c:fc:af:50:7f:b3:22:ed:92:41:2a:f5:21:05:e8:08:f1:
         aa:41:28:89:28:ea:7b:6b:e4:aa:64:73:df:f9:c8:d0:77:f1:
         80:ca:4f:1f:47:62:fe:29:b8:83:6a:29:fa:d6:30:15:8c:f2:
         d7:9c:60:f3:18:93:1c:39:99:c8:bc:35:a3:ea:84:51:45:89:
         3f:77
-----BEGIN CERTIFICATE-----
MIIDtDCCAx2gAwIBAgIBJzANBgkqhkiG9w0BAQUFADCBhTELMAkGA1UEBhMCUlUx
EzARBgNVBAgTClNBTUFSU0tBWUExEjAQBgNVBAcTCVRPR0xJQVRUWTEVMBMGA1UE
ChMMTkVPVFJFSUQtTFREMRgwFgYDVQQDEw9ORU9UUkVJRC1MVEQgQ0ExHDAaBgkq
hkiG9w0BCQEWDW11eGFAbmVvNjMucnUwHhcNMTYxMTAzMDkxODM5WhcNMjYxMTAx
MDkxODM5WjB6MQswCQYDVQQGEwJSVTETMBEGA1UECBMKU0FNQVJTS0FZQTESMBAG
A1UEBxMJVE9HTElBVFRZMRUwEwYDVQQKEwxORU9UUkVJRC1MVEQxDTALBgNVBAMU
BHAxXzQxHDAaBgkqhkiG9w0BCQEWDW11eGFAbmVvNjMucnUwgZ8wDQYJKoZIhvcN
AQEBBQADgY0AMIGJAoGBALXFyUKSpu3z73STH0NJ7MkJ5eugv1THeRUdl5zmga4Y
UkqnW/JwzfJSYVMIAuEpnIBLTbeHSu2ijAdwqggWvAbGaeFcJd6rBo7HYUx4Tkdy
tfs3XpU8EYcfeOMiGy9KGringJk+9NTGvuTqOEuMKs53XXk+AW1vNxUYdzIuOOyn
AgMBAAGjggE8MIIBODAJBgNVHRMEAjAAMC0GCWCGSAGG+EIBDQQgFh5FYXN5LVJT
QSBHZW5lcmF0ZWQgQ2VydGlmaWNhdGUwHQYDVR0OBBYEFAoQblQjf6HyhQQMSWRh
nPfXmqPJMIG6BgNVHSMEgbIwga+AFPita88FavUBt4pvopHQ88PjK2LzoYGLpIGI
MIGFMQswCQYDVQQGEwJSVTETMBEGA1UECBMKU0FNQVJTS0FZQTESMBAGA1UEBxMJ
VE9HTElBVFRZMRUwEwYDVQQKEwxORU9UUkVJRC1MVEQxGDAWBgNVBAMTD05FT1RS
RUlELUxURCBDQTEcMBoGCSqGSIb3DQEJARYNbXV4YUBuZW82My5ydYIJAKMuKqiu
Uhu3MBMGA1UdJQQMMAoGCCsGAQUFBwMCMAsGA1UdDwQEAwIHgDANBgkqhkiG9w0B
AQUFAAOBgQAlQxKbDgr6uoggfzofjiBkNt3/tUXzIytf/ull+LoCRbl/GU2ALqYn
GIwd2AezC9x+SS3UEjftjPyvUH+zIu2SQSr1IQXoCPGqQSiJKOp7a+SqZHPf+cjQ
d/GAyk8fR2L+KbiDain61jAVjPLXnGDzGJMcOZnIvDWj6oRRRYk/dw==
-----END CERTIFICATE-----
