Certificate:
    Data:
        Version: 3 (0x2)
        Serial Number: 58 (0x3a)
    Signature Algorithm: sha1WithRSAEncryption
        Issuer: C=RU, ST=SAMARSKAYA, L=TOGLIATTY, O=NEOTREID-LTD, CN=NEOTREID-LTD CA/emailAddress=muxa@neo63.ru
        Validity
            Not Before: Jun  2 11:56:58 2017 GMT
            Not After : May 31 11:56:58 2027 GMT
        Subject: C=RU, ST=SAMARSKAYA, L=TOGLIATTY, O=NEOTREID-LTD, CN=zelenovka/emailAddress=muxa@neo63.ru
        Subject Public Key Info:
            Public Key Algorithm: rsaEncryption
                Public-Key: (1024 bit)
                Modulus:
                    00:a1:ad:94:bf:95:bc:3d:b1:3e:88:3a:1f:9c:b8:
                    9b:fc:18:b3:34:58:6f:75:96:8b:11:b5:85:e4:65:
                    e1:17:9a:54:a9:43:d1:d6:12:55:b5:4f:96:9d:cb:
                    04:91:65:04:9a:71:19:ae:1a:5b:c0:de:93:74:db:
                    8e:7c:65:67:7e:a4:62:66:c8:22:a2:2b:9f:c0:b2:
                    b2:61:ec:da:17:26:ac:3e:5f:ee:6c:3c:c5:40:18:
                    a5:da:88:03:41:0a:a8:d1:47:5b:76:f6:ea:4c:19:
                    14:dc:04:b4:50:8b:b1:1d:dc:4e:b3:a8:8c:ea:80:
                    62:d1:6a:de:b6:79:98:5d:6d
                Exponent: 65537 (0x10001)
        X509v3 extensions:
            X509v3 Basic Constraints: 
                CA:FALSE
            Netscape Comment: 
                Easy-RSA Generated Certificate
            X509v3 Subject Key Identifier: 
                0F:90:07:26:BB:3B:CE:65:86:F0:2C:0E:E0:CD:C0:E7:C6:F8:F7:9C
            X509v3 Authority Key Identifier: 
                keyid:F8:AD:6B:CF:05:6A:F5:01:B7:8A:6F:A2:91:D0:F3:C3:E3:2B:62:F3
                DirName:/C=RU/ST=SAMARSKAYA/L=TOGLIATTY/O=NEOTREID-LTD/CN=NEOTREID-LTD CA/emailAddress=muxa@neo63.ru
                serial:A3:2E:2A:A8:AE:52:1B:B7

            X509v3 Extended Key Usage: 
                TLS Web Client Authentication
            X509v3 Key Usage: 
                Digital Signature
    Signature Algorithm: sha1WithRSAEncryption
         a6:63:a5:4d:22:a5:35:34:ea:27:39:b8:6f:6c:33:ec:6c:df:
         8a:9f:36:d1:2b:7f:bc:58:f7:8e:6f:d6:3e:95:db:82:23:2d:
         a9:17:69:5a:5a:78:d6:4f:eb:2c:f2:fc:26:73:6b:3c:4e:1b:
         4a:82:9b:96:6f:a7:3e:f1:cb:49:37:78:c4:96:b6:5d:b4:34:
         b5:9b:c9:1d:31:e7:e3:bb:39:79:ab:f1:47:58:0f:a7:7e:0d:
         5f:ad:63:c2:74:b4:08:ae:3b:0d:9d:7c:e7:a7:a1:8d:51:c4:
         81:2f:ca:67:4a:95:94:14:ac:8e:87:9c:45:3b:d2:fd:89:fa:
         66:03
-----BEGIN CERTIFICATE-----
MIIDuTCCAyKgAwIBAgIBOjANBgkqhkiG9w0BAQUFADCBhTELMAkGA1UEBhMCUlUx
EzARBgNVBAgTClNBTUFSU0tBWUExEjAQBgNVBAcTCVRPR0xJQVRUWTEVMBMGA1UE
ChMMTkVPVFJFSUQtTFREMRgwFgYDVQQDEw9ORU9UUkVJRC1MVEQgQ0ExHDAaBgkq
hkiG9w0BCQEWDW11eGFAbmVvNjMucnUwHhcNMTcwNjAyMTE1NjU4WhcNMjcwNTMx
MTE1NjU4WjB/MQswCQYDVQQGEwJSVTETMBEGA1UECBMKU0FNQVJTS0FZQTESMBAG
A1UEBxMJVE9HTElBVFRZMRUwEwYDVQQKEwxORU9UUkVJRC1MVEQxEjAQBgNVBAMT
CXplbGVub3ZrYTEcMBoGCSqGSIb3DQEJARYNbXV4YUBuZW82My5ydTCBnzANBgkq
hkiG9w0BAQEFAAOBjQAwgYkCgYEAoa2Uv5W8PbE+iDofnLib/BizNFhvdZaLEbWF
5GXhF5pUqUPR1hJVtU+WncsEkWUEmnEZrhpbwN6TdNuOfGVnfqRiZsgioiufwLKy
YezaFyasPl/ubDzFQBil2ogDQQqo0UdbdvbqTBkU3AS0UIuxHdxOs6iM6oBi0Wre
tnmYXW0CAwEAAaOCATwwggE4MAkGA1UdEwQCMAAwLQYJYIZIAYb4QgENBCAWHkVh
c3ktUlNBIEdlbmVyYXRlZCBDZXJ0aWZpY2F0ZTAdBgNVHQ4EFgQUD5AHJrs7zmWG
8CwO4M3A58b495wwgboGA1UdIwSBsjCBr4AU+K1rzwVq9QG3im+ikdDzw+MrYvOh
gYukgYgwgYUxCzAJBgNVBAYTAlJVMRMwEQYDVQQIEwpTQU1BUlNLQVlBMRIwEAYD
VQQHEwlUT0dMSUFUVFkxFTATBgNVBAoTDE5FT1RSRUlELUxURDEYMBYGA1UEAxMP
TkVPVFJFSUQtTFREIENBMRwwGgYJKoZIhvcNAQkBFg1tdXhhQG5lbzYzLnJ1ggkA
oy4qqK5SG7cwEwYDVR0lBAwwCgYIKwYBBQUHAwIwCwYDVR0PBAQDAgeAMA0GCSqG
SIb3DQEBBQUAA4GBAKZjpU0ipTU06ic5uG9sM+xs34qfNtErf7xY945v1j6V24Ij
LakXaVpaeNZP6yzy/CZzazxOG0qCm5Zvpz7xy0k3eMSWtl20NLWbyR0x5+O7OXmr
8UdYD6d+DV+tY8J0tAiuOw2dfOenoY1RxIEvymdKlZQUrI6HnEU70v2J+mYD
-----END CERTIFICATE-----
