Certificate:
    Data:
        Version: 3 (0x2)
        Serial Number: 4 (0x4)
        Signature Algorithm: md5WithRSAEncryption
        Issuer: C=RU, ST=NA, L=TOGLIATTI, O=INZA-LTD-AIST, CN=server/emailAddress=pavel@kusto.com.ru
        Validity
            Not Before: May 23 09:08:41 2008 GMT
            Not After : May 21 09:08:41 2018 GMT
        Subject: C=RU, ST=NA, O=INZA-LTD-AIST, OU=pelican3aist, CN=pelican3aist/emailAddress=pavel@kusto.com.ru
        Subject Public Key Info:
            Public Key Algorithm: rsaEncryption
            RSA Public Key: (1024 bit)
                Modulus (1024 bit):
                    00:b9:84:95:d3:ad:ce:b8:4c:a0:2c:17:b7:82:6a:
                    12:fa:e9:42:04:9c:dc:dc:75:f8:f5:26:83:dd:d1:
                    1b:2b:7c:8b:14:24:76:17:1b:b0:7b:05:82:46:1e:
                    34:ad:c7:eb:b6:65:ee:65:c3:8b:e9:8d:c5:32:db:
                    41:eb:09:3a:37:15:f3:d6:1a:9d:b7:2c:ec:cc:84:
                    52:01:3a:eb:e9:da:39:06:ec:ee:fb:96:ff:df:d4:
                    2a:2f:c2:b0:a5:5a:dc:21:de:0f:72:bb:1e:c8:4e:
                    59:ed:bf:76:6d:c9:38:8a:2f:1f:2c:4b:bf:b3:dd:
                    91:cc:c4:d9:ee:74:87:86:85
                Exponent: 65537 (0x10001)
        X509v3 extensions:
            X509v3 Basic Constraints: 
                CA:FALSE
            Netscape Comment: 
                OpenSSL Generated Certificate
            X509v3 Subject Key Identifier: 
                7C:55:F7:8A:3C:E9:15:82:50:55:F9:5B:F5:34:A2:0B:16:76:C5:9B
            X509v3 Authority Key Identifier: 
                keyid:F6:7C:E6:FB:14:B7:F6:C1:5E:03:99:12:AA:ED:40:E4:44:12:76:38
                DirName:/C=RU/ST=NA/L=TOGLIATTI/O=INZA-LTD-AIST/CN=server/emailAddress=pavel@kusto.com.ru
                serial:00

    Signature Algorithm: md5WithRSAEncryption
        7e:c8:ac:d8:3d:f9:84:8c:49:84:6c:a2:1e:d5:6a:d3:4b:7d:
        00:48:2f:13:a3:fa:25:cf:29:71:56:18:32:3d:00:23:6c:55:
        1c:a4:26:e9:3c:27:e9:e0:3f:54:91:36:da:a2:eb:9b:e2:9a:
        c1:36:aa:01:25:99:db:98:4b:f1:28:65:06:fb:26:45:0e:78:
        5b:fa:60:ee:4e:1d:c5:b8:ef:c7:c0:68:39:0f:8d:b6:ac:bf:
        13:73:43:41:4f:bf:70:51:ce:29:60:be:f6:49:ff:86:e6:96:
        23:c5:2e:2c:5b:ba:55:75:42:82:86:12:55:71:ab:80:db:8c:
        b0:64
-----BEGIN CERTIFICATE-----
MIIDeDCCAuGgAwIBAgIBBDANBgkqhkiG9w0BAQQFADB6MQswCQYDVQQGEwJSVTEL
MAkGA1UECBMCTkExEjAQBgNVBAcTCVRPR0xJQVRUSTEWMBQGA1UEChMNSU5aQS1M
VEQtQUlTVDEPMA0GA1UEAxMGc2VydmVyMSEwHwYJKoZIhvcNAQkBFhJwYXZlbEBr
dXN0by5jb20ucnUwHhcNMDgwNTIzMDkwODQxWhcNMTgwNTIxMDkwODQxWjCBgzEL
MAkGA1UEBhMCUlUxCzAJBgNVBAgTAk5BMRYwFAYDVQQKEw1JTlpBLUxURC1BSVNU
MRUwEwYDVQQLEwxwZWxpY2FuM2Fpc3QxFTATBgNVBAMTDHBlbGljYW4zYWlzdDEh
MB8GCSqGSIb3DQEJARYScGF2ZWxAa3VzdG8uY29tLnJ1MIGfMA0GCSqGSIb3DQEB
AQUAA4GNADCBiQKBgQC5hJXTrc64TKAsF7eCahL66UIEnNzcdfj1JoPd0RsrfIsU
JHYXG7B7BYJGHjStx+u2Ze5lw4vpjcUy20HrCTo3FfPWGp23LOzMhFIBOuvp2jkG
7O77lv/f1CovwrClWtwh3g9yux7ITlntv3ZtyTiKLx8sS7+z3ZHMxNnudIeGhQID
AQABo4IBAjCB/zAJBgNVHRMEAjAAMCwGCWCGSAGG+EIBDQQfFh1PcGVuU1NMIEdl
bmVyYXRlZCBDZXJ0aWZpY2F0ZTAdBgNVHQ4EFgQUfFX3ijzpFYJQVflb9TSiCxZ2
xZswgaQGA1UdIwSBnDCBmYAU9nzm+xS39sFeA5kSqu1A5EQSdjihfqR8MHoxCzAJ
BgNVBAYTAlJVMQswCQYDVQQIEwJOQTESMBAGA1UEBxMJVE9HTElBVFRJMRYwFAYD
VQQKEw1JTlpBLUxURC1BSVNUMQ8wDQYDVQQDEwZzZXJ2ZXIxITAfBgkqhkiG9w0B
CQEWEnBhdmVsQGt1c3RvLmNvbS5ydYIBADANBgkqhkiG9w0BAQQFAAOBgQB+yKzY
PfmEjEmEbKIe1WrTS30ASC8To/olzylxVhgyPQAjbFUcpCbpPCfp4D9UkTbaouub
4prBNqoBJZnbmEvxKGUG+yZFDnhb+mDuTh3FuO/HwGg5D422rL8Tc0NBT79wUc4p
YL72Sf+G5pYjxS4sW7pVdUKChhJVcauA24ywZA==
-----END CERTIFICATE-----
