Certificate:
    Data:
        Version: 3 (0x2)
        Serial Number: 6 (0x6)
        Signature Algorithm: md5WithRSAEncryption
        Issuer: C=RU, ST=NA, L=TOGLIATTI, O=INZA-LTD-AIST, CN=server/emailAddress=pavel@kusto.com.ru
        Validity
            Not Before: Oct 11 04:34:45 2008 GMT
            Not After : Oct  9 04:34:45 2018 GMT
        Subject: C=RU, ST=NA, O=INZA-LTD-AIST, OU=pelican20, CN=pelican20/emailAddress=pavel@kusto.com.ru
        Subject Public Key Info:
            Public Key Algorithm: rsaEncryption
            RSA Public Key: (1024 bit)
                Modulus (1024 bit):
                    00:9f:f7:95:df:35:58:4c:dd:70:9a:2c:bd:c4:3a:
                    f2:61:c4:fc:7f:38:c8:50:ba:85:da:69:35:26:e5:
                    05:75:ba:de:c4:7e:9b:8f:5d:2e:4c:ba:e2:ad:b2:
                    47:9e:c8:0e:93:8e:47:2a:80:89:f5:80:ca:3b:cc:
                    ea:5d:ac:34:61:51:9c:8a:1f:d5:3d:5f:e4:4c:06:
                    e6:2d:79:50:d5:60:fd:1e:e8:42:3c:b9:ad:2a:34:
                    7e:3f:a2:a4:27:02:67:2d:f6:44:4a:76:45:44:e1:
                    f2:ef:44:3e:a0:66:7d:4c:b5:38:58:77:88:6a:4a:
                    64:0d:34:98:0c:40:0f:a2:0f
                Exponent: 65537 (0x10001)
        X509v3 extensions:
            X509v3 Basic Constraints: 
                CA:FALSE
            Netscape Comment: 
                OpenSSL Generated Certificate
            X509v3 Subject Key Identifier: 
                35:96:7F:74:FA:B4:92:47:3A:A1:7D:8B:9D:CA:2A:6C:C3:77:04:00
            X509v3 Authority Key Identifier: 
                keyid:F6:7C:E6:FB:14:B7:F6:C1:5E:03:99:12:AA:ED:40:E4:44:12:76:38
                DirName:/C=RU/ST=NA/L=TOGLIATTI/O=INZA-LTD-AIST/CN=server/emailAddress=pavel@kusto.com.ru
                serial:00

    Signature Algorithm: md5WithRSAEncryption
        4e:bd:01:ce:58:7b:7d:d1:51:de:f8:bb:e7:71:f8:3b:c2:d3:
        02:fb:18:60:28:92:1d:c0:75:c4:9f:56:40:7c:c5:61:38:8b:
        e2:52:48:79:18:8e:32:d5:5d:b2:8b:3c:5d:5b:0e:2f:b1:0f:
        69:44:0a:d7:1c:a3:80:98:d1:f7:70:e1:d0:66:06:2b:88:51:
        b7:a4:46:e4:4a:4e:7f:99:a3:58:6f:ea:59:dd:f9:e4:bd:a3:
        57:78:0b:9b:b4:4f:9b:9c:92:5e:a3:b8:14:24:d2:60:6c:fb:
        9d:0f:70:0c:b4:c4:7e:84:b6:36:ff:c9:c3:b4:34:80:da:c3:
        3c:ec
-----BEGIN CERTIFICATE-----
MIIDcTCCAtqgAwIBAgIBBjANBgkqhkiG9w0BAQQFADB6MQswCQYDVQQGEwJSVTEL
MAkGA1UECBMCTkExEjAQBgNVBAcTCVRPR0xJQVRUSTEWMBQGA1UEChMNSU5aQS1M
VEQtQUlTVDEPMA0GA1UEAxMGc2VydmVyMSEwHwYJKoZIhvcNAQkBFhJwYXZlbEBr
dXN0by5jb20ucnUwHhcNMDgxMDExMDQzNDQ1WhcNMTgxMDA5MDQzNDQ1WjB9MQsw
CQYDVQQGEwJSVTELMAkGA1UECBMCTkExFjAUBgNVBAoTDUlOWkEtTFRELUFJU1Qx
EjAQBgNVBAsTCXBlbGljYW4yMDESMBAGA1UEAxMJcGVsaWNhbjIwMSEwHwYJKoZI
hvcNAQkBFhJwYXZlbEBrdXN0by5jb20ucnUwgZ8wDQYJKoZIhvcNAQEBBQADgY0A
MIGJAoGBAJ/3ld81WEzdcJosvcQ68mHE/H84yFC6hdppNSblBXW63sR+m49dLky6
4q2yR57IDpOORyqAifWAyjvM6l2sNGFRnIof1T1f5EwG5i15UNVg/R7oQjy5rSo0
fj+ipCcCZy32REp2RUTh8u9EPqBmfUy1OFh3iGpKZA00mAxAD6IPAgMBAAGjggEC
MIH/MAkGA1UdEwQCMAAwLAYJYIZIAYb4QgENBB8WHU9wZW5TU0wgR2VuZXJhdGVk
IENlcnRpZmljYXRlMB0GA1UdDgQWBBQ1ln90+rSSRzqhfYudyipsw3cEADCBpAYD
VR0jBIGcMIGZgBT2fOb7FLf2wV4DmRKq7UDkRBJ2OKF+pHwwejELMAkGA1UEBhMC
UlUxCzAJBgNVBAgTAk5BMRIwEAYDVQQHEwlUT0dMSUFUVEkxFjAUBgNVBAoTDUlO
WkEtTFRELUFJU1QxDzANBgNVBAMTBnNlcnZlcjEhMB8GCSqGSIb3DQEJARYScGF2
ZWxAa3VzdG8uY29tLnJ1ggEAMA0GCSqGSIb3DQEBBAUAA4GBAE69Ac5Ye33RUd74
u+dx+DvC0wL7GGAokh3AdcSfVkB8xWE4i+JSSHkYjjLVXbKLPF1bDi+xD2lECtcc
o4CY0fdw4dBmBiuIUbekRuRKTn+Zo1hv6lnd+eS9o1d4C5u0T5uckl6juBQk0mBs
+50PcAy0xH6Etjb/ycO0NIDawzzs
-----END CERTIFICATE-----
