Certificate:
    Data:
        Version: 3 (0x2)
        Serial Number: 7 (0x7)
        Signature Algorithm: md5WithRSAEncryption
        Issuer: C=RU, ST=NA, L=TOGLIATTI, O=INZA-LTD-AIST, CN=server/emailAddress=pavel@kusto.com.ru
        Validity
            Not Before: Dec 15 07:30:11 2008 GMT
            Not After : Dec 13 07:30:11 2018 GMT
        Subject: C=RU, ST=NA, O=INZA-LTD-AIST, OU=pelican4aist, CN=pelican4aist/emailAddress=pavel@kusto.com.ru
        Subject Public Key Info:
            Public Key Algorithm: rsaEncryption
            RSA Public Key: (1024 bit)
                Modulus (1024 bit):
                    00:ba:20:55:37:d4:ac:2d:47:3c:38:25:1f:6d:e5:
                    90:bd:cc:fe:b3:fd:95:73:83:44:58:08:ed:45:b6:
                    73:83:36:6f:7f:c3:61:12:e3:d2:44:34:d9:87:58:
                    26:b6:91:24:70:dd:e1:92:ce:75:a3:2e:3b:8a:62:
                    f7:d9:37:9a:1f:76:88:03:29:5f:c3:ab:41:8e:8f:
                    33:8f:f6:5a:43:16:b6:b1:40:89:3d:2e:bb:92:70:
                    5e:4c:fa:2b:ca:ba:08:b6:f2:47:b9:12:77:d0:8e:
                    4c:fd:c4:bc:19:39:50:2f:04:4f:76:8d:66:06:4a:
                    a7:47:fa:9f:2e:24:bd:3d:e3
                Exponent: 65537 (0x10001)
        X509v3 extensions:
            X509v3 Basic Constraints: 
                CA:FALSE
            Netscape Comment: 
                OpenSSL Generated Certificate
            X509v3 Subject Key Identifier: 
                90:26:C8:CD:D0:30:AD:7F:ED:E6:8C:2D:69:DE:54:A7:4B:4E:EE:E9
            X509v3 Authority Key Identifier: 
                keyid:F6:7C:E6:FB:14:B7:F6:C1:5E:03:99:12:AA:ED:40:E4:44:12:76:38
                DirName:/C=RU/ST=NA/L=TOGLIATTI/O=INZA-LTD-AIST/CN=server/emailAddress=pavel@kusto.com.ru
                serial:00

    Signature Algorithm: md5WithRSAEncryption
        25:d7:31:4a:cc:25:f9:e0:0d:a7:c2:5c:1f:ab:4f:b7:a8:77:
        10:fe:4f:da:46:50:c7:f4:13:e5:ab:1b:37:10:f4:12:83:58:
        4c:25:65:b3:2a:9d:62:eb:bc:5c:51:2c:18:2b:fc:dc:cd:17:
        36:2d:71:b7:38:e0:cc:76:38:e9:98:f9:95:91:27:38:9e:21:
        64:86:61:07:14:b6:b1:6e:27:35:1b:5e:1c:ff:71:7e:42:ef:
        51:a3:b8:15:bc:11:40:9f:72:43:40:b0:77:ab:c3:b9:86:2a:
        11:21:61:1c:36:7f:29:d4:85:09:b9:34:56:4c:ad:04:fc:ec:
        b3:d7
-----BEGIN CERTIFICATE-----
MIIDeDCCAuGgAwIBAgIBBzANBgkqhkiG9w0BAQQFADB6MQswCQYDVQQGEwJSVTEL
MAkGA1UECBMCTkExEjAQBgNVBAcTCVRPR0xJQVRUSTEWMBQGA1UEChMNSU5aQS1M
VEQtQUlTVDEPMA0GA1UEAxMGc2VydmVyMSEwHwYJKoZIhvcNAQkBFhJwYXZlbEBr
dXN0by5jb20ucnUwHhcNMDgxMjE1MDczMDExWhcNMTgxMjEzMDczMDExWjCBgzEL
MAkGA1UEBhMCUlUxCzAJBgNVBAgTAk5BMRYwFAYDVQQKEw1JTlpBLUxURC1BSVNU
MRUwEwYDVQQLEwxwZWxpY2FuNGFpc3QxFTATBgNVBAMTDHBlbGljYW40YWlzdDEh
MB8GCSqGSIb3DQEJARYScGF2ZWxAa3VzdG8uY29tLnJ1MIGfMA0GCSqGSIb3DQEB
AQUAA4GNADCBiQKBgQC6IFU31KwtRzw4JR9t5ZC9zP6z/ZVzg0RYCO1FtnODNm9/
w2ES49JENNmHWCa2kSRw3eGSznWjLjuKYvfZN5ofdogDKV/Dq0GOjzOP9lpDFrax
QIk9LruScF5M+ivKugi28ke5EnfQjkz9xLwZOVAvBE92jWYGSqdH+p8uJL094wID
AQABo4IBAjCB/zAJBgNVHRMEAjAAMCwGCWCGSAGG+EIBDQQfFh1PcGVuU1NMIEdl
bmVyYXRlZCBDZXJ0aWZpY2F0ZTAdBgNVHQ4EFgQUkCbIzdAwrX/t5owtad5Up0tO
7ukwgaQGA1UdIwSBnDCBmYAU9nzm+xS39sFeA5kSqu1A5EQSdjihfqR8MHoxCzAJ
BgNVBAYTAlJVMQswCQYDVQQIEwJOQTESMBAGA1UEBxMJVE9HTElBVFRJMRYwFAYD
VQQKEw1JTlpBLUxURC1BSVNUMQ8wDQYDVQQDEwZzZXJ2ZXIxITAfBgkqhkiG9w0B
CQEWEnBhdmVsQGt1c3RvLmNvbS5ydYIBADANBgkqhkiG9w0BAQQFAAOBgQAl1zFK
zCX54A2nwlwfq0+3qHcQ/k/aRlDH9BPlqxs3EPQSg1hMJWWzKp1i67xcUSwYK/zc
zRc2LXG3OODMdjjpmPmVkSc4niFkhmEHFLaxbic1G14c/3F+Qu9Ro7gVvBFAn3JD
QLB3q8O5hioRIWEcNn8p1IUJuTRWTK0E/Oyz1w==
-----END CERTIFICATE-----
