Certificate:
    Data:
        Version: 3 (0x2)
        Serial Number: 57 (0x39)
        Signature Algorithm: md5WithRSAEncryption
        Issuer: C=RU, ST=NA, L=TOGLIATTI, O=INZA-LTD-AIST, CN=server/emailAddress=pavel@kusto.com.ru
        Validity
            Not Before: Sep  3 11:33:19 2010 GMT
            Not After : Aug 31 11:33:19 2020 GMT
        Subject: C=RU, ST=NA, O=INZA-LTD-AIST, CN=pelican_1_3/emailAddress=pavel@kusto.com.ru
        Subject Public Key Info:
            Public Key Algorithm: rsaEncryption
            RSA Public Key: (1024 bit)
                Modulus (1024 bit):
                    00:c5:6e:9a:86:0d:1b:27:84:33:33:76:ec:10:88:
                    66:c4:a0:df:b4:e9:a7:6d:9a:1a:9a:54:95:63:2b:
                    09:ca:8b:c1:37:98:e4:c6:57:72:ff:70:f0:f9:9a:
                    bc:47:35:70:1b:7b:96:34:b5:3c:bd:51:04:6e:3c:
                    24:c5:e5:f0:c2:87:9c:de:3c:a0:81:56:47:67:27:
                    80:04:1e:c0:61:5f:ff:23:0b:95:c1:d0:02:99:51:
                    28:4e:95:33:52:97:c9:fd:6a:61:6a:b3:30:5d:3c:
                    3e:d9:28:43:95:58:5e:1e:7b:f4:b5:32:33:29:a9:
                    26:4c:c3:3e:d8:b5:80:2a:11
                Exponent: 65537 (0x10001)
        X509v3 extensions:
            X509v3 Basic Constraints: 
                CA:FALSE
            Netscape Comment: 
                OpenSSL Generated Certificate
            X509v3 Subject Key Identifier: 
                0B:8D:36:AC:5D:BF:3F:E7:C3:10:FF:FE:79:8E:FA:E3:C2:3A:69:E7
            X509v3 Authority Key Identifier: 
                keyid:F6:7C:E6:FB:14:B7:F6:C1:5E:03:99:12:AA:ED:40:E4:44:12:76:38
                DirName:/C=RU/ST=NA/L=TOGLIATTI/O=INZA-LTD-AIST/CN=server/emailAddress=pavel@kusto.com.ru
                serial:00

    Signature Algorithm: md5WithRSAEncryption
        02:2a:38:8f:11:40:be:b3:40:e6:32:60:c0:08:3e:3b:86:59:
        db:70:93:29:f1:ac:dd:15:95:40:d1:ed:22:31:91:c1:63:95:
        9d:6d:22:58:73:e5:ec:89:f3:a4:d3:19:d8:f2:55:cf:4e:eb:
        ec:35:6a:a7:3e:1e:4e:b7:59:b4:6c:20:64:b4:7d:67:82:c1:
        59:c3:46:f0:2e:49:c1:6d:f8:28:41:ce:60:2d:f1:c7:0a:59:
        95:65:88:32:02:19:fb:af:af:d7:52:31:2e:e1:0f:81:ce:d8:
        e6:9d:65:20:27:7f:2b:ba:34:0a:03:1c:c0:7d:d1:df:cf:2a:
        47:1e
-----BEGIN CERTIFICATE-----
MIIDXzCCAsigAwIBAgIBOTANBgkqhkiG9w0BAQQFADB6MQswCQYDVQQGEwJSVTEL
MAkGA1UECBMCTkExEjAQBgNVBAcTCVRPR0xJQVRUSTEWMBQGA1UEChMNSU5aQS1M
VEQtQUlTVDEPMA0GA1UEAxMGc2VydmVyMSEwHwYJKoZIhvcNAQkBFhJwYXZlbEBr
dXN0by5jb20ucnUwHhcNMTAwOTAzMTEzMzE5WhcNMjAwODMxMTEzMzE5WjBrMQsw
CQYDVQQGEwJSVTELMAkGA1UECBMCTkExFjAUBgNVBAoTDUlOWkEtTFRELUFJU1Qx
FDASBgNVBAMUC3BlbGljYW5fMV8zMSEwHwYJKoZIhvcNAQkBFhJwYXZlbEBrdXN0
by5jb20ucnUwgZ8wDQYJKoZIhvcNAQEBBQADgY0AMIGJAoGBAMVumoYNGyeEMzN2
7BCIZsSg37Tpp22aGppUlWMrCcqLwTeY5MZXcv9w8PmavEc1cBt7ljS1PL1RBG48
JMXl8MKHnN48oIFWR2cngAQewGFf/yMLlcHQAplRKE6VM1KXyf1qYWqzMF08Ptko
Q5VYXh579LUyMympJkzDPti1gCoRAgMBAAGjggECMIH/MAkGA1UdEwQCMAAwLAYJ
YIZIAYb4QgENBB8WHU9wZW5TU0wgR2VuZXJhdGVkIENlcnRpZmljYXRlMB0GA1Ud
DgQWBBQLjTasXb8/58MQ//55jvrjwjpp5zCBpAYDVR0jBIGcMIGZgBT2fOb7FLf2
wV4DmRKq7UDkRBJ2OKF+pHwwejELMAkGA1UEBhMCUlUxCzAJBgNVBAgTAk5BMRIw
EAYDVQQHEwlUT0dMSUFUVEkxFjAUBgNVBAoTDUlOWkEtTFRELUFJU1QxDzANBgNV
BAMTBnNlcnZlcjEhMB8GCSqGSIb3DQEJARYScGF2ZWxAa3VzdG8uY29tLnJ1ggEA
MA0GCSqGSIb3DQEBBAUAA4GBAAIqOI8RQL6zQOYyYMAIPjuGWdtwkynxrN0VlUDR
7SIxkcFjlZ1tIlhz5eyJ86TTGdjyVc9O6+w1aqc+Hk63WbRsIGS0fWeCwVnDRvAu
ScFt+ChBzmAt8ccKWZVliDICGfuvr9dSMS7hD4HO2OadZSAnfyu6NAoDHMB90d/P
Kkce
-----END CERTIFICATE-----
