Certificate:
    Data:
        Version: 3 (0x2)
        Serial Number: 59 (0x3b)
        Signature Algorithm: md5WithRSAEncryption
        Issuer: C=RU, ST=NA, L=TOGLIATTI, O=INZA-LTD-AIST, CN=server/emailAddress=pavel@kusto.com.ru
        Validity
            Not Before: Sep 29 06:30:56 2010 GMT
            Not After : Sep 26 06:30:56 2020 GMT
        Subject: C=RU, ST=NA, O=INZA-LTD-AIST, CN=makshome/emailAddress=pavel@kusto.com.ru
        Subject Public Key Info:
            Public Key Algorithm: rsaEncryption
            RSA Public Key: (1024 bit)
                Modulus (1024 bit):
                    00:ad:8e:d5:3d:01:9c:96:d5:87:6a:b3:0e:4e:7a:
                    11:b4:7d:e5:5a:58:7c:82:40:32:c5:e5:a4:9f:7f:
                    14:fc:b5:9d:f8:ab:40:73:14:19:f9:40:cc:46:b5:
                    f3:34:53:c2:37:2e:75:a9:c7:6d:08:de:3f:dc:b7:
                    9d:fc:bc:d4:c7:1e:c3:dd:1b:16:63:37:c1:94:41:
                    7b:bc:a4:89:81:f1:73:66:b7:d5:c0:03:fd:bd:8c:
                    34:43:6d:73:4d:40:63:70:e6:3e:c8:f0:fd:f3:a0:
                    b0:95:07:38:98:60:31:a3:ac:43:5d:44:f9:a7:6f:
                    1f:88:8f:44:74:bd:5a:d9:1f
                Exponent: 65537 (0x10001)
        X509v3 extensions:
            X509v3 Basic Constraints: 
                CA:FALSE
            Netscape Comment: 
                OpenSSL Generated Certificate
            X509v3 Subject Key Identifier: 
                2F:DD:6F:1E:07:43:DC:AC:52:4C:9D:57:FE:4C:4B:F3:E4:CE:B2:07
            X509v3 Authority Key Identifier: 
                keyid:F6:7C:E6:FB:14:B7:F6:C1:5E:03:99:12:AA:ED:40:E4:44:12:76:38
                DirName:/C=RU/ST=NA/L=TOGLIATTI/O=INZA-LTD-AIST/CN=server/emailAddress=pavel@kusto.com.ru
                serial:00

    Signature Algorithm: md5WithRSAEncryption
        90:18:99:c9:be:7b:54:87:64:3e:a8:4f:6a:f5:32:e4:ef:be:
        e5:47:71:8c:0f:e5:b3:46:52:5f:d6:28:05:a8:89:c5:44:7f:
        c6:cc:d8:24:f1:a1:92:48:e9:0c:ee:bc:0b:82:45:5d:4c:8a:
        e2:14:9e:f8:ad:91:58:48:6e:db:34:01:4a:18:31:3a:f8:1b:
        cf:81:dc:9c:67:ef:cb:d7:e9:fa:1d:1e:7f:c5:b7:17:e9:4f:
        b4:93:03:6f:1c:cd:8f:b9:4a:20:49:f4:73:4c:e2:df:f0:99:
        31:10:45:bd:53:63:52:62:0a:e8:d3:0c:b6:e0:7d:72:ba:07:
        fc:1d
-----BEGIN CERTIFICATE-----
MIIDXDCCAsWgAwIBAgIBOzANBgkqhkiG9w0BAQQFADB6MQswCQYDVQQGEwJSVTEL
MAkGA1UECBMCTkExEjAQBgNVBAcTCVRPR0xJQVRUSTEWMBQGA1UEChMNSU5aQS1M
VEQtQUlTVDEPMA0GA1UEAxMGc2VydmVyMSEwHwYJKoZIhvcNAQkBFhJwYXZlbEBr
dXN0by5jb20ucnUwHhcNMTAwOTI5MDYzMDU2WhcNMjAwOTI2MDYzMDU2WjBoMQsw
CQYDVQQGEwJSVTELMAkGA1UECBMCTkExFjAUBgNVBAoTDUlOWkEtTFRELUFJU1Qx
ETAPBgNVBAMTCG1ha3Nob21lMSEwHwYJKoZIhvcNAQkBFhJwYXZlbEBrdXN0by5j
b20ucnUwgZ8wDQYJKoZIhvcNAQEBBQADgY0AMIGJAoGBAK2O1T0BnJbVh2qzDk56
EbR95VpYfIJAMsXlpJ9/FPy1nfirQHMUGflAzEa18zRTwjcudanHbQjeP9y3nfy8
1Mcew90bFmM3wZRBe7ykiYHxc2a31cAD/b2MNENtc01AY3DmPsjw/fOgsJUHOJhg
MaOsQ11E+advH4iPRHS9WtkfAgMBAAGjggECMIH/MAkGA1UdEwQCMAAwLAYJYIZI
AYb4QgENBB8WHU9wZW5TU0wgR2VuZXJhdGVkIENlcnRpZmljYXRlMB0GA1UdDgQW
BBQv3W8eB0PcrFJMnVf+TEvz5M6yBzCBpAYDVR0jBIGcMIGZgBT2fOb7FLf2wV4D
mRKq7UDkRBJ2OKF+pHwwejELMAkGA1UEBhMCUlUxCzAJBgNVBAgTAk5BMRIwEAYD
VQQHEwlUT0dMSUFUVEkxFjAUBgNVBAoTDUlOWkEtTFRELUFJU1QxDzANBgNVBAMT
BnNlcnZlcjEhMB8GCSqGSIb3DQEJARYScGF2ZWxAa3VzdG8uY29tLnJ1ggEAMA0G
CSqGSIb3DQEBBAUAA4GBAJAYmcm+e1SHZD6oT2r1MuTvvuVHcYwP5bNGUl/WKAWo
icVEf8bM2CTxoZJI6QzuvAuCRV1MiuIUnvitkVhIbts0AUoYMTr4G8+B3Jxn78vX
6fodHn/FtxfpT7STA28czY+5SiBJ9HNM4t/wmTEQRb1TY1JiCujTDLbgfXK6B/wd
-----END CERTIFICATE-----
