Certificate:
    Data:
        Version: 3 (0x2)
        Serial Number: 63 (0x3f)
        Signature Algorithm: md5WithRSAEncryption
        Issuer: C=RU, ST=NA, L=TOGLIATTI, O=INZA-LTD-AIST, CN=server/emailAddress=pavel@kusto.com.ru
        Validity
            Not Before: Nov 22 09:36:40 2010 GMT
            Not After : Nov 19 09:36:40 2020 GMT
        Subject: C=RU, ST=NA, O=INZA-LTD-AIST, CN=pelican_mur55/emailAddress=pavel@kusto.com.ru
        Subject Public Key Info:
            Public Key Algorithm: rsaEncryption
            RSA Public Key: (1024 bit)
                Modulus (1024 bit):
                    00:e3:6e:db:9b:05:b4:d9:76:af:b1:86:5b:e4:d5:
                    aa:e9:51:fa:c7:1b:b9:79:90:92:3f:d1:ea:6a:2a:
                    d2:ac:7b:ed:f7:dc:32:09:3a:0d:c1:5e:0f:46:94:
                    b1:f0:07:6f:39:11:9b:b1:26:3e:7d:b8:17:37:e6:
                    e0:2c:91:89:02:c7:fd:16:ca:ae:3f:bd:c9:c4:4d:
                    86:e3:7e:4e:1f:e1:2e:cb:11:3b:74:ac:4b:36:11:
                    88:83:6b:21:2e:46:02:52:98:e9:5d:a7:b6:c7:a2:
                    ba:02:ac:85:da:ff:00:bd:3a:84:51:32:45:a9:27:
                    51:fa:55:53:e7:1a:94:b5:c7
                Exponent: 65537 (0x10001)
        X509v3 extensions:
            X509v3 Basic Constraints: 
                CA:FALSE
            Netscape Comment: 
                OpenSSL Generated Certificate
            X509v3 Subject Key Identifier: 
                F2:13:AB:FB:78:57:D2:03:EB:A4:82:6D:CC:80:27:FC:84:13:17:C6
            X509v3 Authority Key Identifier: 
                keyid:F6:7C:E6:FB:14:B7:F6:C1:5E:03:99:12:AA:ED:40:E4:44:12:76:38
                DirName:/C=RU/ST=NA/L=TOGLIATTI/O=INZA-LTD-AIST/CN=server/emailAddress=pavel@kusto.com.ru
                serial:00

    Signature Algorithm: md5WithRSAEncryption
        35:1b:e8:09:1b:e1:4c:40:ad:f7:ce:7a:b2:55:5f:2a:dc:f7:
        85:4a:d0:6e:d6:f5:d8:ba:5f:bc:ce:06:70:a8:c3:16:bf:91:
        d5:5e:a3:cd:cf:95:4f:f1:bf:c5:f8:3a:5a:65:b3:36:46:89:
        a0:c9:87:b8:27:ab:90:27:18:90:35:88:c6:84:8a:ed:ac:7f:
        33:1f:be:08:20:33:c4:77:73:1c:c5:df:b9:a7:7b:33:a9:5a:
        10:05:dc:8b:16:f9:f2:54:78:df:1e:85:8a:c5:66:1d:02:dd:
        21:5a:04:a6:85:b3:03:df:9e:b9:89:4a:9a:9c:c6:0d:cc:4a:
        7c:bd
-----BEGIN CERTIFICATE-----
MIIDYTCCAsqgAwIBAgIBPzANBgkqhkiG9w0BAQQFADB6MQswCQYDVQQGEwJSVTEL
MAkGA1UECBMCTkExEjAQBgNVBAcTCVRPR0xJQVRUSTEWMBQGA1UEChMNSU5aQS1M
VEQtQUlTVDEPMA0GA1UEAxMGc2VydmVyMSEwHwYJKoZIhvcNAQkBFhJwYXZlbEBr
dXN0by5jb20ucnUwHhcNMTAxMTIyMDkzNjQwWhcNMjAxMTE5MDkzNjQwWjBtMQsw
CQYDVQQGEwJSVTELMAkGA1UECBMCTkExFjAUBgNVBAoTDUlOWkEtTFRELUFJU1Qx
FjAUBgNVBAMUDXBlbGljYW5fbXVyNTUxITAfBgkqhkiG9w0BCQEWEnBhdmVsQGt1
c3RvLmNvbS5ydTCBnzANBgkqhkiG9w0BAQEFAAOBjQAwgYkCgYEA427bmwW02Xav
sYZb5NWq6VH6xxu5eZCSP9HqairSrHvt99wyCToNwV4PRpSx8AdvORGbsSY+fbgX
N+bgLJGJAsf9FsquP73JxE2G435OH+EuyxE7dKxLNhGIg2shLkYCUpjpXae2x6K6
AqyF2v8AvTqEUTJFqSdR+lVT5xqUtccCAwEAAaOCAQIwgf8wCQYDVR0TBAIwADAs
BglghkgBhvhCAQ0EHxYdT3BlblNTTCBHZW5lcmF0ZWQgQ2VydGlmaWNhdGUwHQYD
VR0OBBYEFPITq/t4V9ID66SCbcyAJ/yEExfGMIGkBgNVHSMEgZwwgZmAFPZ85vsU
t/bBXgOZEqrtQOREEnY4oX6kfDB6MQswCQYDVQQGEwJSVTELMAkGA1UECBMCTkEx
EjAQBgNVBAcTCVRPR0xJQVRUSTEWMBQGA1UEChMNSU5aQS1MVEQtQUlTVDEPMA0G
A1UEAxMGc2VydmVyMSEwHwYJKoZIhvcNAQkBFhJwYXZlbEBrdXN0by5jb20ucnWC
AQAwDQYJKoZIhvcNAQEEBQADgYEANRvoCRvhTECt9856slVfKtz3hUrQbtb12Lpf
vM4GcKjDFr+R1V6jzc+VT/G/xfg6WmWzNkaJoMmHuCerkCcYkDWIxoSK7ax/Mx++
CCAzxHdzHMXfuad7M6laEAXcixb58lR43x6FisVmHQLdIVoEpoWzA9+euYlKmpzG
DcxKfL0=
-----END CERTIFICATE-----
