Certificate:
    Data:
        Version: 3 (0x2)
        Serial Number: 64 (0x40)
        Signature Algorithm: md5WithRSAEncryption
        Issuer: C=RU, ST=NA, L=TOGLIATTI, O=INZA-LTD-AIST, CN=server/emailAddress=pavel@kusto.com.ru
        Validity
            Not Before: Nov 22 09:49:46 2010 GMT
            Not After : Nov 19 09:49:46 2020 GMT
        Subject: C=RU, ST=NA, O=INZA-LTD-AIST, CN=pelican_gorkogo/emailAddress=pavel@kusto.com.ru
        Subject Public Key Info:
            Public Key Algorithm: rsaEncryption
            RSA Public Key: (1024 bit)
                Modulus (1024 bit):
                    00:c1:bb:92:5e:35:63:f4:e0:c7:5d:b5:de:9b:da:
                    03:e2:b6:dc:94:02:f0:32:b2:9e:26:f5:e8:33:9f:
                    f7:75:3d:e3:fe:29:fb:09:18:65:cd:e4:87:94:c8:
                    c9:19:16:20:5d:b9:a9:6d:6e:38:71:f0:97:66:78:
                    64:c0:dd:4f:83:d7:09:0a:10:ad:29:ab:b6:1f:de:
                    eb:f9:bb:f0:fa:31:22:6c:e6:a8:40:4b:c2:d0:1d:
                    f1:df:aa:7f:29:89:c5:54:90:ff:c5:7c:dd:3b:58:
                    52:27:2b:3e:ea:c8:b8:26:0c:c4:58:ae:4e:98:79:
                    3a:5a:2f:4a:1a:3f:f2:8e:3b
                Exponent: 65537 (0x10001)
        X509v3 extensions:
            X509v3 Basic Constraints: 
                CA:FALSE
            Netscape Comment: 
                OpenSSL Generated Certificate
            X509v3 Subject Key Identifier: 
                1A:7B:9D:BD:90:6B:0B:01:77:59:4E:C8:8F:73:1D:05:AD:DA:5E:89
            X509v3 Authority Key Identifier: 
                keyid:F6:7C:E6:FB:14:B7:F6:C1:5E:03:99:12:AA:ED:40:E4:44:12:76:38
                DirName:/C=RU/ST=NA/L=TOGLIATTI/O=INZA-LTD-AIST/CN=server/emailAddress=pavel@kusto.com.ru
                serial:00

    Signature Algorithm: md5WithRSAEncryption
        02:e1:be:1c:af:8f:56:07:28:20:eb:dd:ed:59:d4:67:09:56:
        e9:7b:83:2c:31:91:fa:09:76:ce:16:da:c1:b7:1f:de:a5:8b:
        90:9a:90:bd:bc:3a:ec:9f:be:a8:77:72:60:85:e4:6c:da:10:
        98:af:ff:62:9f:f5:e7:8c:4b:75:6e:89:93:c9:84:e9:a2:4a:
        87:4a:01:62:1e:6e:a0:50:4f:e6:a0:42:5d:3c:8f:6e:f8:7a:
        7d:2d:10:6f:64:b4:fe:0a:68:c3:d2:f4:f1:17:84:eb:7c:d3:
        23:fa:34:4b:bb:55:01:45:07:46:b0:e3:e3:b3:1f:c7:51:60:
        65:ce
-----BEGIN CERTIFICATE-----
MIIDYzCCAsygAwIBAgIBQDANBgkqhkiG9w0BAQQFADB6MQswCQYDVQQGEwJSVTEL
MAkGA1UECBMCTkExEjAQBgNVBAcTCVRPR0xJQVRUSTEWMBQGA1UEChMNSU5aQS1M
VEQtQUlTVDEPMA0GA1UEAxMGc2VydmVyMSEwHwYJKoZIhvcNAQkBFhJwYXZlbEBr
dXN0by5jb20ucnUwHhcNMTAxMTIyMDk0OTQ2WhcNMjAxMTE5MDk0OTQ2WjBvMQsw
CQYDVQQGEwJSVTELMAkGA1UECBMCTkExFjAUBgNVBAoTDUlOWkEtTFRELUFJU1Qx
GDAWBgNVBAMUD3BlbGljYW5fZ29ya29nbzEhMB8GCSqGSIb3DQEJARYScGF2ZWxA
a3VzdG8uY29tLnJ1MIGfMA0GCSqGSIb3DQEBAQUAA4GNADCBiQKBgQDBu5JeNWP0
4Mddtd6b2gPittyUAvAysp4m9egzn/d1PeP+KfsJGGXN5IeUyMkZFiBdualtbjhx
8JdmeGTA3U+D1wkKEK0pq7Yf3uv5u/D6MSJs5qhAS8LQHfHfqn8picVUkP/FfN07
WFInKz7qyLgmDMRYrk6YeTpaL0oaP/KOOwIDAQABo4IBAjCB/zAJBgNVHRMEAjAA
MCwGCWCGSAGG+EIBDQQfFh1PcGVuU1NMIEdlbmVyYXRlZCBDZXJ0aWZpY2F0ZTAd
BgNVHQ4EFgQUGnudvZBrCwF3WU7Ij3MdBa3aXokwgaQGA1UdIwSBnDCBmYAU9nzm
+xS39sFeA5kSqu1A5EQSdjihfqR8MHoxCzAJBgNVBAYTAlJVMQswCQYDVQQIEwJO
QTESMBAGA1UEBxMJVE9HTElBVFRJMRYwFAYDVQQKEw1JTlpBLUxURC1BSVNUMQ8w
DQYDVQQDEwZzZXJ2ZXIxITAfBgkqhkiG9w0BCQEWEnBhdmVsQGt1c3RvLmNvbS5y
dYIBADANBgkqhkiG9w0BAQQFAAOBgQAC4b4cr49WBygg693tWdRnCVbpe4MsMZH6
CXbOFtrBtx/epYuQmpC9vDrsn76od3JgheRs2hCYr/9in/XnjEt1bomTyYTpokqH
SgFiHm6gUE/moEJdPI9u+Hp9LRBvZLT+CmjD0vTxF4TrfNMj+jRLu1UBRQdGsOPj
sx/HUWBlzg==
-----END CERTIFICATE-----
