Certificate:
    Data:
        Version: 3 (0x2)
        Serial Number: 73 (0x49)
        Signature Algorithm: md5WithRSAEncryption
        Issuer: C=RU, ST=NA, L=TOGLIATTI, O=INZA-LTD-AIST, CN=server/emailAddress=pavel@kusto.com.ru
        Validity
            Not Before: Mar 26 06:47:11 2011 GMT
            Not After : Mar 23 06:47:11 2021 GMT
        Subject: C=RU, ST=NA, O=INZA-LTD-AIST, CN=irina/emailAddress=pavel@kusto.com.ru
        Subject Public Key Info:
            Public Key Algorithm: rsaEncryption
            RSA Public Key: (1024 bit)
                Modulus (1024 bit):
                    00:c2:44:ba:7e:6e:98:b1:1a:d5:6c:23:03:df:dc:
                    62:16:f5:f8:60:47:dd:10:36:4c:d9:d3:53:9b:53:
                    38:0f:15:37:b9:20:b2:aa:85:ba:7b:fc:c1:23:7d:
                    fc:35:22:5b:3e:1c:bc:c9:cd:8f:16:24:a5:52:74:
                    5c:9c:01:96:4f:4a:fc:da:fd:66:05:fe:bc:42:1e:
                    ac:d3:c7:96:85:e8:08:90:5e:5b:66:ba:47:c8:6e:
                    b1:fa:37:e6:91:b6:50:53:b1:5d:9f:67:53:2e:aa:
                    67:8f:4e:90:e8:4a:5f:90:70:8b:99:57:41:19:15:
                    98:14:ae:74:90:4d:7e:9a:a5
                Exponent: 65537 (0x10001)
        X509v3 extensions:
            X509v3 Basic Constraints: 
                CA:FALSE
            Netscape Comment: 
                OpenSSL Generated Certificate
            X509v3 Subject Key Identifier: 
                2A:C0:B3:6B:0F:3C:FC:86:94:E2:D8:5D:4C:00:3D:45:60:87:0E:AF
            X509v3 Authority Key Identifier: 
                keyid:F6:7C:E6:FB:14:B7:F6:C1:5E:03:99:12:AA:ED:40:E4:44:12:76:38
                DirName:/C=RU/ST=NA/L=TOGLIATTI/O=INZA-LTD-AIST/CN=server/emailAddress=pavel@kusto.com.ru
                serial:00

    Signature Algorithm: md5WithRSAEncryption
        40:0f:2b:46:76:20:5c:f7:62:e9:c4:35:db:a6:a3:1c:52:93:
        b1:6a:23:bb:4c:de:c9:2b:cc:3d:d7:09:60:0b:84:04:7c:95:
        d4:e0:00:75:7a:44:08:3d:ab:d7:16:04:26:c2:e5:5e:52:fc:
        fa:f6:79:2a:6e:f5:b4:f6:53:e8:00:3d:4e:90:9a:c8:c7:27:
        57:86:58:fc:30:af:5b:99:bc:b3:1e:b5:42:5c:0b:7d:24:ac:
        cc:07:be:52:ba:a6:f2:49:fd:e7:1c:4a:31:8b:17:20:d4:86:
        9a:4e:6b:e7:c7:f2:70:52:7d:99:55:05:7a:c2:f0:f6:c3:53:
        16:cf
-----BEGIN CERTIFICATE-----
MIIDWTCCAsKgAwIBAgIBSTANBgkqhkiG9w0BAQQFADB6MQswCQYDVQQGEwJSVTEL
MAkGA1UECBMCTkExEjAQBgNVBAcTCVRPR0xJQVRUSTEWMBQGA1UEChMNSU5aQS1M
VEQtQUlTVDEPMA0GA1UEAxMGc2VydmVyMSEwHwYJKoZIhvcNAQkBFhJwYXZlbEBr
dXN0by5jb20ucnUwHhcNMTEwMzI2MDY0NzExWhcNMjEwMzIzMDY0NzExWjBlMQsw
CQYDVQQGEwJSVTELMAkGA1UECBMCTkExFjAUBgNVBAoTDUlOWkEtTFRELUFJU1Qx
DjAMBgNVBAMTBWlyaW5hMSEwHwYJKoZIhvcNAQkBFhJwYXZlbEBrdXN0by5jb20u
cnUwgZ8wDQYJKoZIhvcNAQEBBQADgY0AMIGJAoGBAMJEun5umLEa1WwjA9/cYhb1
+GBH3RA2TNnTU5tTOA8VN7kgsqqFunv8wSN9/DUiWz4cvMnNjxYkpVJ0XJwBlk9K
/Nr9ZgX+vEIerNPHloXoCJBeW2a6R8husfo35pG2UFOxXZ9nUy6qZ49OkOhKX5Bw
i5lXQRkVmBSudJBNfpqlAgMBAAGjggECMIH/MAkGA1UdEwQCMAAwLAYJYIZIAYb4
QgENBB8WHU9wZW5TU0wgR2VuZXJhdGVkIENlcnRpZmljYXRlMB0GA1UdDgQWBBQq
wLNrDzz8hpTi2F1MAD1FYIcOrzCBpAYDVR0jBIGcMIGZgBT2fOb7FLf2wV4DmRKq
7UDkRBJ2OKF+pHwwejELMAkGA1UEBhMCUlUxCzAJBgNVBAgTAk5BMRIwEAYDVQQH
EwlUT0dMSUFUVEkxFjAUBgNVBAoTDUlOWkEtTFRELUFJU1QxDzANBgNVBAMTBnNl
cnZlcjEhMB8GCSqGSIb3DQEJARYScGF2ZWxAa3VzdG8uY29tLnJ1ggEAMA0GCSqG
SIb3DQEBBAUAA4GBAEAPK0Z2IFz3YunENdumoxxSk7FqI7tM3skrzD3XCWALhAR8
ldTgAHV6RAg9q9cWBCbC5V5S/Pr2eSpu9bT2U+gAPU6QmsjHJ1eGWPwwr1uZvLMe
tUJcC30krMwHvlK6pvJJ/eccSjGLFyDUhppOa+fH8nBSfZlVBXrC8PbDUxbP
-----END CERTIFICATE-----
