Certificate:
    Data:
        Version: 3 (0x2)
        Serial Number: 74 (0x4a)
        Signature Algorithm: md5WithRSAEncryption
        Issuer: C=RU, ST=NA, L=TOGLIATTI, O=INZA-LTD-AIST, CN=server/emailAddress=pavel@kusto.com.ru
        Validity
            Not Before: Apr  5 05:30:09 2011 GMT
            Not After : Apr  2 05:30:09 2021 GMT
        Subject: C=RU, ST=NA, O=INZA-LTD-AIST, CN=pel20_3/emailAddress=pavel@kusto.com.ru
        Subject Public Key Info:
            Public Key Algorithm: rsaEncryption
            RSA Public Key: (1024 bit)
                Modulus (1024 bit):
                    00:f4:14:33:9f:b9:83:33:a0:b5:10:fd:77:cb:f2:
                    92:36:d7:80:22:73:28:7f:13:5e:bd:81:44:76:53:
                    37:c4:83:64:eb:0a:c7:57:88:2d:91:52:e2:cc:9e:
                    93:7b:fc:fa:a3:f8:f1:d9:10:32:bb:1a:37:8d:2d:
                    e8:1c:39:c2:9f:8d:81:60:c9:d0:1f:c4:71:01:67:
                    88:0d:ea:e3:e2:3d:41:4f:de:47:fb:6a:c3:53:6b:
                    fb:c9:77:88:c8:85:ac:99:56:69:dc:fc:a7:4a:be:
                    03:a9:4d:ad:a6:ab:d9:da:d2:70:ab:c2:99:53:91:
                    3c:4e:0d:6b:e5:af:ed:05:eb
                Exponent: 65537 (0x10001)
        X509v3 extensions:
            X509v3 Basic Constraints: 
                CA:FALSE
            Netscape Comment: 
                OpenSSL Generated Certificate
            X509v3 Subject Key Identifier: 
                A5:13:02:E4:02:C0:A9:8C:8E:7E:2C:ED:70:76:19:DE:DA:31:53:15
            X509v3 Authority Key Identifier: 
                keyid:F6:7C:E6:FB:14:B7:F6:C1:5E:03:99:12:AA:ED:40:E4:44:12:76:38
                DirName:/C=RU/ST=NA/L=TOGLIATTI/O=INZA-LTD-AIST/CN=server/emailAddress=pavel@kusto.com.ru
                serial:00

    Signature Algorithm: md5WithRSAEncryption
        92:31:54:61:46:04:b2:cd:4d:77:c8:60:e1:6f:e8:a3:87:ba:
        c5:60:91:94:9e:c5:d1:b9:c9:ce:c9:e9:ad:7d:3c:c2:bb:13:
        f0:9c:df:44:b7:16:8f:05:82:3c:63:1a:cb:96:7b:88:9f:9f:
        7b:38:77:f3:05:3e:5f:d1:83:10:af:da:83:ff:d4:4a:78:3c:
        c1:66:bc:ca:52:fd:49:2c:e8:a5:69:11:8a:a2:39:6c:8c:e3:
        a2:dd:76:45:9e:fa:77:6f:f1:f1:ca:d5:c0:66:f2:18:7c:a9:
        ec:bc:64:30:0f:22:0d:c3:db:df:6a:bd:ff:db:5a:38:d7:f6:
        96:ea
-----BEGIN CERTIFICATE-----
MIIDWzCCAsSgAwIBAgIBSjANBgkqhkiG9w0BAQQFADB6MQswCQYDVQQGEwJSVTEL
MAkGA1UECBMCTkExEjAQBgNVBAcTCVRPR0xJQVRUSTEWMBQGA1UEChMNSU5aQS1M
VEQtQUlTVDEPMA0GA1UEAxMGc2VydmVyMSEwHwYJKoZIhvcNAQkBFhJwYXZlbEBr
dXN0by5jb20ucnUwHhcNMTEwNDA1MDUzMDA5WhcNMjEwNDAyMDUzMDA5WjBnMQsw
CQYDVQQGEwJSVTELMAkGA1UECBMCTkExFjAUBgNVBAoTDUlOWkEtTFRELUFJU1Qx
EDAOBgNVBAMUB3BlbDIwXzMxITAfBgkqhkiG9w0BCQEWEnBhdmVsQGt1c3RvLmNv
bS5ydTCBnzANBgkqhkiG9w0BAQEFAAOBjQAwgYkCgYEA9BQzn7mDM6C1EP13y/KS
NteAInMofxNevYFEdlM3xINk6wrHV4gtkVLizJ6Te/z6o/jx2RAyuxo3jS3oHDnC
n42BYMnQH8RxAWeIDerj4j1BT95H+2rDU2v7yXeIyIWsmVZp3PynSr4DqU2tpqvZ
2tJwq8KZU5E8Tg1r5a/tBesCAwEAAaOCAQIwgf8wCQYDVR0TBAIwADAsBglghkgB
hvhCAQ0EHxYdT3BlblNTTCBHZW5lcmF0ZWQgQ2VydGlmaWNhdGUwHQYDVR0OBBYE
FKUTAuQCwKmMjn4s7XB2Gd7aMVMVMIGkBgNVHSMEgZwwgZmAFPZ85vsUt/bBXgOZ
EqrtQOREEnY4oX6kfDB6MQswCQYDVQQGEwJSVTELMAkGA1UECBMCTkExEjAQBgNV
BAcTCVRPR0xJQVRUSTEWMBQGA1UEChMNSU5aQS1MVEQtQUlTVDEPMA0GA1UEAxMG
c2VydmVyMSEwHwYJKoZIhvcNAQkBFhJwYXZlbEBrdXN0by5jb20ucnWCAQAwDQYJ
KoZIhvcNAQEEBQADgYEAkjFUYUYEss1Nd8hg4W/oo4e6xWCRlJ7F0bnJzsnprX08
wrsT8JzfRLcWjwWCPGMay5Z7iJ+fezh38wU+X9GDEK/ag//USng8wWa8ylL9SSzo
pWkRiqI5bIzjot12RZ76d2/x8crVwGbyGHyp7LxkMA8iDcPb32q9/9taONf2luo=
-----END CERTIFICATE-----
