Certificate:
    Data:
        Version: 3 (0x2)
        Serial Number: 83 (0x53)
        Signature Algorithm: md5WithRSAEncryption
        Issuer: C=RU, ST=NA, L=TOGLIATTI, O=INZA-LTD-AIST, CN=server/emailAddress=pavel@kusto.com.ru
        Validity
            Not Before: Jun 15 06:01:22 2011 GMT
            Not After : Jun 12 06:01:22 2021 GMT
        Subject: C=RU, ST=NA, O=INZA-LTD-AIST, CN=pel_gagarina2/emailAddress=pavel@kusto.com.ru
        Subject Public Key Info:
            Public Key Algorithm: rsaEncryption
            RSA Public Key: (1024 bit)
                Modulus (1024 bit):
                    00:cd:9f:5f:df:7e:5b:00:fc:48:ec:f0:08:c0:c7:
                    94:cb:86:99:51:43:80:6d:e4:9b:ca:ab:c4:1a:23:
                    2c:7a:8d:51:7d:d1:93:e8:91:c2:3a:39:be:31:ab:
                    a0:fa:3a:8c:4b:1d:21:67:38:39:a0:9c:6f:b1:63:
                    47:b1:08:90:6b:a7:a2:93:4f:07:19:fb:35:14:1b:
                    43:b4:97:87:c6:d6:b7:8f:92:21:c0:2c:30:05:1e:
                    da:97:8e:d8:eb:ae:81:3a:91:82:1c:43:00:c7:f5:
                    aa:20:8b:2b:7d:09:5a:f8:1c:51:4e:a8:1b:ea:e9:
                    94:45:a0:40:e5:64:e4:98:bb
                Exponent: 65537 (0x10001)
        X509v3 extensions:
            X509v3 Basic Constraints: 
                CA:FALSE
            Netscape Comment: 
                OpenSSL Generated Certificate
            X509v3 Subject Key Identifier: 
                C6:CC:77:13:EA:57:A4:8F:FE:FD:FF:C2:A6:2A:63:2B:0B:49:7A:53
            X509v3 Authority Key Identifier: 
                keyid:F6:7C:E6:FB:14:B7:F6:C1:5E:03:99:12:AA:ED:40:E4:44:12:76:38
                DirName:/C=RU/ST=NA/L=TOGLIATTI/O=INZA-LTD-AIST/CN=server/emailAddress=pavel@kusto.com.ru
                serial:00

    Signature Algorithm: md5WithRSAEncryption
        3a:e1:52:6b:2a:32:23:af:19:19:d4:68:ff:a3:c8:29:18:d7:
        60:85:61:2d:9a:4e:15:74:19:28:9a:69:88:fe:60:35:5c:06:
        fb:2e:2a:7d:bf:19:7e:2f:bd:e7:ca:8d:c7:83:5a:9e:45:86:
        5d:19:a6:80:5b:25:61:f3:f5:f1:a3:c0:ff:05:57:f6:bc:74:
        e3:41:13:ab:78:9c:a2:86:8a:e3:72:6a:ef:77:7e:31:1f:3a:
        66:2f:d9:68:0a:81:fc:66:76:9a:9e:0a:76:c8:ff:8f:94:1f:
        05:ee:90:01:bb:4e:ae:1a:b8:3a:5a:d3:cc:d9:83:05:f0:43:
        95:16
-----BEGIN CERTIFICATE-----
MIIDYTCCAsqgAwIBAgIBUzANBgkqhkiG9w0BAQQFADB6MQswCQYDVQQGEwJSVTEL
MAkGA1UECBMCTkExEjAQBgNVBAcTCVRPR0xJQVRUSTEWMBQGA1UEChMNSU5aQS1M
VEQtQUlTVDEPMA0GA1UEAxMGc2VydmVyMSEwHwYJKoZIhvcNAQkBFhJwYXZlbEBr
dXN0by5jb20ucnUwHhcNMTEwNjE1MDYwMTIyWhcNMjEwNjEyMDYwMTIyWjBtMQsw
CQYDVQQGEwJSVTELMAkGA1UECBMCTkExFjAUBgNVBAoTDUlOWkEtTFRELUFJU1Qx
FjAUBgNVBAMUDXBlbF9nYWdhcmluYTIxITAfBgkqhkiG9w0BCQEWEnBhdmVsQGt1
c3RvLmNvbS5ydTCBnzANBgkqhkiG9w0BAQEFAAOBjQAwgYkCgYEAzZ9f335bAPxI
7PAIwMeUy4aZUUOAbeSbyqvEGiMseo1RfdGT6JHCOjm+Maug+jqMSx0hZzg5oJxv
sWNHsQiQa6eik08HGfs1FBtDtJeHxta3j5IhwCwwBR7al47Y666BOpGCHEMAx/Wq
IIsrfQla+BxRTqgb6umURaBA5WTkmLsCAwEAAaOCAQIwgf8wCQYDVR0TBAIwADAs
BglghkgBhvhCAQ0EHxYdT3BlblNTTCBHZW5lcmF0ZWQgQ2VydGlmaWNhdGUwHQYD
VR0OBBYEFMbMdxPqV6SP/v3/wqYqYysLSXpTMIGkBgNVHSMEgZwwgZmAFPZ85vsU
t/bBXgOZEqrtQOREEnY4oX6kfDB6MQswCQYDVQQGEwJSVTELMAkGA1UECBMCTkEx
EjAQBgNVBAcTCVRPR0xJQVRUSTEWMBQGA1UEChMNSU5aQS1MVEQtQUlTVDEPMA0G
A1UEAxMGc2VydmVyMSEwHwYJKoZIhvcNAQkBFhJwYXZlbEBrdXN0by5jb20ucnWC
AQAwDQYJKoZIhvcNAQEEBQADgYEAOuFSayoyI68ZGdRo/6PIKRjXYIVhLZpOFXQZ
KJppiP5gNVwG+y4qfb8Zfi+958qNx4NankWGXRmmgFslYfP18aPA/wVX9rx040ET
q3icooaK43Jq73d+MR86Zi/ZaAqB/GZ2mp4Kdsj/j5QfBe6QAbtOrhq4OlrTzNmD
BfBDlRY=
-----END CERTIFICATE-----
