Certificate:
    Data:
        Version: 3 (0x2)
        Serial Number: 85 (0x55)
        Signature Algorithm: md5WithRSAEncryption
        Issuer: C=RU, ST=NA, L=TOGLIATTI, O=INZA-LTD-AIST, CN=server/emailAddress=pavel@kusto.com.ru
        Validity
            Not Before: Jun 23 06:10:42 2011 GMT
            Not After : Jun 20 06:10:42 2021 GMT
        Subject: C=RU, ST=NA, O=INZA-LTD-AIST, CN=pel15_2/emailAddress=pavel@kusto.com.ru
        Subject Public Key Info:
            Public Key Algorithm: rsaEncryption
            RSA Public Key: (1024 bit)
                Modulus (1024 bit):
                    00:bd:be:bf:84:97:de:10:d0:f9:48:6b:d1:85:37:
                    3b:a1:29:2b:9f:09:ba:85:51:cb:03:cb:6e:1e:7b:
                    4e:14:54:b6:50:7c:f6:1e:05:7b:a9:58:72:f0:62:
                    8c:25:15:81:d6:b0:91:f1:2e:83:90:4d:d7:1c:1f:
                    32:d6:1b:d3:26:f4:f7:e6:a7:62:2d:91:24:35:ec:
                    7a:43:19:0e:e9:90:15:d4:2a:ac:63:bc:01:7e:d0:
                    6c:e9:6b:24:74:cc:7f:9d:39:2e:6e:c7:ee:4a:51:
                    ac:c3:ad:13:f6:d1:d8:76:35:6a:d5:93:4c:74:93:
                    a5:dc:7c:dc:55:fa:db:99:af
                Exponent: 65537 (0x10001)
        X509v3 extensions:
            X509v3 Basic Constraints: 
                CA:FALSE
            Netscape Comment: 
                OpenSSL Generated Certificate
            X509v3 Subject Key Identifier: 
                8F:64:D3:AE:D3:A5:B3:4F:25:D9:1E:4E:95:8F:A9:6F:B1:96:8B:87
            X509v3 Authority Key Identifier: 
                keyid:F6:7C:E6:FB:14:B7:F6:C1:5E:03:99:12:AA:ED:40:E4:44:12:76:38
                DirName:/C=RU/ST=NA/L=TOGLIATTI/O=INZA-LTD-AIST/CN=server/emailAddress=pavel@kusto.com.ru
                serial:00

    Signature Algorithm: md5WithRSAEncryption
        2b:f4:03:b9:a6:c4:09:6c:b7:be:49:9e:96:dc:65:f1:ca:41:
        d1:70:da:75:b1:5e:72:9c:52:2f:aa:69:cc:1f:7a:0d:e9:d6:
        24:94:a7:20:e9:35:ad:8a:1e:02:0f:4d:37:e5:a9:12:a9:00:
        b9:07:6a:cd:f1:a3:eb:c4:f9:63:f2:a2:b2:59:d7:40:b2:e7:
        51:e5:1f:90:ea:64:6a:a6:ba:51:c3:93:78:d3:71:48:23:6f:
        33:6e:e9:0d:68:8d:ae:67:68:49:a0:07:02:c0:ef:f3:c0:43:
        de:48:e7:76:67:0f:f8:6b:e2:8f:ab:a5:85:aa:76:e6:82:fe:
        2a:61
-----BEGIN CERTIFICATE-----
MIIDWzCCAsSgAwIBAgIBVTANBgkqhkiG9w0BAQQFADB6MQswCQYDVQQGEwJSVTEL
MAkGA1UECBMCTkExEjAQBgNVBAcTCVRPR0xJQVRUSTEWMBQGA1UEChMNSU5aQS1M
VEQtQUlTVDEPMA0GA1UEAxMGc2VydmVyMSEwHwYJKoZIhvcNAQkBFhJwYXZlbEBr
dXN0by5jb20ucnUwHhcNMTEwNjIzMDYxMDQyWhcNMjEwNjIwMDYxMDQyWjBnMQsw
CQYDVQQGEwJSVTELMAkGA1UECBMCTkExFjAUBgNVBAoTDUlOWkEtTFRELUFJU1Qx
EDAOBgNVBAMUB3BlbDE1XzIxITAfBgkqhkiG9w0BCQEWEnBhdmVsQGt1c3RvLmNv
bS5ydTCBnzANBgkqhkiG9w0BAQEFAAOBjQAwgYkCgYEAvb6/hJfeEND5SGvRhTc7
oSkrnwm6hVHLA8tuHntOFFS2UHz2HgV7qVhy8GKMJRWB1rCR8S6DkE3XHB8y1hvT
JvT35qdiLZEkNex6QxkO6ZAV1CqsY7wBftBs6WskdMx/nTkubsfuSlGsw60T9tHY
djVq1ZNMdJOl3HzcVfrbma8CAwEAAaOCAQIwgf8wCQYDVR0TBAIwADAsBglghkgB
hvhCAQ0EHxYdT3BlblNTTCBHZW5lcmF0ZWQgQ2VydGlmaWNhdGUwHQYDVR0OBBYE
FI9k067TpbNPJdkeTpWPqW+xlouHMIGkBgNVHSMEgZwwgZmAFPZ85vsUt/bBXgOZ
EqrtQOREEnY4oX6kfDB6MQswCQYDVQQGEwJSVTELMAkGA1UECBMCTkExEjAQBgNV
BAcTCVRPR0xJQVRUSTEWMBQGA1UEChMNSU5aQS1MVEQtQUlTVDEPMA0GA1UEAxMG
c2VydmVyMSEwHwYJKoZIhvcNAQkBFhJwYXZlbEBrdXN0by5jb20ucnWCAQAwDQYJ
KoZIhvcNAQEEBQADgYEAK/QDuabECWy3vkmeltxl8cpB0XDadbFecpxSL6ppzB96
DenWJJSnIOk1rYoeAg9NN+WpEqkAuQdqzfGj68T5Y/KislnXQLLnUeUfkOpkaqa6
UcOTeNNxSCNvM27pDWiNrmdoSaAHAsDv88BD3kjndmcP+Gvij6ulhap25oL+KmE=
-----END CERTIFICATE-----
