Certificate:
    Data:
        Version: 3 (0x2)
        Serial Number: 88 (0x58)
        Signature Algorithm: md5WithRSAEncryption
        Issuer: C=RU, ST=NA, L=TOGLIATTI, O=INZA-LTD-AIST, CN=server/emailAddress=pavel@kusto.com.ru
        Validity
            Not Before: Jul 30 07:52:16 2011 GMT
            Not After : Jul 27 07:52:16 2021 GMT
        Subject: C=RU, ST=NA, O=INZA-LTD-AIST, CN=pel_50_let/emailAddress=pavel@kusto.com.ru
        Subject Public Key Info:
            Public Key Algorithm: rsaEncryption
            RSA Public Key: (1024 bit)
                Modulus (1024 bit):
                    00:bd:5e:a3:6e:89:97:c1:f4:42:5d:fe:93:f9:66:
                    ae:a2:45:55:3a:14:4f:c0:b8:68:e2:ca:c7:8e:d1:
                    71:b5:b4:be:21:84:c9:19:5c:8c:72:e1:9f:a3:ac:
                    ba:bb:ad:82:68:c8:a0:bb:75:dd:30:36:bc:b5:7f:
                    97:f0:5a:26:48:84:2c:ee:d9:00:ad:7c:32:c4:d7:
                    21:46:0a:9c:b3:ae:50:f8:ed:16:81:bf:4b:8f:10:
                    13:c6:94:75:62:bb:37:77:d4:d5:61:1b:18:f4:f7:
                    34:89:05:b5:1e:dc:8b:58:67:2e:29:1d:92:8e:98:
                    97:b9:cf:6f:6e:9e:0f:88:3b
                Exponent: 65537 (0x10001)
        X509v3 extensions:
            X509v3 Basic Constraints: 
                CA:FALSE
            Netscape Comment: 
                OpenSSL Generated Certificate
            X509v3 Subject Key Identifier: 
                95:33:B1:BA:51:3A:AA:64:B6:BC:A6:BB:B5:D1:91:30:5A:BC:1D:59
            X509v3 Authority Key Identifier: 
                keyid:F6:7C:E6:FB:14:B7:F6:C1:5E:03:99:12:AA:ED:40:E4:44:12:76:38
                DirName:/C=RU/ST=NA/L=TOGLIATTI/O=INZA-LTD-AIST/CN=server/emailAddress=pavel@kusto.com.ru
                serial:00

    Signature Algorithm: md5WithRSAEncryption
        97:3e:e4:13:b0:fb:55:16:c9:7a:92:87:02:ee:e9:db:97:fb:
        64:bc:4c:f5:2e:74:0f:8d:83:78:24:0b:bd:a2:76:19:7c:0c:
        d2:9f:ba:ce:49:a1:b8:12:eb:4d:4e:35:6a:ad:59:fa:a0:f5:
        c2:77:1a:9f:af:53:b3:7c:c9:ce:11:b7:b5:6b:b7:6c:57:94:
        dc:1d:4b:f9:2f:5d:d5:b8:cd:ee:82:59:85:83:85:b6:23:27:
        69:f8:68:19:9f:d5:5f:52:98:55:b2:e7:f8:5c:9e:85:d3:c1:
        cd:d1:20:c7:8b:15:bd:25:e1:93:31:95:fb:8a:1d:cd:ee:56:
        29:c1
-----BEGIN CERTIFICATE-----
MIIDXjCCAsegAwIBAgIBWDANBgkqhkiG9w0BAQQFADB6MQswCQYDVQQGEwJSVTEL
MAkGA1UECBMCTkExEjAQBgNVBAcTCVRPR0xJQVRUSTEWMBQGA1UEChMNSU5aQS1M
VEQtQUlTVDEPMA0GA1UEAxMGc2VydmVyMSEwHwYJKoZIhvcNAQkBFhJwYXZlbEBr
dXN0by5jb20ucnUwHhcNMTEwNzMwMDc1MjE2WhcNMjEwNzI3MDc1MjE2WjBqMQsw
CQYDVQQGEwJSVTELMAkGA1UECBMCTkExFjAUBgNVBAoTDUlOWkEtTFRELUFJU1Qx
EzARBgNVBAMUCnBlbF81MF9sZXQxITAfBgkqhkiG9w0BCQEWEnBhdmVsQGt1c3Rv
LmNvbS5ydTCBnzANBgkqhkiG9w0BAQEFAAOBjQAwgYkCgYEAvV6jbomXwfRCXf6T
+WauokVVOhRPwLho4srHjtFxtbS+IYTJGVyMcuGfo6y6u62CaMigu3XdMDa8tX+X
8FomSIQs7tkArXwyxNchRgqcs65Q+O0Wgb9LjxATxpR1Yrs3d9TVYRsY9Pc0iQW1
HtyLWGcuKR2SjpiXuc9vbp4PiDsCAwEAAaOCAQIwgf8wCQYDVR0TBAIwADAsBglg
hkgBhvhCAQ0EHxYdT3BlblNTTCBHZW5lcmF0ZWQgQ2VydGlmaWNhdGUwHQYDVR0O
BBYEFJUzsbpROqpktrymu7XRkTBavB1ZMIGkBgNVHSMEgZwwgZmAFPZ85vsUt/bB
XgOZEqrtQOREEnY4oX6kfDB6MQswCQYDVQQGEwJSVTELMAkGA1UECBMCTkExEjAQ
BgNVBAcTCVRPR0xJQVRUSTEWMBQGA1UEChMNSU5aQS1MVEQtQUlTVDEPMA0GA1UE
AxMGc2VydmVyMSEwHwYJKoZIhvcNAQkBFhJwYXZlbEBrdXN0by5jb20ucnWCAQAw
DQYJKoZIhvcNAQEEBQADgYEAlz7kE7D7VRbJepKHAu7p25f7ZLxM9S50D42DeCQL
vaJ2GXwM0p+6zkmhuBLrTU41aq1Z+qD1wncan69Ts3zJzhG3tWu3bFeU3B1L+S9d
1bjN7oJZhYOFtiMnafhoGZ/VX1KYVbLn+FyehdPBzdEgx4sVvSXhkzGV+4odze5W
KcE=
-----END CERTIFICATE-----
