Certificate:
    Data:
        Version: 3 (0x2)
        Serial Number: 91 (0x5b)
        Signature Algorithm: md5WithRSAEncryption
        Issuer: C=RU, ST=NA, L=TOGLIATTI, O=INZA-LTD-AIST, CN=server/emailAddress=pavel@kusto.com.ru
        Validity
            Not Before: Sep  5 12:13:29 2011 GMT
            Not After : Sep  2 12:13:29 2021 GMT
        Subject: C=RU, ST=NA, O=INZA-LTD-AIST, CN=golubev/emailAddress=pavel@kusto.com.ru
        Subject Public Key Info:
            Public Key Algorithm: rsaEncryption
            RSA Public Key: (1024 bit)
                Modulus (1024 bit):
                    00:d2:4f:f9:22:19:7f:7f:70:d5:b2:1d:9c:3c:ae:
                    93:b2:44:b9:8d:33:e7:9a:db:52:a2:ea:e9:1a:49:
                    e6:ae:38:81:13:14:14:4a:95:70:f8:4d:8a:c2:4e:
                    71:bd:59:60:11:05:ac:82:c6:6e:a8:d7:2a:57:ec:
                    3c:d5:bf:77:ad:85:aa:66:7e:98:73:2c:ca:0a:c0:
                    00:51:f3:a8:d0:3a:08:47:39:87:eb:78:c5:ab:04:
                    60:29:58:eb:3a:aa:f3:4c:89:2f:81:59:1d:13:f7:
                    1b:ae:4c:76:2b:0a:e3:d5:d2:5a:0f:84:af:c5:8d:
                    04:a9:9d:95:25:6c:e5:5e:f3
                Exponent: 65537 (0x10001)
        X509v3 extensions:
            X509v3 Basic Constraints: 
                CA:FALSE
            Netscape Comment: 
                OpenSSL Generated Certificate
            X509v3 Subject Key Identifier: 
                DC:BF:8B:FF:26:05:14:E0:1A:F8:4B:A1:AA:09:A9:DD:63:77:24:B0
            X509v3 Authority Key Identifier: 
                keyid:F6:7C:E6:FB:14:B7:F6:C1:5E:03:99:12:AA:ED:40:E4:44:12:76:38
                DirName:/C=RU/ST=NA/L=TOGLIATTI/O=INZA-LTD-AIST/CN=server/emailAddress=pavel@kusto.com.ru
                serial:00

    Signature Algorithm: md5WithRSAEncryption
        a4:cf:74:e8:b9:31:bf:03:8c:4a:aa:96:e1:15:f7:55:73:11:
        bc:73:ed:c3:eb:c8:96:ff:3d:7d:f9:1c:9c:9f:57:7a:10:15:
        0e:89:ca:d8:de:8b:8d:4f:64:34:b7:ec:4f:a3:f6:d4:95:93:
        cc:1b:0e:57:a7:7a:4b:0a:59:84:d4:b6:dd:ab:03:ef:60:e2:
        72:bb:d4:1f:23:69:25:c0:87:6f:20:e8:59:c0:a3:f2:54:35:
        4e:7f:7a:6a:e1:ba:e1:3b:9d:01:65:b4:7d:31:fe:97:b9:76:
        f7:c3:08:b2:cf:b5:de:26:5d:e2:5d:39:1e:78:65:9c:a0:6e:
        b2:52
-----BEGIN CERTIFICATE-----
MIIDWzCCAsSgAwIBAgIBWzANBgkqhkiG9w0BAQQFADB6MQswCQYDVQQGEwJSVTEL
MAkGA1UECBMCTkExEjAQBgNVBAcTCVRPR0xJQVRUSTEWMBQGA1UEChMNSU5aQS1M
VEQtQUlTVDEPMA0GA1UEAxMGc2VydmVyMSEwHwYJKoZIhvcNAQkBFhJwYXZlbEBr
dXN0by5jb20ucnUwHhcNMTEwOTA1MTIxMzI5WhcNMjEwOTAyMTIxMzI5WjBnMQsw
CQYDVQQGEwJSVTELMAkGA1UECBMCTkExFjAUBgNVBAoTDUlOWkEtTFRELUFJU1Qx
EDAOBgNVBAMTB2dvbHViZXYxITAfBgkqhkiG9w0BCQEWEnBhdmVsQGt1c3RvLmNv
bS5ydTCBnzANBgkqhkiG9w0BAQEFAAOBjQAwgYkCgYEA0k/5Ihl/f3DVsh2cPK6T
skS5jTPnmttSourpGknmrjiBExQUSpVw+E2Kwk5xvVlgEQWsgsZuqNcqV+w81b93
rYWqZn6YcyzKCsAAUfOo0DoIRzmH63jFqwRgKVjrOqrzTIkvgVkdE/cbrkx2Kwrj
1dJaD4SvxY0EqZ2VJWzlXvMCAwEAAaOCAQIwgf8wCQYDVR0TBAIwADAsBglghkgB
hvhCAQ0EHxYdT3BlblNTTCBHZW5lcmF0ZWQgQ2VydGlmaWNhdGUwHQYDVR0OBBYE
FNy/i/8mBRTgGvhLoaoJqd1jdySwMIGkBgNVHSMEgZwwgZmAFPZ85vsUt/bBXgOZ
EqrtQOREEnY4oX6kfDB6MQswCQYDVQQGEwJSVTELMAkGA1UECBMCTkExEjAQBgNV
BAcTCVRPR0xJQVRUSTEWMBQGA1UEChMNSU5aQS1MVEQtQUlTVDEPMA0GA1UEAxMG
c2VydmVyMSEwHwYJKoZIhvcNAQkBFhJwYXZlbEBrdXN0by5jb20ucnWCAQAwDQYJ
KoZIhvcNAQEEBQADgYEApM906LkxvwOMSqqW4RX3VXMRvHPtw+vIlv89ffkcnJ9X
ehAVDonK2N6LjU9kNLfsT6P21JWTzBsOV6d6SwpZhNS23asD72DicrvUHyNpJcCH
byDoWcCj8lQ1Tn96auG64TudAWW0fTH+l7l298MIss+13iZd4l05HnhlnKBuslI=
-----END CERTIFICATE-----
