Certificate:
    Data:
        Version: 3 (0x2)
        Serial Number: 94 (0x5e)
        Signature Algorithm: md5WithRSAEncryption
        Issuer: C=RU, ST=NA, L=TOGLIATTI, O=INZA-LTD-AIST, CN=server/emailAddress=pavel@kusto.com.ru
        Validity
            Not Before: Oct 12 06:14:51 2011 GMT
            Not After : Oct  9 06:14:51 2021 GMT
        Subject: C=RU, ST=NA, O=INZA-LTD-AIST, CN=pel11_3/emailAddress=pavel@kusto.com.ru
        Subject Public Key Info:
            Public Key Algorithm: rsaEncryption
            RSA Public Key: (1024 bit)
                Modulus (1024 bit):
                    00:ba:5b:b0:99:f7:9c:51:42:d6:d1:7b:b1:ac:12:
                    47:8a:e4:e0:93:c4:20:de:3c:d7:e1:ff:e0:d2:6f:
                    a6:eb:34:24:93:30:b0:57:d3:24:5e:7e:0c:e1:0c:
                    d6:e7:3a:32:67:d0:83:33:2a:92:15:b4:e6:35:04:
                    5d:9f:2a:5c:a1:d7:2d:5d:e4:13:71:9a:7f:e6:ea:
                    04:fa:27:bb:2b:29:bb:74:a6:94:23:bc:17:be:40:
                    0d:fc:37:cd:dc:9b:d8:24:e5:5e:50:87:ff:2b:13:
                    9e:3d:44:0d:ae:b7:20:09:f8:eb:3c:39:80:15:d8:
                    5b:4a:da:19:aa:7b:1f:32:51
                Exponent: 65537 (0x10001)
        X509v3 extensions:
            X509v3 Basic Constraints: 
                CA:FALSE
            Netscape Comment: 
                OpenSSL Generated Certificate
            X509v3 Subject Key Identifier: 
                F9:29:3F:D1:B4:C7:41:E6:C9:21:66:92:C2:5E:A7:E3:23:9D:CD:0A
            X509v3 Authority Key Identifier: 
                keyid:F6:7C:E6:FB:14:B7:F6:C1:5E:03:99:12:AA:ED:40:E4:44:12:76:38
                DirName:/C=RU/ST=NA/L=TOGLIATTI/O=INZA-LTD-AIST/CN=server/emailAddress=pavel@kusto.com.ru
                serial:00

    Signature Algorithm: md5WithRSAEncryption
        c0:e1:f9:d5:6b:ab:77:fe:35:65:c6:ce:87:5f:8c:cd:f1:16:
        5e:bf:e5:a7:5f:7b:81:cf:48:4a:55:92:80:6f:d3:1f:3f:2e:
        61:bf:45:c7:67:6c:9b:df:bd:f4:d2:25:f1:8d:a9:41:7f:9f:
        df:86:e0:ff:d2:94:81:1c:c0:ed:f6:87:c7:73:e1:67:e0:eb:
        65:13:56:c3:9b:9a:88:2f:a0:fb:d1:86:80:41:0d:e5:d5:0c:
        03:bb:66:c9:91:69:6c:ca:8c:a9:f0:ab:02:b9:bb:2e:bc:34:
        f4:4e:07:99:8c:db:5a:51:88:c1:c3:d1:a5:bf:7c:9e:ee:41:
        06:49
-----BEGIN CERTIFICATE-----
MIIDWzCCAsSgAwIBAgIBXjANBgkqhkiG9w0BAQQFADB6MQswCQYDVQQGEwJSVTEL
MAkGA1UECBMCTkExEjAQBgNVBAcTCVRPR0xJQVRUSTEWMBQGA1UEChMNSU5aQS1M
VEQtQUlTVDEPMA0GA1UEAxMGc2VydmVyMSEwHwYJKoZIhvcNAQkBFhJwYXZlbEBr
dXN0by5jb20ucnUwHhcNMTExMDEyMDYxNDUxWhcNMjExMDA5MDYxNDUxWjBnMQsw
CQYDVQQGEwJSVTELMAkGA1UECBMCTkExFjAUBgNVBAoTDUlOWkEtTFRELUFJU1Qx
EDAOBgNVBAMUB3BlbDExXzMxITAfBgkqhkiG9w0BCQEWEnBhdmVsQGt1c3RvLmNv
bS5ydTCBnzANBgkqhkiG9w0BAQEFAAOBjQAwgYkCgYEAuluwmfecUULW0XuxrBJH
iuTgk8Qg3jzX4f/g0m+m6zQkkzCwV9MkXn4M4QzW5zoyZ9CDMyqSFbTmNQRdnypc
odctXeQTcZp/5uoE+ie7Kym7dKaUI7wXvkAN/DfN3JvYJOVeUIf/KxOePUQNrrcg
CfjrPDmAFdhbStoZqnsfMlECAwEAAaOCAQIwgf8wCQYDVR0TBAIwADAsBglghkgB
hvhCAQ0EHxYdT3BlblNTTCBHZW5lcmF0ZWQgQ2VydGlmaWNhdGUwHQYDVR0OBBYE
FPkpP9G0x0HmySFmksJep+Mjnc0KMIGkBgNVHSMEgZwwgZmAFPZ85vsUt/bBXgOZ
EqrtQOREEnY4oX6kfDB6MQswCQYDVQQGEwJSVTELMAkGA1UECBMCTkExEjAQBgNV
BAcTCVRPR0xJQVRUSTEWMBQGA1UEChMNSU5aQS1MVEQtQUlTVDEPMA0GA1UEAxMG
c2VydmVyMSEwHwYJKoZIhvcNAQkBFhJwYXZlbEBrdXN0by5jb20ucnWCAQAwDQYJ
KoZIhvcNAQEEBQADgYEAwOH51Wurd/41ZcbOh1+MzfEWXr/lp197gc9ISlWSgG/T
Hz8uYb9Fx2dsm9+99NIl8Y2pQX+f34bg/9KUgRzA7faHx3PhZ+DrZRNWw5uaiC+g
+9GGgEEN5dUMA7tmyZFpbMqMqfCrArm7Lrw09E4HmYzbWlGIwcPRpb98nu5BBkk=
-----END CERTIFICATE-----
