Certificate:
    Data:
        Version: 3 (0x2)
        Serial Number: 99 (0x63)
        Signature Algorithm: md5WithRSAEncryption
        Issuer: C=RU, ST=NA, L=TOGLIATTI, O=INZA-LTD-AIST, CN=server/emailAddress=pavel@kusto.com.ru
        Validity
            Not Before: Feb 21 09:13:08 2012 GMT
            Not After : Feb 18 09:13:08 2022 GMT
        Subject: C=RU, ST=NA, O=INZA-LTD-AIST, CN=p14_4/emailAddress=pavel@kusto.com.ru
        Subject Public Key Info:
            Public Key Algorithm: rsaEncryption
            RSA Public Key: (1024 bit)
                Modulus (1024 bit):
                    00:a0:d6:7d:68:19:e6:6b:22:06:66:86:86:b7:41:
                    01:3b:05:25:a6:94:62:f7:5d:ef:5d:09:25:4f:68:
                    49:44:14:3e:62:6c:39:3e:e8:1c:b7:89:2d:44:78:
                    8f:6d:58:5a:35:d3:ac:f4:82:27:ae:d7:d4:ed:1f:
                    df:72:6c:bd:59:7c:c3:4d:69:b1:2e:08:70:a1:0a:
                    d4:ee:7f:7b:48:e8:6a:44:f5:44:41:b3:30:2f:92:
                    34:92:04:fc:a2:0c:27:f5:05:25:ee:80:00:03:0a:
                    63:c4:8a:15:38:d3:1f:c7:4d:47:b0:df:0e:53:99:
                    67:58:cf:68:ba:0b:3f:64:d1
                Exponent: 65537 (0x10001)
        X509v3 extensions:
            X509v3 Basic Constraints: 
                CA:FALSE
            Netscape Comment: 
                OpenSSL Generated Certificate
            X509v3 Subject Key Identifier: 
                B7:39:8D:48:CB:37:C1:DC:5A:33:14:62:EF:07:A3:55:1C:D3:45:6B
            X509v3 Authority Key Identifier: 
                keyid:F6:7C:E6:FB:14:B7:F6:C1:5E:03:99:12:AA:ED:40:E4:44:12:76:38
                DirName:/C=RU/ST=NA/L=TOGLIATTI/O=INZA-LTD-AIST/CN=server/emailAddress=pavel@kusto.com.ru
                serial:00

    Signature Algorithm: md5WithRSAEncryption
        d2:f2:e3:f1:e3:23:1d:5f:fd:64:f7:88:ed:09:4d:26:bc:2a:
        29:68:20:37:0c:1a:f3:7d:1e:8b:1a:ad:af:0a:4e:c5:b6:8e:
        33:ac:d8:9d:c8:9f:e4:01:27:5e:a2:a6:d9:d8:b4:4e:ad:3e:
        13:bc:33:8f:0d:03:09:b6:bc:9a:e1:06:9b:b1:75:c1:aa:33:
        72:eb:55:01:66:dd:be:51:a1:0a:6d:16:30:66:ef:e1:ca:ab:
        4c:49:fa:9e:c9:fa:47:de:24:f8:5e:99:1b:3d:f5:4a:48:2b:
        06:95:e4:bd:b7:bd:87:f8:db:49:98:e7:a1:7a:09:c8:aa:29:
        68:59
-----BEGIN CERTIFICATE-----
MIIDWTCCAsKgAwIBAgIBYzANBgkqhkiG9w0BAQQFADB6MQswCQYDVQQGEwJSVTEL
MAkGA1UECBMCTkExEjAQBgNVBAcTCVRPR0xJQVRUSTEWMBQGA1UEChMNSU5aQS1M
VEQtQUlTVDEPMA0GA1UEAxMGc2VydmVyMSEwHwYJKoZIhvcNAQkBFhJwYXZlbEBr
dXN0by5jb20ucnUwHhcNMTIwMjIxMDkxMzA4WhcNMjIwMjE4MDkxMzA4WjBlMQsw
CQYDVQQGEwJSVTELMAkGA1UECBMCTkExFjAUBgNVBAoTDUlOWkEtTFRELUFJU1Qx
DjAMBgNVBAMUBXAxNF80MSEwHwYJKoZIhvcNAQkBFhJwYXZlbEBrdXN0by5jb20u
cnUwgZ8wDQYJKoZIhvcNAQEBBQADgY0AMIGJAoGBAKDWfWgZ5msiBmaGhrdBATsF
JaaUYvdd710JJU9oSUQUPmJsOT7oHLeJLUR4j21YWjXTrPSCJ67X1O0f33JsvVl8
w01psS4IcKEK1O5/e0joakT1REGzMC+SNJIE/KIMJ/UFJe6AAAMKY8SKFTjTH8dN
R7DfDlOZZ1jPaLoLP2TRAgMBAAGjggECMIH/MAkGA1UdEwQCMAAwLAYJYIZIAYb4
QgENBB8WHU9wZW5TU0wgR2VuZXJhdGVkIENlcnRpZmljYXRlMB0GA1UdDgQWBBS3
OY1IyzfB3FozFGLvB6NVHNNFazCBpAYDVR0jBIGcMIGZgBT2fOb7FLf2wV4DmRKq
7UDkRBJ2OKF+pHwwejELMAkGA1UEBhMCUlUxCzAJBgNVBAgTAk5BMRIwEAYDVQQH
EwlUT0dMSUFUVEkxFjAUBgNVBAoTDUlOWkEtTFRELUFJU1QxDzANBgNVBAMTBnNl
cnZlcjEhMB8GCSqGSIb3DQEJARYScGF2ZWxAa3VzdG8uY29tLnJ1ggEAMA0GCSqG
SIb3DQEBBAUAA4GBANLy4/HjIx1f/WT3iO0JTSa8KiloIDcMGvN9Hosara8KTsW2
jjOs2J3In+QBJ16iptnYtE6tPhO8M48NAwm2vJrhBpuxdcGqM3LrVQFm3b5RoQpt
FjBm7+HKq0xJ+p7J+kfeJPhemRs99UpIKwaV5L23vYf420mY56F6CciqKWhZ
-----END CERTIFICATE-----
