Certificate:
    Data:
        Version: 3 (0x2)
        Serial Number: 100 (0x64)
        Signature Algorithm: md5WithRSAEncryption
        Issuer: C=RU, ST=NA, L=TOGLIATTI, O=INZA-LTD-AIST, CN=server/emailAddress=pavel@kusto.com.ru
        Validity
            Not Before: Feb 28 08:05:52 2012 GMT
            Not After : Feb 25 08:05:52 2022 GMT
        Subject: C=RU, ST=NA, O=INZA-LTD-AIST, CN=s_artur/emailAddress=pavel@kusto.com.ru
        Subject Public Key Info:
            Public Key Algorithm: rsaEncryption
            RSA Public Key: (1024 bit)
                Modulus (1024 bit):
                    00:e5:d1:f4:2a:95:fe:e6:99:6a:1f:33:42:50:5c:
                    0c:7c:3e:0f:cb:f7:bb:5e:8a:b1:10:8f:07:5a:f5:
                    21:6d:50:51:d4:8b:ec:45:43:f2:26:5e:13:b6:36:
                    d1:8a:69:79:ad:66:6e:d5:4a:cd:4c:ff:0a:f2:3a:
                    22:03:30:5a:d3:3d:0c:f6:d1:65:b6:b2:a1:4d:ac:
                    bd:53:8d:37:27:bb:77:fa:eb:2f:2e:56:52:2d:3a:
                    1c:02:30:83:bc:9e:37:43:56:0a:ba:e8:4a:52:af:
                    d0:11:3e:b7:dd:82:94:24:e0:32:bc:8b:6b:a4:8c:
                    ac:09:db:d9:6e:0f:4e:f9:2f
                Exponent: 65537 (0x10001)
        X509v3 extensions:
            X509v3 Basic Constraints: 
                CA:FALSE
            Netscape Comment: 
                OpenSSL Generated Certificate
            X509v3 Subject Key Identifier: 
                FF:5F:BD:F2:99:F5:04:AD:28:6C:9F:37:12:DA:A7:F8:23:9A:3C:14
            X509v3 Authority Key Identifier: 
                keyid:F6:7C:E6:FB:14:B7:F6:C1:5E:03:99:12:AA:ED:40:E4:44:12:76:38
                DirName:/C=RU/ST=NA/L=TOGLIATTI/O=INZA-LTD-AIST/CN=server/emailAddress=pavel@kusto.com.ru
                serial:00

    Signature Algorithm: md5WithRSAEncryption
        8e:f2:11:30:99:b0:bd:b4:de:24:95:18:34:61:e2:c1:80:83:
        45:e4:e1:e6:af:e1:f3:e5:96:0d:c4:7b:d2:15:b8:05:50:c7:
        34:38:5c:54:94:33:44:c2:85:30:13:4a:04:36:31:05:cb:26:
        c4:94:50:0c:82:ae:52:1c:99:56:cc:f2:07:67:36:a5:04:9c:
        29:23:ee:0e:76:9a:84:2d:c7:ee:09:10:4e:bb:94:0c:2c:ca:
        e8:60:e0:b8:be:2f:05:08:27:8d:26:ff:55:55:9f:fa:e2:41:
        e5:b2:b5:d9:13:63:7c:b9:da:d8:73:48:66:4f:54:80:a6:e4:
        af:dd
-----BEGIN CERTIFICATE-----
MIIDWzCCAsSgAwIBAgIBZDANBgkqhkiG9w0BAQQFADB6MQswCQYDVQQGEwJSVTEL
MAkGA1UECBMCTkExEjAQBgNVBAcTCVRPR0xJQVRUSTEWMBQGA1UEChMNSU5aQS1M
VEQtQUlTVDEPMA0GA1UEAxMGc2VydmVyMSEwHwYJKoZIhvcNAQkBFhJwYXZlbEBr
dXN0by5jb20ucnUwHhcNMTIwMjI4MDgwNTUyWhcNMjIwMjI1MDgwNTUyWjBnMQsw
CQYDVQQGEwJSVTELMAkGA1UECBMCTkExFjAUBgNVBAoTDUlOWkEtTFRELUFJU1Qx
EDAOBgNVBAMUB3NfYXJ0dXIxITAfBgkqhkiG9w0BCQEWEnBhdmVsQGt1c3RvLmNv
bS5ydTCBnzANBgkqhkiG9w0BAQEFAAOBjQAwgYkCgYEA5dH0KpX+5plqHzNCUFwM
fD4Py/e7XoqxEI8HWvUhbVBR1IvsRUPyJl4TtjbRiml5rWZu1UrNTP8K8joiAzBa
0z0M9tFltrKhTay9U403J7t3+usvLlZSLTocAjCDvJ43Q1YKuuhKUq/QET633YKU
JOAyvItrpIysCdvZbg9O+S8CAwEAAaOCAQIwgf8wCQYDVR0TBAIwADAsBglghkgB
hvhCAQ0EHxYdT3BlblNTTCBHZW5lcmF0ZWQgQ2VydGlmaWNhdGUwHQYDVR0OBBYE
FP9fvfKZ9QStKGyfNxLap/gjmjwUMIGkBgNVHSMEgZwwgZmAFPZ85vsUt/bBXgOZ
EqrtQOREEnY4oX6kfDB6MQswCQYDVQQGEwJSVTELMAkGA1UECBMCTkExEjAQBgNV
BAcTCVRPR0xJQVRUSTEWMBQGA1UEChMNSU5aQS1MVEQtQUlTVDEPMA0GA1UEAxMG
c2VydmVyMSEwHwYJKoZIhvcNAQkBFhJwYXZlbEBrdXN0by5jb20ucnWCAQAwDQYJ
KoZIhvcNAQEEBQADgYEAjvIRMJmwvbTeJJUYNGHiwYCDReTh5q/h8+WWDcR70hW4
BVDHNDhcVJQzRMKFMBNKBDYxBcsmxJRQDIKuUhyZVszyB2c2pQScKSPuDnaahC3H
7gkQTruUDCzK6GDguL4vBQgnjSb/VVWf+uJB5bK12RNjfLna2HNIZk9UgKbkr90=
-----END CERTIFICATE-----
