Certificate:
    Data:
        Version: 3 (0x2)
        Serial Number: 115 (0x73)
        Signature Algorithm: md5WithRSAEncryption
        Issuer: C=RU, ST=NA, L=TOGLIATTI, O=INZA-LTD-AIST, CN=server/emailAddress=pavel@kusto.com.ru
        Validity
            Not Before: Aug 16 06:08:04 2012 GMT
            Not After : Aug 14 06:08:04 2022 GMT
        Subject: C=RU, ST=NA, O=INZA-LTD-AIST, CN=oleg/emailAddress=pavel@kusto.com.ru
        Subject Public Key Info:
            Public Key Algorithm: rsaEncryption
            RSA Public Key: (1024 bit)
                Modulus (1024 bit):
                    00:9f:7c:95:fb:58:e5:24:ea:90:51:5e:c5:a6:59:
                    9c:02:d2:d7:ff:5d:8b:2e:10:b5:2b:8d:6c:7b:01:
                    cf:c1:90:69:01:f2:15:ac:e8:05:d2:4e:57:65:69:
                    8f:57:63:f3:56:c0:50:50:f6:43:3c:2d:9a:a1:0b:
                    d7:8b:66:19:8f:d0:9a:43:78:42:c1:d4:59:f4:df:
                    03:c7:2f:16:04:25:e1:dc:62:94:f9:06:a7:b9:c2:
                    34:9b:7f:b5:67:77:88:9f:3f:f5:5a:90:15:0a:86:
                    38:88:c9:3f:c3:07:c7:59:82:5e:83:f3:fc:e8:05:
                    7b:10:cf:e5:56:a7:5a:c3:4d
                Exponent: 65537 (0x10001)
        X509v3 extensions:
            X509v3 Basic Constraints: 
                CA:FALSE
            Netscape Comment: 
                OpenSSL Generated Certificate
            X509v3 Subject Key Identifier: 
                4A:24:5E:D3:85:43:84:7B:CF:96:CA:94:31:76:56:00:16:96:2E:E9
            X509v3 Authority Key Identifier: 
                keyid:F6:7C:E6:FB:14:B7:F6:C1:5E:03:99:12:AA:ED:40:E4:44:12:76:38
                DirName:/C=RU/ST=NA/L=TOGLIATTI/O=INZA-LTD-AIST/CN=server/emailAddress=pavel@kusto.com.ru
                serial:00

    Signature Algorithm: md5WithRSAEncryption
        c7:ba:b7:3d:a2:2e:2c:5c:b7:f1:c4:bc:1e:13:1e:e6:4c:2e:
        d7:b8:e3:12:b5:3d:9b:b9:cc:fc:75:70:b0:54:c1:78:97:d0:
        22:80:6a:10:43:95:00:e5:95:2e:2a:ab:20:12:9d:f1:f0:92:
        8a:96:9f:63:e4:e4:92:80:c8:c4:e8:b6:4a:6b:5a:97:7b:bc:
        60:e3:a8:77:36:19:41:35:bc:a6:46:85:f8:24:5e:7e:68:34:
        5a:36:2f:dc:dc:7f:a0:eb:6e:9c:d5:6c:8d:56:a1:5b:05:85:
        bd:f3:24:e6:54:b6:19:18:e2:d8:95:65:e8:87:73:78:75:eb:
        b7:4b
-----BEGIN CERTIFICATE-----
MIIDWDCCAsGgAwIBAgIBczANBgkqhkiG9w0BAQQFADB6MQswCQYDVQQGEwJSVTEL
MAkGA1UECBMCTkExEjAQBgNVBAcTCVRPR0xJQVRUSTEWMBQGA1UEChMNSU5aQS1M
VEQtQUlTVDEPMA0GA1UEAxMGc2VydmVyMSEwHwYJKoZIhvcNAQkBFhJwYXZlbEBr
dXN0by5jb20ucnUwHhcNMTIwODE2MDYwODA0WhcNMjIwODE0MDYwODA0WjBkMQsw
CQYDVQQGEwJSVTELMAkGA1UECBMCTkExFjAUBgNVBAoTDUlOWkEtTFRELUFJU1Qx
DTALBgNVBAMTBG9sZWcxITAfBgkqhkiG9w0BCQEWEnBhdmVsQGt1c3RvLmNvbS5y
dTCBnzANBgkqhkiG9w0BAQEFAAOBjQAwgYkCgYEAn3yV+1jlJOqQUV7FplmcAtLX
/12LLhC1K41sewHPwZBpAfIVrOgF0k5XZWmPV2PzVsBQUPZDPC2aoQvXi2YZj9Ca
Q3hCwdRZ9N8Dxy8WBCXh3GKU+QanucI0m3+1Z3eInz/1WpAVCoY4iMk/wwfHWYJe
g/P86AV7EM/lVqdaw00CAwEAAaOCAQIwgf8wCQYDVR0TBAIwADAsBglghkgBhvhC
AQ0EHxYdT3BlblNTTCBHZW5lcmF0ZWQgQ2VydGlmaWNhdGUwHQYDVR0OBBYEFEok
XtOFQ4R7z5bKlDF2VgAWli7pMIGkBgNVHSMEgZwwgZmAFPZ85vsUt/bBXgOZEqrt
QOREEnY4oX6kfDB6MQswCQYDVQQGEwJSVTELMAkGA1UECBMCTkExEjAQBgNVBAcT
CVRPR0xJQVRUSTEWMBQGA1UEChMNSU5aQS1MVEQtQUlTVDEPMA0GA1UEAxMGc2Vy
dmVyMSEwHwYJKoZIhvcNAQkBFhJwYXZlbEBrdXN0by5jb20ucnWCAQAwDQYJKoZI
hvcNAQEEBQADgYEAx7q3PaIuLFy38cS8HhMe5kwu17jjErU9m7nM/HVwsFTBeJfQ
IoBqEEOVAOWVLiqrIBKd8fCSipafY+TkkoDIxOi2Smtal3u8YOOodzYZQTW8pkaF
+CRefmg0WjYv3Nx/oOtunNVsjVahWwWFvfMk5lS2GRji2JVl6IdzeHXrt0s=
-----END CERTIFICATE-----
