Certificate:
    Data:
        Version: 3 (0x2)
        Serial Number: 117 (0x75)
        Signature Algorithm: md5WithRSAEncryption
        Issuer: C=RU, ST=NA, L=TOGLIATTI, O=INZA-LTD-AIST, CN=server/emailAddress=pavel@kusto.com.ru
        Validity
            Not Before: Sep  7 11:37:36 2012 GMT
            Not After : Sep  5 11:37:36 2022 GMT
        Subject: C=RU, ST=NA, O=INZA-LTD-AIST, CN=meandr_mono/emailAddress=pavel@kusto.com.ru
        Subject Public Key Info:
            Public Key Algorithm: rsaEncryption
            RSA Public Key: (1024 bit)
                Modulus (1024 bit):
                    00:b2:00:52:0f:4b:2f:0e:eb:f1:25:12:87:00:f3:
                    7f:03:01:80:0f:7e:ee:80:cf:5e:de:76:0e:78:0f:
                    5a:0d:fe:fb:94:c6:00:d5:f8:cc:31:5e:38:f9:62:
                    ec:d9:73:32:5d:07:b0:30:3e:60:f7:32:23:b5:b2:
                    53:51:e8:83:e6:a6:37:73:c5:9f:63:1f:b8:a8:c2:
                    2a:1d:ea:84:fa:d9:42:21:45:0b:e4:ea:fc:ce:35:
                    24:fd:17:a4:cf:c1:f2:4e:d8:ce:2d:bb:9e:4a:53:
                    d3:b5:19:ec:9c:3b:88:88:de:0c:9d:7a:61:46:74:
                    a9:17:9b:fa:6a:6f:71:77:89
                Exponent: 65537 (0x10001)
        X509v3 extensions:
            X509v3 Basic Constraints: 
                CA:FALSE
            Netscape Comment: 
                OpenSSL Generated Certificate
            X509v3 Subject Key Identifier: 
                E0:DE:AF:56:8C:29:AD:2C:1A:FE:D6:79:0B:B6:4C:63:EE:47:B7:22
            X509v3 Authority Key Identifier: 
                keyid:F6:7C:E6:FB:14:B7:F6:C1:5E:03:99:12:AA:ED:40:E4:44:12:76:38
                DirName:/C=RU/ST=NA/L=TOGLIATTI/O=INZA-LTD-AIST/CN=server/emailAddress=pavel@kusto.com.ru
                serial:00

    Signature Algorithm: md5WithRSAEncryption
        41:e0:c2:bf:aa:c5:43:e9:1e:2e:ae:cd:c4:a0:ae:fc:46:f6:
        d6:46:58:3b:7d:22:26:07:ff:7a:0e:aa:06:8b:f4:e9:28:0a:
        db:68:37:0f:f8:9b:db:ea:e7:d8:61:cc:2b:f0:5b:7a:1e:7d:
        60:8f:20:f3:d4:1b:3d:1c:f7:47:9d:00:bd:4a:19:76:85:7c:
        bf:de:de:eb:f4:96:54:8b:19:5d:f1:19:cd:66:32:17:bc:37:
        ab:f2:3b:aa:8d:bf:07:c7:ca:49:a1:d1:97:2b:55:51:90:5a:
        d6:0d:73:be:ee:ac:72:6f:5d:b4:ff:0a:c6:d9:42:9a:4e:7c:
        34:3d
-----BEGIN CERTIFICATE-----
MIIDXzCCAsigAwIBAgIBdTANBgkqhkiG9w0BAQQFADB6MQswCQYDVQQGEwJSVTEL
MAkGA1UECBMCTkExEjAQBgNVBAcTCVRPR0xJQVRUSTEWMBQGA1UEChMNSU5aQS1M
VEQtQUlTVDEPMA0GA1UEAxMGc2VydmVyMSEwHwYJKoZIhvcNAQkBFhJwYXZlbEBr
dXN0by5jb20ucnUwHhcNMTIwOTA3MTEzNzM2WhcNMjIwOTA1MTEzNzM2WjBrMQsw
CQYDVQQGEwJSVTELMAkGA1UECBMCTkExFjAUBgNVBAoTDUlOWkEtTFRELUFJU1Qx
FDASBgNVBAMUC21lYW5kcl9tb25vMSEwHwYJKoZIhvcNAQkBFhJwYXZlbEBrdXN0
by5jb20ucnUwgZ8wDQYJKoZIhvcNAQEBBQADgY0AMIGJAoGBALIAUg9LLw7r8SUS
hwDzfwMBgA9+7oDPXt52DngPWg3++5TGANX4zDFeOPli7NlzMl0HsDA+YPcyI7Wy
U1Hog+amN3PFn2MfuKjCKh3qhPrZQiFFC+Tq/M41JP0XpM/B8k7Yzi27nkpT07UZ
7Jw7iIjeDJ16YUZ0qReb+mpvcXeJAgMBAAGjggECMIH/MAkGA1UdEwQCMAAwLAYJ
YIZIAYb4QgENBB8WHU9wZW5TU0wgR2VuZXJhdGVkIENlcnRpZmljYXRlMB0GA1Ud
DgQWBBTg3q9WjCmtLBr+1nkLtkxj7ke3IjCBpAYDVR0jBIGcMIGZgBT2fOb7FLf2
wV4DmRKq7UDkRBJ2OKF+pHwwejELMAkGA1UEBhMCUlUxCzAJBgNVBAgTAk5BMRIw
EAYDVQQHEwlUT0dMSUFUVEkxFjAUBgNVBAoTDUlOWkEtTFRELUFJU1QxDzANBgNV
BAMTBnNlcnZlcjEhMB8GCSqGSIb3DQEJARYScGF2ZWxAa3VzdG8uY29tLnJ1ggEA
MA0GCSqGSIb3DQEBBAUAA4GBAEHgwr+qxUPpHi6uzcSgrvxG9tZGWDt9IiYH/3oO
qgaL9OkoCttoNw/4m9vq59hhzCvwW3oefWCPIPPUGz0c90edAL1KGXaFfL/e3uv0
llSLGV3xGc1mMhe8N6vyO6qNvwfHykmh0ZcrVVGQWtYNc77urHJvXbT/CsbZQppO
fDQ9
-----END CERTIFICATE-----
