Certificate:
    Data:
        Version: 3 (0x2)
        Serial Number: 123 (0x7b)
        Signature Algorithm: md5WithRSAEncryption
        Issuer: C=RU, ST=NA, L=TOGLIATTI, O=INZA-LTD-AIST, CN=server/emailAddress=pavel@kusto.com.ru
        Validity
            Not Before: Sep 25 06:04:30 2012 GMT
            Not After : Sep 23 06:04:30 2022 GMT
        Subject: C=RU, ST=NA, O=INZA-LTD-AIST, CN=p_8/emailAddress=pavel@kusto.com.ru
        Subject Public Key Info:
            Public Key Algorithm: rsaEncryption
            RSA Public Key: (1024 bit)
                Modulus (1024 bit):
                    00:bb:4f:c8:13:f1:b0:a5:09:00:62:c2:0a:97:97:
                    20:62:bb:6e:ca:94:62:c7:04:76:f4:c2:2e:8d:02:
                    a7:5d:02:1f:43:f2:59:2e:7f:56:ea:96:25:c5:8a:
                    0e:32:f1:94:76:87:05:e5:68:a1:f3:e9:92:d6:92:
                    75:d4:c5:c8:d1:68:50:1a:84:3e:7c:fc:74:5f:de:
                    84:1a:92:56:0b:f0:0e:b8:5f:ac:0d:f8:2e:d2:e4:
                    13:53:5b:49:f7:a6:cb:c7:27:73:83:d5:c9:24:97:
                    de:01:8b:9a:92:c9:ec:3e:32:43:5c:cb:1d:16:8d:
                    b0:f4:3d:b4:97:e6:8e:ff:a3
                Exponent: 65537 (0x10001)
        X509v3 extensions:
            X509v3 Basic Constraints: 
                CA:FALSE
            Netscape Comment: 
                OpenSSL Generated Certificate
            X509v3 Subject Key Identifier: 
                45:6F:20:23:86:A9:9A:14:2E:5B:2A:2B:7B:2D:60:E9:91:46:53:1D
            X509v3 Authority Key Identifier: 
                keyid:F6:7C:E6:FB:14:B7:F6:C1:5E:03:99:12:AA:ED:40:E4:44:12:76:38
                DirName:/C=RU/ST=NA/L=TOGLIATTI/O=INZA-LTD-AIST/CN=server/emailAddress=pavel@kusto.com.ru
                serial:00

    Signature Algorithm: md5WithRSAEncryption
        d4:aa:cd:10:e8:a7:96:5b:f2:82:6a:43:94:9a:0a:ea:f8:8b:
        03:9d:64:01:73:00:20:9c:64:34:48:57:1e:32:f8:24:a7:95:
        6c:4b:18:65:66:92:97:68:94:11:26:06:b7:97:32:76:d1:0e:
        a8:a8:a1:da:6a:a3:55:2b:c6:b2:03:0a:18:2d:b9:b4:19:36:
        ce:fe:bd:a2:8c:19:4f:a7:ab:c7:29:9a:d0:24:18:1e:26:23:
        f6:df:54:6c:46:5b:99:e8:11:77:6b:6d:20:77:f2:89:60:a3:
        47:0e:bb:4c:9f:90:e0:f9:80:23:64:bb:ff:cf:4b:d0:c7:d7:
        fb:15
-----BEGIN CERTIFICATE-----
MIIDVzCCAsCgAwIBAgIBezANBgkqhkiG9w0BAQQFADB6MQswCQYDVQQGEwJSVTEL
MAkGA1UECBMCTkExEjAQBgNVBAcTCVRPR0xJQVRUSTEWMBQGA1UEChMNSU5aQS1M
VEQtQUlTVDEPMA0GA1UEAxMGc2VydmVyMSEwHwYJKoZIhvcNAQkBFhJwYXZlbEBr
dXN0by5jb20ucnUwHhcNMTIwOTI1MDYwNDMwWhcNMjIwOTIzMDYwNDMwWjBjMQsw
CQYDVQQGEwJSVTELMAkGA1UECBMCTkExFjAUBgNVBAoTDUlOWkEtTFRELUFJU1Qx
DDAKBgNVBAMUA3BfODEhMB8GCSqGSIb3DQEJARYScGF2ZWxAa3VzdG8uY29tLnJ1
MIGfMA0GCSqGSIb3DQEBAQUAA4GNADCBiQKBgQC7T8gT8bClCQBiwgqXlyBiu27K
lGLHBHb0wi6NAqddAh9D8lkuf1bqliXFig4y8ZR2hwXlaKHz6ZLWknXUxcjRaFAa
hD58/HRf3oQaklYL8A64X6wN+C7S5BNTW0n3psvHJ3OD1ckkl94Bi5qSyew+MkNc
yx0WjbD0PbSX5o7/owIDAQABo4IBAjCB/zAJBgNVHRMEAjAAMCwGCWCGSAGG+EIB
DQQfFh1PcGVuU1NMIEdlbmVyYXRlZCBDZXJ0aWZpY2F0ZTAdBgNVHQ4EFgQURW8g
I4apmhQuWyorey1g6ZFGUx0wgaQGA1UdIwSBnDCBmYAU9nzm+xS39sFeA5kSqu1A
5EQSdjihfqR8MHoxCzAJBgNVBAYTAlJVMQswCQYDVQQIEwJOQTESMBAGA1UEBxMJ
VE9HTElBVFRJMRYwFAYDVQQKEw1JTlpBLUxURC1BSVNUMQ8wDQYDVQQDEwZzZXJ2
ZXIxITAfBgkqhkiG9w0BCQEWEnBhdmVsQGt1c3RvLmNvbS5ydYIBADANBgkqhkiG
9w0BAQQFAAOBgQDUqs0Q6KeWW/KCakOUmgrq+IsDnWQBcwAgnGQ0SFceMvgkp5Vs
SxhlZpKXaJQRJga3lzJ20Q6oqKHaaqNVK8ayAwoYLbm0GTbO/r2ijBlPp6vHKZrQ
JBgeJiP231RsRluZ6BF3a20gd/KJYKNHDrtMn5Dg+YAjZLv/z0vQx9f7FQ==
-----END CERTIFICATE-----
