Certificate:
    Data:
        Version: 3 (0x2)
        Serial Number: 125 (0x7d)
        Signature Algorithm: md5WithRSAEncryption
        Issuer: C=RU, ST=NA, L=TOGLIATTI, O=INZA-LTD-AIST, CN=server/emailAddress=pavel@kusto.com.ru
        Validity
            Not Before: Oct  1 10:14:01 2012 GMT
            Not After : Sep 29 10:14:01 2022 GMT
        Subject: C=RU, ST=NA, O=INZA-LTD-AIST, CN=p_sovet/emailAddress=pavel@kusto.com.ru
        Subject Public Key Info:
            Public Key Algorithm: rsaEncryption
            RSA Public Key: (1024 bit)
                Modulus (1024 bit):
                    00:c3:73:cf:8b:0a:1e:32:b9:3d:17:d4:20:7b:6e:
                    ea:96:8c:d0:66:4b:a5:af:5a:d6:df:65:52:2f:e8:
                    03:e3:8f:1f:3e:67:26:ce:e4:29:52:1b:7b:a9:5b:
                    ed:cc:ef:32:8b:a7:fe:fb:49:2d:2d:e0:0f:e5:cb:
                    5a:77:42:6b:a0:32:a6:36:71:28:59:2e:c7:b9:92:
                    83:f1:d6:0f:3b:a8:ec:41:2f:a4:a5:00:47:75:4c:
                    28:7d:be:fb:d4:c9:8f:c7:9d:4e:86:12:69:f6:c2:
                    b2:25:75:1b:30:47:63:3e:4f:dc:1d:16:ac:c4:d7:
                    bf:65:f3:e5:61:1f:c8:ad:29
                Exponent: 65537 (0x10001)
        X509v3 extensions:
            X509v3 Basic Constraints: 
                CA:FALSE
            Netscape Comment: 
                OpenSSL Generated Certificate
            X509v3 Subject Key Identifier: 
                E3:42:1E:47:DD:7E:EE:93:52:44:2C:61:94:E9:79:96:FA:0E:01:E7
            X509v3 Authority Key Identifier: 
                keyid:F6:7C:E6:FB:14:B7:F6:C1:5E:03:99:12:AA:ED:40:E4:44:12:76:38
                DirName:/C=RU/ST=NA/L=TOGLIATTI/O=INZA-LTD-AIST/CN=server/emailAddress=pavel@kusto.com.ru
                serial:00

    Signature Algorithm: md5WithRSAEncryption
        ba:5b:ca:59:78:16:6f:90:de:f3:8d:77:3b:fa:1d:f8:b0:55:
        7a:7a:ec:b2:88:0e:bf:5a:d4:98:06:67:1f:8a:25:cd:4f:f4:
        11:08:00:3f:59:71:4a:6c:c8:93:92:52:02:4e:b2:5c:36:3f:
        55:2f:9d:15:aa:ed:98:75:31:d9:ae:13:38:0e:5a:0c:a1:91:
        86:52:7e:7e:c8:17:17:c6:97:71:6d:cd:81:ee:e3:56:c7:4a:
        7e:50:f6:66:b2:ed:ec:79:9f:af:c0:1a:c8:0c:62:40:71:9c:
        a6:62:ca:c8:c0:fb:77:77:35:73:ec:d6:9d:6e:ea:6a:bd:54:
        6e:10
-----BEGIN CERTIFICATE-----
MIIDWzCCAsSgAwIBAgIBfTANBgkqhkiG9w0BAQQFADB6MQswCQYDVQQGEwJSVTEL
MAkGA1UECBMCTkExEjAQBgNVBAcTCVRPR0xJQVRUSTEWMBQGA1UEChMNSU5aQS1M
VEQtQUlTVDEPMA0GA1UEAxMGc2VydmVyMSEwHwYJKoZIhvcNAQkBFhJwYXZlbEBr
dXN0by5jb20ucnUwHhcNMTIxMDAxMTAxNDAxWhcNMjIwOTI5MTAxNDAxWjBnMQsw
CQYDVQQGEwJSVTELMAkGA1UECBMCTkExFjAUBgNVBAoTDUlOWkEtTFRELUFJU1Qx
EDAOBgNVBAMUB3Bfc292ZXQxITAfBgkqhkiG9w0BCQEWEnBhdmVsQGt1c3RvLmNv
bS5ydTCBnzANBgkqhkiG9w0BAQEFAAOBjQAwgYkCgYEAw3PPiwoeMrk9F9Qge27q
lozQZkulr1rW32VSL+gD448fPmcmzuQpUht7qVvtzO8yi6f++0ktLeAP5ctad0Jr
oDKmNnEoWS7HuZKD8dYPO6jsQS+kpQBHdUwofb771MmPx51OhhJp9sKyJXUbMEdj
Pk/cHRasxNe/ZfPlYR/IrSkCAwEAAaOCAQIwgf8wCQYDVR0TBAIwADAsBglghkgB
hvhCAQ0EHxYdT3BlblNTTCBHZW5lcmF0ZWQgQ2VydGlmaWNhdGUwHQYDVR0OBBYE
FONCHkfdfu6TUkQsYZTpeZb6DgHnMIGkBgNVHSMEgZwwgZmAFPZ85vsUt/bBXgOZ
EqrtQOREEnY4oX6kfDB6MQswCQYDVQQGEwJSVTELMAkGA1UECBMCTkExEjAQBgNV
BAcTCVRPR0xJQVRUSTEWMBQGA1UEChMNSU5aQS1MVEQtQUlTVDEPMA0GA1UEAxMG
c2VydmVyMSEwHwYJKoZIhvcNAQkBFhJwYXZlbEBrdXN0by5jb20ucnWCAQAwDQYJ
KoZIhvcNAQEEBQADgYEAulvKWXgWb5De8413O/od+LBVenrssogOv1rUmAZnH4ol
zU/0EQgAP1lxSmzIk5JSAk6yXDY/VS+dFartmHUx2a4TOA5aDKGRhlJ+fsgXF8aX
cW3Nge7jVsdKflD2ZrLt7Hmfr8AayAxiQHGcpmLKyMD7d3c1c+zWnW7qar1UbhA=
-----END CERTIFICATE-----
