Certificate:
    Data:
        Version: 3 (0x2)
        Serial Number: 127 (0x7f)
        Signature Algorithm: md5WithRSAEncryption
        Issuer: C=RU, ST=NA, L=TOGLIATTI, O=INZA-LTD-AIST, CN=server/emailAddress=pavel@kusto.com.ru
        Validity
            Not Before: Oct  1 10:17:36 2012 GMT
            Not After : Sep 29 10:17:36 2022 GMT
        Subject: C=RU, ST=NA, O=INZA-LTD-AIST, CN=p_nicon/emailAddress=pavel@kusto.com.ru
        Subject Public Key Info:
            Public Key Algorithm: rsaEncryption
            RSA Public Key: (1024 bit)
                Modulus (1024 bit):
                    00:97:38:bf:be:7b:00:f7:7e:24:26:b7:dc:5c:12:
                    00:59:7c:1f:df:1d:43:3b:a2:9d:cc:a1:e0:9a:a2:
                    35:0e:a0:3a:22:3a:51:cd:5b:2c:68:8c:9b:04:72:
                    7e:84:61:4f:3e:1c:de:bf:68:00:0e:9c:26:db:61:
                    1c:f2:80:62:97:cf:2e:e3:d0:e6:60:c6:67:45:ad:
                    54:5c:a8:50:f6:a0:c5:f8:cc:a0:f9:c6:55:34:2c:
                    54:2f:d7:20:1d:3b:aa:43:43:19:64:dc:8b:06:60:
                    1e:e3:e4:91:d9:e0:c3:9b:04:11:56:4b:9c:2d:41:
                    fc:ab:54:36:52:9a:89:f2:2f
                Exponent: 65537 (0x10001)
        X509v3 extensions:
            X509v3 Basic Constraints: 
                CA:FALSE
            Netscape Comment: 
                OpenSSL Generated Certificate
            X509v3 Subject Key Identifier: 
                18:62:3A:DB:9C:19:FD:AA:34:66:3F:7E:92:F3:D9:36:31:36:08:76
            X509v3 Authority Key Identifier: 
                keyid:F6:7C:E6:FB:14:B7:F6:C1:5E:03:99:12:AA:ED:40:E4:44:12:76:38
                DirName:/C=RU/ST=NA/L=TOGLIATTI/O=INZA-LTD-AIST/CN=server/emailAddress=pavel@kusto.com.ru
                serial:00

    Signature Algorithm: md5WithRSAEncryption
        c9:b1:0c:ed:ab:32:5a:ca:2a:48:1f:bd:9c:9f:80:af:08:50:
        69:b8:02:6b:00:42:7f:90:98:73:0e:16:5c:a8:50:ca:e6:0e:
        58:d5:56:36:0f:7d:e1:b0:1f:97:d3:92:69:8e:40:22:9c:87:
        be:b1:72:b9:4c:70:5c:d3:f1:95:d3:87:d1:c8:7d:e2:04:25:
        7c:34:f6:17:f9:fa:ff:b9:d1:88:7d:ea:54:51:97:ed:9f:59:
        73:c5:28:ef:da:7d:d7:e8:56:b4:d8:75:07:eb:42:ec:71:88:
        23:4c:3a:b5:76:6e:58:3a:e5:fd:89:15:36:2a:37:b4:bc:e9:
        3f:0d
-----BEGIN CERTIFICATE-----
MIIDWzCCAsSgAwIBAgIBfzANBgkqhkiG9w0BAQQFADB6MQswCQYDVQQGEwJSVTEL
MAkGA1UECBMCTkExEjAQBgNVBAcTCVRPR0xJQVRUSTEWMBQGA1UEChMNSU5aQS1M
VEQtQUlTVDEPMA0GA1UEAxMGc2VydmVyMSEwHwYJKoZIhvcNAQkBFhJwYXZlbEBr
dXN0by5jb20ucnUwHhcNMTIxMDAxMTAxNzM2WhcNMjIwOTI5MTAxNzM2WjBnMQsw
CQYDVQQGEwJSVTELMAkGA1UECBMCTkExFjAUBgNVBAoTDUlOWkEtTFRELUFJU1Qx
EDAOBgNVBAMUB3Bfbmljb24xITAfBgkqhkiG9w0BCQEWEnBhdmVsQGt1c3RvLmNv
bS5ydTCBnzANBgkqhkiG9w0BAQEFAAOBjQAwgYkCgYEAlzi/vnsA934kJrfcXBIA
WXwf3x1DO6KdzKHgmqI1DqA6IjpRzVssaIybBHJ+hGFPPhzev2gADpwm22Ec8oBi
l88u49DmYMZnRa1UXKhQ9qDF+Myg+cZVNCxUL9cgHTuqQ0MZZNyLBmAe4+SR2eDD
mwQRVkucLUH8q1Q2UpqJ8i8CAwEAAaOCAQIwgf8wCQYDVR0TBAIwADAsBglghkgB
hvhCAQ0EHxYdT3BlblNTTCBHZW5lcmF0ZWQgQ2VydGlmaWNhdGUwHQYDVR0OBBYE
FBhiOtucGf2qNGY/fpLz2TYxNgh2MIGkBgNVHSMEgZwwgZmAFPZ85vsUt/bBXgOZ
EqrtQOREEnY4oX6kfDB6MQswCQYDVQQGEwJSVTELMAkGA1UECBMCTkExEjAQBgNV
BAcTCVRPR0xJQVRUSTEWMBQGA1UEChMNSU5aQS1MVEQtQUlTVDEPMA0GA1UEAxMG
c2VydmVyMSEwHwYJKoZIhvcNAQkBFhJwYXZlbEBrdXN0by5jb20ucnWCAQAwDQYJ
KoZIhvcNAQEEBQADgYEAybEM7asyWsoqSB+9nJ+ArwhQabgCawBCf5CYcw4WXKhQ
yuYOWNVWNg994bAfl9OSaY5AIpyHvrFyuUxwXNPxldOH0ch94gQlfDT2F/n6/7nR
iH3qVFGX7Z9Zc8Uo79p91+hWtNh1B+tC7HGII0w6tXZuWDrl/YkVNio3tLzpPw0=
-----END CERTIFICATE-----
