Certificate:
    Data:
        Version: 3 (0x2)
        Serial Number: 130 (0x82)
        Signature Algorithm: md5WithRSAEncryption
        Issuer: C=RU, ST=NA, L=TOGLIATTI, O=INZA-LTD-AIST, CN=server/emailAddress=pavel@kusto.com.ru
        Validity
            Not Before: Nov  2 09:31:04 2012 GMT
            Not After : Oct 31 09:31:04 2022 GMT
        Subject: C=RU, ST=NA, O=INZA-LTD-AIST, CN=p_lenigrad2/emailAddress=pavel@kusto.com.ru
        Subject Public Key Info:
            Public Key Algorithm: rsaEncryption
            RSA Public Key: (1024 bit)
                Modulus (1024 bit):
                    00:ce:1b:d9:ab:ea:9b:b3:18:35:15:26:d0:bb:36:
                    ae:85:66:15:cb:bb:ee:09:1a:f8:d0:aa:d4:ff:bc:
                    9e:30:1c:96:ae:5b:11:21:f0:4b:5a:ab:30:84:61:
                    d6:c9:ef:65:f3:32:e8:2c:80:fd:e8:69:ac:92:a2:
                    62:e4:56:02:7d:84:e1:9c:4e:0a:e4:08:b3:c4:4e:
                    e7:ea:07:f5:96:38:7b:c4:56:ef:11:ce:34:0c:19:
                    2a:87:86:97:f2:9a:7d:3a:2e:9b:76:2d:d1:8b:de:
                    5b:52:7f:d8:5e:9f:78:55:0f:35:38:7b:5b:8f:3e:
                    b7:3d:6d:13:be:51:ed:ba:3d
                Exponent: 65537 (0x10001)
        X509v3 extensions:
            X509v3 Basic Constraints: 
                CA:FALSE
            Netscape Comment: 
                OpenSSL Generated Certificate
            X509v3 Subject Key Identifier: 
                42:BA:2B:7F:E0:18:2B:57:32:93:95:D1:78:8F:73:F7:9F:66:85:21
            X509v3 Authority Key Identifier: 
                keyid:F6:7C:E6:FB:14:B7:F6:C1:5E:03:99:12:AA:ED:40:E4:44:12:76:38
                DirName:/C=RU/ST=NA/L=TOGLIATTI/O=INZA-LTD-AIST/CN=server/emailAddress=pavel@kusto.com.ru
                serial:00

    Signature Algorithm: md5WithRSAEncryption
        3b:44:eb:51:2b:85:3b:cc:0a:c0:6f:f3:ff:ec:87:eb:3f:9c:
        b9:6e:05:13:74:68:56:2e:82:3b:10:93:4c:35:a5:e3:85:da:
        97:fe:51:a9:af:61:55:5c:95:c9:1b:67:62:3b:04:5e:9f:53:
        8c:fa:8d:a6:e2:8f:b9:bd:b8:68:76:b2:b1:6a:0d:3b:eb:2f:
        88:71:00:23:4e:2d:68:2e:f7:fe:a8:f8:ed:c0:65:39:d1:70:
        83:f6:a0:81:a4:36:8a:7d:eb:54:f2:81:bd:da:7d:93:61:3b:
        76:b6:8c:cb:8b:9b:31:d2:b6:3b:9a:e3:3f:18:ba:d3:d6:aa:
        d0:77
-----BEGIN CERTIFICATE-----
MIIDYDCCAsmgAwIBAgICAIIwDQYJKoZIhvcNAQEEBQAwejELMAkGA1UEBhMCUlUx
CzAJBgNVBAgTAk5BMRIwEAYDVQQHEwlUT0dMSUFUVEkxFjAUBgNVBAoTDUlOWkEt
TFRELUFJU1QxDzANBgNVBAMTBnNlcnZlcjEhMB8GCSqGSIb3DQEJARYScGF2ZWxA
a3VzdG8uY29tLnJ1MB4XDTEyMTEwMjA5MzEwNFoXDTIyMTAzMTA5MzEwNFowazEL
MAkGA1UEBhMCUlUxCzAJBgNVBAgTAk5BMRYwFAYDVQQKEw1JTlpBLUxURC1BSVNU
MRQwEgYDVQQDFAtwX2xlbmlncmFkMjEhMB8GCSqGSIb3DQEJARYScGF2ZWxAa3Vz
dG8uY29tLnJ1MIGfMA0GCSqGSIb3DQEBAQUAA4GNADCBiQKBgQDOG9mr6puzGDUV
JtC7Nq6FZhXLu+4JGvjQqtT/vJ4wHJauWxEh8EtaqzCEYdbJ72XzMugsgP3oaayS
omLkVgJ9hOGcTgrkCLPETufqB/WWOHvEVu8RzjQMGSqHhpfymn06Lpt2LdGL3ltS
f9hen3hVDzU4e1uPPrc9bRO+Ue26PQIDAQABo4IBAjCB/zAJBgNVHRMEAjAAMCwG
CWCGSAGG+EIBDQQfFh1PcGVuU1NMIEdlbmVyYXRlZCBDZXJ0aWZpY2F0ZTAdBgNV
HQ4EFgQUQrorf+AYK1cyk5XReI9z959mhSEwgaQGA1UdIwSBnDCBmYAU9nzm+xS3
9sFeA5kSqu1A5EQSdjihfqR8MHoxCzAJBgNVBAYTAlJVMQswCQYDVQQIEwJOQTES
MBAGA1UEBxMJVE9HTElBVFRJMRYwFAYDVQQKEw1JTlpBLUxURC1BSVNUMQ8wDQYD
VQQDEwZzZXJ2ZXIxITAfBgkqhkiG9w0BCQEWEnBhdmVsQGt1c3RvLmNvbS5ydYIB
ADANBgkqhkiG9w0BAQQFAAOBgQA7ROtRK4U7zArAb/P/7IfrP5y5bgUTdGhWLoI7
EJNMNaXjhdqX/lGpr2FVXJXJG2diOwRen1OM+o2m4o+5vbhodrKxag076y+IcQAj
Ti1oLvf+qPjtwGU50XCD9qCBpDaKfetU8oG92n2TYTt2tozLi5sx0rY7muM/GLrT
1qrQdw==
-----END CERTIFICATE-----
