Certificate:
    Data:
        Version: 3 (0x2)
        Serial Number: 136 (0x88)
        Signature Algorithm: md5WithRSAEncryption
        Issuer: C=RU, ST=NA, L=TOGLIATTI, O=INZA-LTD-AIST, CN=server/emailAddress=pavel@kusto.com.ru
        Validity
            Not Before: Feb  4 09:03:38 2013 GMT
            Not After : Feb  2 09:03:38 2023 GMT
        Subject: C=RU, ST=NA, O=INZA-LTD-AIST, CN=smr_stzagora_1/emailAddress=pavel@kusto.com.ru
        Subject Public Key Info:
            Public Key Algorithm: rsaEncryption
            RSA Public Key: (1024 bit)
                Modulus (1024 bit):
                    00:c2:0c:94:87:fe:97:b4:43:dd:25:a5:8a:8f:11:
                    91:4a:97:4b:fb:b5:a1:53:f4:ef:4a:29:68:62:45:
                    7c:36:fd:24:fb:87:9c:49:2b:e4:54:19:f8:8c:d6:
                    14:c3:94:51:de:f4:41:5f:08:d6:ea:ac:60:83:fb:
                    02:2f:e1:d2:0c:d5:c4:51:5a:69:8c:ec:0a:70:d2:
                    6d:be:e5:f9:ef:09:64:9b:0f:39:22:6a:57:a6:c9:
                    3d:c8:50:e1:df:26:89:02:f5:da:a2:42:90:fb:56:
                    5b:59:52:f5:4a:62:54:32:6e:3f:47:7d:64:17:9a:
                    5e:e4:45:46:d4:47:56:07:f5
                Exponent: 65537 (0x10001)
        X509v3 extensions:
            X509v3 Basic Constraints: 
                CA:FALSE
            Netscape Comment: 
                OpenSSL Generated Certificate
            X509v3 Subject Key Identifier: 
                84:2C:21:88:23:5B:40:DC:7B:7B:DB:B6:7C:F3:4A:77:45:17:1F:EB
            X509v3 Authority Key Identifier: 
                keyid:F6:7C:E6:FB:14:B7:F6:C1:5E:03:99:12:AA:ED:40:E4:44:12:76:38
                DirName:/C=RU/ST=NA/L=TOGLIATTI/O=INZA-LTD-AIST/CN=server/emailAddress=pavel@kusto.com.ru
                serial:00

    Signature Algorithm: md5WithRSAEncryption
        1c:41:1f:7b:15:ce:c4:38:c7:44:02:fb:dc:3b:ce:9e:45:9c:
        fb:54:bc:b4:6f:e8:a3:03:89:fb:9f:9f:dc:7b:59:9c:49:de:
        0c:b0:66:ce:41:b3:a9:ec:f6:7c:c6:83:e7:10:1c:c6:c3:d9:
        9e:36:c1:37:2e:62:c4:d8:c1:fd:7c:0d:bc:02:66:ad:7f:b7:
        c3:fa:bf:9f:53:c3:ed:da:c5:df:01:44:90:4b:c9:3e:79:50:
        f1:22:0c:9b:18:a5:90:36:5b:bb:97:5f:84:07:26:f2:42:cd:
        26:44:9f:be:d1:a7:2b:a3:e6:62:8e:be:b3:cc:31:4e:3a:4e:
        ed:c3
-----BEGIN CERTIFICATE-----
MIIDYzCCAsygAwIBAgICAIgwDQYJKoZIhvcNAQEEBQAwejELMAkGA1UEBhMCUlUx
CzAJBgNVBAgTAk5BMRIwEAYDVQQHEwlUT0dMSUFUVEkxFjAUBgNVBAoTDUlOWkEt
TFRELUFJU1QxDzANBgNVBAMTBnNlcnZlcjEhMB8GCSqGSIb3DQEJARYScGF2ZWxA
a3VzdG8uY29tLnJ1MB4XDTEzMDIwNDA5MDMzOFoXDTIzMDIwMjA5MDMzOFowbjEL
MAkGA1UEBhMCUlUxCzAJBgNVBAgTAk5BMRYwFAYDVQQKEw1JTlpBLUxURC1BSVNU
MRcwFQYDVQQDFA5zbXJfc3R6YWdvcmFfMTEhMB8GCSqGSIb3DQEJARYScGF2ZWxA
a3VzdG8uY29tLnJ1MIGfMA0GCSqGSIb3DQEBAQUAA4GNADCBiQKBgQDCDJSH/pe0
Q90lpYqPEZFKl0v7taFT9O9KKWhiRXw2/ST7h5xJK+RUGfiM1hTDlFHe9EFfCNbq
rGCD+wIv4dIM1cRRWmmM7Apw0m2+5fnvCWSbDzkialemyT3IUOHfJokC9dqiQpD7
VltZUvVKYlQybj9HfWQXml7kRUbUR1YH9QIDAQABo4IBAjCB/zAJBgNVHRMEAjAA
MCwGCWCGSAGG+EIBDQQfFh1PcGVuU1NMIEdlbmVyYXRlZCBDZXJ0aWZpY2F0ZTAd
BgNVHQ4EFgQUhCwhiCNbQNx7e9u2fPNKd0UXH+swgaQGA1UdIwSBnDCBmYAU9nzm
+xS39sFeA5kSqu1A5EQSdjihfqR8MHoxCzAJBgNVBAYTAlJVMQswCQYDVQQIEwJO
QTESMBAGA1UEBxMJVE9HTElBVFRJMRYwFAYDVQQKEw1JTlpBLUxURC1BSVNUMQ8w
DQYDVQQDEwZzZXJ2ZXIxITAfBgkqhkiG9w0BCQEWEnBhdmVsQGt1c3RvLmNvbS5y
dYIBADANBgkqhkiG9w0BAQQFAAOBgQAcQR97Fc7EOMdEAvvcO86eRZz7VLy0b+ij
A4n7n5/ce1mcSd4MsGbOQbOp7PZ8xoPnEBzGw9meNsE3LmLE2MH9fA28Amatf7fD
+r+fU8Pt2sXfAUSQS8k+eVDxIgybGKWQNlu7l1+EBybyQs0mRJ++0acro+Zijr6z
zDFOOk7tww==
-----END CERTIFICATE-----
