Certificate:
    Data:
        Version: 3 (0x2)
        Serial Number: 140 (0x8c)
        Signature Algorithm: md5WithRSAEncryption
        Issuer: C=RU, ST=NA, L=TOGLIATTI, O=INZA-LTD-AIST, CN=server/emailAddress=pavel@kusto.com.ru
        Validity
            Not Before: Jul 17 09:17:11 2013 GMT
            Not After : Jul 15 09:17:11 2023 GMT
        Subject: C=RU, ST=NA, O=INZA-LTD-AIST, CN=p_podstepki/emailAddress=pavel@kusto.com.ru
        Subject Public Key Info:
            Public Key Algorithm: rsaEncryption
            RSA Public Key: (1024 bit)
                Modulus (1024 bit):
                    00:be:06:1d:e4:03:cc:be:4a:10:49:26:8d:99:1d:
                    99:09:ab:d1:e5:f8:7c:01:bf:4e:b6:79:c0:01:1c:
                    1f:b7:99:60:3f:43:28:4a:d5:6b:e9:c8:27:8b:22:
                    40:35:e1:59:87:59:e1:14:24:ba:4e:51:fa:61:dc:
                    8e:23:14:75:ff:2d:61:d8:04:7d:0f:b2:bf:e7:f7:
                    fe:e9:b2:4a:f5:f3:2b:12:f7:4f:6d:f0:8e:f3:c0:
                    ec:3f:4d:55:88:d1:1e:67:ae:42:60:d1:e1:d4:73:
                    2c:b1:3d:eb:73:6b:2b:93:d1:fe:40:e0:e1:f9:91:
                    54:69:b4:f7:e1:d5:00:4c:c5
                Exponent: 65537 (0x10001)
        X509v3 extensions:
            X509v3 Basic Constraints: 
                CA:FALSE
            Netscape Comment: 
                OpenSSL Generated Certificate
            X509v3 Subject Key Identifier: 
                6E:CE:48:81:E1:02:33:6E:E4:FA:42:FA:F4:4B:8E:C3:61:08:D1:B6
            X509v3 Authority Key Identifier: 
                keyid:F6:7C:E6:FB:14:B7:F6:C1:5E:03:99:12:AA:ED:40:E4:44:12:76:38
                DirName:/C=RU/ST=NA/L=TOGLIATTI/O=INZA-LTD-AIST/CN=server/emailAddress=pavel@kusto.com.ru
                serial:00

    Signature Algorithm: md5WithRSAEncryption
        94:3b:92:61:9c:77:36:03:1a:69:fa:9e:6a:7a:9d:99:af:d2:
        0e:38:99:41:12:64:a6:f3:c7:63:bd:67:a8:ae:42:fd:ef:bf:
        e3:68:73:df:e9:dc:13:90:cc:c4:ab:80:6f:0e:6f:1e:dc:2f:
        0f:51:3b:d9:ec:7c:f0:da:54:81:f0:75:bc:bf:10:e5:41:7c:
        f0:c9:67:f6:1e:06:01:fc:47:04:9a:18:a9:aa:e4:10:ad:c8:
        c6:0b:ed:86:01:30:d4:7e:97:10:d8:b3:ab:0b:90:eb:4d:b0:
        91:52:52:b3:66:b1:8e:ca:77:e2:3b:c8:92:6d:b6:ad:27:ef:
        af:56
-----BEGIN CERTIFICATE-----
MIIDYDCCAsmgAwIBAgICAIwwDQYJKoZIhvcNAQEEBQAwejELMAkGA1UEBhMCUlUx
CzAJBgNVBAgTAk5BMRIwEAYDVQQHEwlUT0dMSUFUVEkxFjAUBgNVBAoTDUlOWkEt
TFRELUFJU1QxDzANBgNVBAMTBnNlcnZlcjEhMB8GCSqGSIb3DQEJARYScGF2ZWxA
a3VzdG8uY29tLnJ1MB4XDTEzMDcxNzA5MTcxMVoXDTIzMDcxNTA5MTcxMVowazEL
MAkGA1UEBhMCUlUxCzAJBgNVBAgTAk5BMRYwFAYDVQQKEw1JTlpBLUxURC1BSVNU
MRQwEgYDVQQDFAtwX3BvZHN0ZXBraTEhMB8GCSqGSIb3DQEJARYScGF2ZWxAa3Vz
dG8uY29tLnJ1MIGfMA0GCSqGSIb3DQEBAQUAA4GNADCBiQKBgQC+Bh3kA8y+ShBJ
Jo2ZHZkJq9Hl+HwBv062ecABHB+3mWA/QyhK1WvpyCeLIkA14VmHWeEUJLpOUfph
3I4jFHX/LWHYBH0Psr/n9/7pskr18ysS909t8I7zwOw/TVWI0R5nrkJg0eHUcyyx
PetzayuT0f5A4OH5kVRptPfh1QBMxQIDAQABo4IBAjCB/zAJBgNVHRMEAjAAMCwG
CWCGSAGG+EIBDQQfFh1PcGVuU1NMIEdlbmVyYXRlZCBDZXJ0aWZpY2F0ZTAdBgNV
HQ4EFgQUbs5IgeECM27k+kL69EuOw2EI0bYwgaQGA1UdIwSBnDCBmYAU9nzm+xS3
9sFeA5kSqu1A5EQSdjihfqR8MHoxCzAJBgNVBAYTAlJVMQswCQYDVQQIEwJOQTES
MBAGA1UEBxMJVE9HTElBVFRJMRYwFAYDVQQKEw1JTlpBLUxURC1BSVNUMQ8wDQYD
VQQDEwZzZXJ2ZXIxITAfBgkqhkiG9w0BCQEWEnBhdmVsQGt1c3RvLmNvbS5ydYIB
ADANBgkqhkiG9w0BAQQFAAOBgQCUO5JhnHc2Axpp+p5qep2Zr9IOOJlBEmSm88dj
vWeorkL977/jaHPf6dwTkMzEq4BvDm8e3C8PUTvZ7Hzw2lSB8HW8vxDlQXzwyWf2
HgYB/EcEmhipquQQrcjGC+2GATDUfpcQ2LOrC5DrTbCRUlKzZrGOynfiO8iSbbat
J++vVg==
-----END CERTIFICATE-----
