Certificate:
    Data:
        Version: 3 (0x2)
        Serial Number: 141 (0x8d)
        Signature Algorithm: md5WithRSAEncryption
        Issuer: C=RU, ST=NA, L=TOGLIATTI, O=INZA-LTD-AIST, CN=server/emailAddress=pavel@kusto.com.ru
        Validity
            Not Before: Aug 15 05:20:21 2013 GMT
            Not After : Aug 13 05:20:21 2023 GMT
        Subject: C=RU, ST=NA, O=INZA-LTD-AIST, CN=p2_3/emailAddress=pavel@kusto.com.ru
        Subject Public Key Info:
            Public Key Algorithm: rsaEncryption
            RSA Public Key: (1024 bit)
                Modulus (1024 bit):
                    00:b1:1f:42:ff:16:67:af:71:ba:5a:21:90:83:41:
                    2a:3c:44:1d:b7:92:f4:99:ee:e9:e7:18:11:96:a4:
                    58:5c:74:ae:79:e4:c0:0f:33:f5:e3:db:3e:16:dc:
                    95:02:77:12:fd:26:02:17:2a:1c:1b:6e:80:e1:0a:
                    c0:40:5d:ca:e9:5b:68:80:da:15:bb:01:f8:46:9f:
                    46:b6:41:7a:ef:a9:22:79:45:40:82:0f:7c:c8:e1:
                    8d:5b:10:2b:c9:a8:e7:ba:46:ca:f9:28:74:c2:1f:
                    39:87:f5:dc:a4:86:af:1d:31:9b:1c:05:54:a3:94:
                    a7:f2:d4:44:ea:3a:90:64:4f
                Exponent: 65537 (0x10001)
        X509v3 extensions:
            X509v3 Basic Constraints: 
                CA:FALSE
            Netscape Comment: 
                OpenSSL Generated Certificate
            X509v3 Subject Key Identifier: 
                83:72:06:DD:0C:D7:41:CE:C5:F8:97:33:BB:D1:73:69:5A:25:25:73
            X509v3 Authority Key Identifier: 
                keyid:F6:7C:E6:FB:14:B7:F6:C1:5E:03:99:12:AA:ED:40:E4:44:12:76:38
                DirName:/C=RU/ST=NA/L=TOGLIATTI/O=INZA-LTD-AIST/CN=server/emailAddress=pavel@kusto.com.ru
                serial:00

    Signature Algorithm: md5WithRSAEncryption
        9b:be:09:ac:2e:d2:af:c5:82:60:94:1f:7b:4c:f8:68:10:b5:
        9b:a3:9c:2f:cd:82:55:db:29:03:47:cb:d4:1e:27:48:50:2a:
        ce:d8:6a:5b:83:c2:09:e5:c2:36:68:3e:e7:a0:fa:40:d7:b2:
        ec:de:b1:13:e9:c4:79:00:82:a3:dc:e7:a7:a9:03:4e:14:96:
        3b:24:71:24:69:60:58:8c:df:7b:06:5a:e1:0b:fc:7f:0b:08:
        76:a1:21:ab:09:be:38:4f:83:10:81:6d:be:70:1c:93:67:4f:
        e9:6b:a5:06:c4:85:56:28:8d:66:1f:2c:14:6a:be:27:57:be:
        b7:1e
-----BEGIN CERTIFICATE-----
MIIDWTCCAsKgAwIBAgICAI0wDQYJKoZIhvcNAQEEBQAwejELMAkGA1UEBhMCUlUx
CzAJBgNVBAgTAk5BMRIwEAYDVQQHEwlUT0dMSUFUVEkxFjAUBgNVBAoTDUlOWkEt
TFRELUFJU1QxDzANBgNVBAMTBnNlcnZlcjEhMB8GCSqGSIb3DQEJARYScGF2ZWxA
a3VzdG8uY29tLnJ1MB4XDTEzMDgxNTA1MjAyMVoXDTIzMDgxMzA1MjAyMVowZDEL
MAkGA1UEBhMCUlUxCzAJBgNVBAgTAk5BMRYwFAYDVQQKEw1JTlpBLUxURC1BSVNU
MQ0wCwYDVQQDFARwMl8zMSEwHwYJKoZIhvcNAQkBFhJwYXZlbEBrdXN0by5jb20u
cnUwgZ8wDQYJKoZIhvcNAQEBBQADgY0AMIGJAoGBALEfQv8WZ69xulohkINBKjxE
HbeS9Jnu6ecYEZakWFx0rnnkwA8z9ePbPhbclQJ3Ev0mAhcqHBtugOEKwEBdyulb
aIDaFbsB+EafRrZBeu+pInlFQIIPfMjhjVsQK8mo57pGyvkodMIfOYf13KSGrx0x
mxwFVKOUp/LUROo6kGRPAgMBAAGjggECMIH/MAkGA1UdEwQCMAAwLAYJYIZIAYb4
QgENBB8WHU9wZW5TU0wgR2VuZXJhdGVkIENlcnRpZmljYXRlMB0GA1UdDgQWBBSD
cgbdDNdBzsX4lzO70XNpWiUlczCBpAYDVR0jBIGcMIGZgBT2fOb7FLf2wV4DmRKq
7UDkRBJ2OKF+pHwwejELMAkGA1UEBhMCUlUxCzAJBgNVBAgTAk5BMRIwEAYDVQQH
EwlUT0dMSUFUVEkxFjAUBgNVBAoTDUlOWkEtTFRELUFJU1QxDzANBgNVBAMTBnNl
cnZlcjEhMB8GCSqGSIb3DQEJARYScGF2ZWxAa3VzdG8uY29tLnJ1ggEAMA0GCSqG
SIb3DQEBBAUAA4GBAJu+Cawu0q/FgmCUH3tM+GgQtZujnC/NglXbKQNHy9QeJ0hQ
Ks7YaluDwgnlwjZoPueg+kDXsuzesRPpxHkAgqPc56epA04UljskcSRpYFiM33sG
WuEL/H8LCHahIasJvjhPgxCBbb5wHJNnT+lrpQbEhVYojWYfLBRqvidXvrce
-----END CERTIFICATE-----
