Certificate:
    Data:
        Version: 3 (0x2)
        Serial Number: 143 (0x8f)
        Signature Algorithm: md5WithRSAEncryption
        Issuer: C=RU, ST=NA, L=TOGLIATTI, O=INZA-LTD-AIST, CN=server/emailAddress=pavel@kusto.com.ru
        Validity
            Not Before: Sep 21 12:40:23 2013 GMT
            Not After : Sep 19 12:40:23 2023 GMT
        Subject: C=RU, ST=NA, O=INZA-LTD-AIST, CN=romanenko/emailAddress=pavel@kusto.com.ru
        Subject Public Key Info:
            Public Key Algorithm: rsaEncryption
            RSA Public Key: (1024 bit)
                Modulus (1024 bit):
                    00:cc:9b:90:b5:94:4d:f7:38:e4:47:bb:d3:7c:5c:
                    7c:07:92:da:c3:25:e2:35:0d:9a:2b:2f:2a:d3:8f:
                    5b:b5:5e:da:95:a8:29:cb:59:b7:fe:95:6f:8e:88:
                    0e:35:97:da:d3:1b:e6:fc:8e:ca:cb:cd:43:3f:d9:
                    d6:4b:26:35:31:de:9b:78:0b:21:8e:fc:1b:04:fb:
                    30:76:e8:b8:33:82:50:8c:34:7a:b6:4c:a2:a7:b4:
                    9b:b3:a4:df:c8:11:8c:fa:1d:9e:01:22:c2:91:e1:
                    6c:ed:f9:34:cf:38:9e:a4:1f:24:1a:1d:c2:b0:5c:
                    fc:68:66:89:95:cc:c3:3a:21
                Exponent: 65537 (0x10001)
        X509v3 extensions:
            X509v3 Basic Constraints: 
                CA:FALSE
            Netscape Comment: 
                OpenSSL Generated Certificate
            X509v3 Subject Key Identifier: 
                BA:B3:95:22:D8:7D:68:8F:97:75:D5:77:37:49:0E:EA:CF:F0:5F:46
            X509v3 Authority Key Identifier: 
                keyid:F6:7C:E6:FB:14:B7:F6:C1:5E:03:99:12:AA:ED:40:E4:44:12:76:38
                DirName:/C=RU/ST=NA/L=TOGLIATTI/O=INZA-LTD-AIST/CN=server/emailAddress=pavel@kusto.com.ru
                serial:00

    Signature Algorithm: md5WithRSAEncryption
        bf:bb:93:27:04:65:e9:ea:d0:5f:1f:c0:ca:3f:e3:de:59:da:
        b2:95:fb:88:00:77:31:5b:70:10:77:81:75:af:74:6a:39:55:
        0f:33:da:56:5e:9e:29:b3:4f:1b:65:54:dc:9b:ea:b6:52:4d:
        fe:07:62:34:fa:eb:6d:87:5a:19:6b:7f:d7:c9:e9:0e:82:d4:
        dd:4e:36:0c:ad:be:a8:f0:44:66:98:f2:ed:2c:72:95:b2:7b:
        78:e7:e8:b8:72:31:46:b9:21:dd:b4:89:0b:83:d3:0b:f9:a2:
        ea:2a:2a:39:78:dc:21:b8:1e:90:d7:a6:b6:9e:8f:da:ae:70:
        ad:f3
-----BEGIN CERTIFICATE-----
MIIDXjCCAsegAwIBAgICAI8wDQYJKoZIhvcNAQEEBQAwejELMAkGA1UEBhMCUlUx
CzAJBgNVBAgTAk5BMRIwEAYDVQQHEwlUT0dMSUFUVEkxFjAUBgNVBAoTDUlOWkEt
TFRELUFJU1QxDzANBgNVBAMTBnNlcnZlcjEhMB8GCSqGSIb3DQEJARYScGF2ZWxA
a3VzdG8uY29tLnJ1MB4XDTEzMDkyMTEyNDAyM1oXDTIzMDkxOTEyNDAyM1owaTEL
MAkGA1UEBhMCUlUxCzAJBgNVBAgTAk5BMRYwFAYDVQQKEw1JTlpBLUxURC1BSVNU
MRIwEAYDVQQDEwlyb21hbmVua28xITAfBgkqhkiG9w0BCQEWEnBhdmVsQGt1c3Rv
LmNvbS5ydTCBnzANBgkqhkiG9w0BAQEFAAOBjQAwgYkCgYEAzJuQtZRN9zjkR7vT
fFx8B5LawyXiNQ2aKy8q049btV7alagpy1m3/pVvjogONZfa0xvm/I7Ky81DP9nW
SyY1Md6beAshjvwbBPswdui4M4JQjDR6tkyip7Sbs6TfyBGM+h2eASLCkeFs7fk0
zziepB8kGh3CsFz8aGaJlczDOiECAwEAAaOCAQIwgf8wCQYDVR0TBAIwADAsBglg
hkgBhvhCAQ0EHxYdT3BlblNTTCBHZW5lcmF0ZWQgQ2VydGlmaWNhdGUwHQYDVR0O
BBYEFLqzlSLYfWiPl3XVdzdJDurP8F9GMIGkBgNVHSMEgZwwgZmAFPZ85vsUt/bB
XgOZEqrtQOREEnY4oX6kfDB6MQswCQYDVQQGEwJSVTELMAkGA1UECBMCTkExEjAQ
BgNVBAcTCVRPR0xJQVRUSTEWMBQGA1UEChMNSU5aQS1MVEQtQUlTVDEPMA0GA1UE
AxMGc2VydmVyMSEwHwYJKoZIhvcNAQkBFhJwYXZlbEBrdXN0by5jb20ucnWCAQAw
DQYJKoZIhvcNAQEEBQADgYEAv7uTJwRl6erQXx/Ayj/j3lnaspX7iAB3MVtwEHeB
da90ajlVDzPaVl6eKbNPG2VU3JvqtlJN/gdiNPrrbYdaGWt/18npDoLU3U42DK2+
qPBEZpjy7SxylbJ7eOfouHIxRrkh3bSJC4PTC/mi6ioqOXjcIbgekNemtp6P2q5w
rfM=
-----END CERTIFICATE-----
