Certificate:
    Data:
        Version: 3 (0x2)
        Serial Number: 145 (0x91)
    Signature Algorithm: md5WithRSAEncryption
        Issuer: C=RU, ST=NA, L=TOGLIATTI, O=INZA-LTD-AIST, CN=server/emailAddress=pavel@kusto.com.ru
        Validity
            Not Before: Nov 12 12:29:17 2013 GMT
            Not After : Nov 10 12:29:17 2023 GMT
        Subject: C=RU, ST=NA, O=INZA-LTD-AIST, CN=p_mezhrech/emailAddress=pavel@kusto.com.ru
        Subject Public Key Info:
            Public Key Algorithm: rsaEncryption
                Public-Key: (1024 bit)
                Modulus:
                    00:91:ee:2a:0f:77:a6:35:98:75:1a:6c:2d:aa:85:
                    54:ec:7f:3e:7e:b8:f3:eb:4c:86:af:99:aa:85:7a:
                    89:83:39:64:11:85:fc:ed:46:3b:98:51:0f:ca:ed:
                    59:44:11:c2:ef:a1:df:ac:af:90:a4:47:f9:d1:01:
                    ed:99:dc:02:f0:c9:dd:c5:13:fa:c2:73:81:f2:87:
                    bd:58:e2:6d:3d:66:1c:78:a0:8e:b5:1b:48:ad:fd:
                    b5:4b:04:54:7e:45:6a:0d:9a:d2:29:06:55:3a:6f:
                    ec:68:4b:c5:3f:fb:f7:56:6d:c1:15:90:e4:48:e0:
                    2d:1e:cb:ef:94:80:7f:0a:1b
                Exponent: 65537 (0x10001)
        X509v3 extensions:
            X509v3 Basic Constraints: 
                CA:FALSE
            Netscape Comment: 
                OpenSSL Generated Certificate
            X509v3 Subject Key Identifier: 
                D9:CF:27:C1:F8:53:2A:79:FF:D3:23:1C:29:05:A6:C8:CA:AA:0D:17
            X509v3 Authority Key Identifier: 
                keyid:F6:7C:E6:FB:14:B7:F6:C1:5E:03:99:12:AA:ED:40:E4:44:12:76:38
                DirName:/C=RU/ST=NA/L=TOGLIATTI/O=INZA-LTD-AIST/CN=server/emailAddress=pavel@kusto.com.ru
                serial:00

    Signature Algorithm: md5WithRSAEncryption
         65:38:cc:fb:b5:66:0c:b0:c7:40:b9:e8:f2:ee:4a:99:40:0f:
         49:cc:6d:97:06:b0:91:72:0e:32:aa:74:d7:ab:de:a5:a1:b5:
         72:7e:0d:76:b2:3d:4e:fb:ee:1d:2c:cf:28:92:8e:c4:0f:f4:
         cd:ad:a7:28:63:05:fd:d3:59:27:b5:84:ee:e1:3d:a5:7e:39:
         60:68:80:c7:a1:75:22:a8:19:dd:b4:e3:c8:e7:5d:f3:d4:89:
         bd:31:78:f5:f3:04:4b:03:73:92:eb:bc:bc:d3:9c:49:60:22:
         89:99:61:4a:de:58:7e:89:e5:32:b3:5b:bd:fc:c3:52:89:9b:
         8d:12
-----BEGIN CERTIFICATE-----
MIIDXzCCAsigAwIBAgICAJEwDQYJKoZIhvcNAQEEBQAwejELMAkGA1UEBhMCUlUx
CzAJBgNVBAgTAk5BMRIwEAYDVQQHEwlUT0dMSUFUVEkxFjAUBgNVBAoTDUlOWkEt
TFRELUFJU1QxDzANBgNVBAMTBnNlcnZlcjEhMB8GCSqGSIb3DQEJARYScGF2ZWxA
a3VzdG8uY29tLnJ1MB4XDTEzMTExMjEyMjkxN1oXDTIzMTExMDEyMjkxN1owajEL
MAkGA1UEBhMCUlUxCzAJBgNVBAgTAk5BMRYwFAYDVQQKEw1JTlpBLUxURC1BSVNU
MRMwEQYDVQQDFApwX21lemhyZWNoMSEwHwYJKoZIhvcNAQkBFhJwYXZlbEBrdXN0
by5jb20ucnUwgZ8wDQYJKoZIhvcNAQEBBQADgY0AMIGJAoGBAJHuKg93pjWYdRps
LaqFVOx/Pn648+tMhq+ZqoV6iYM5ZBGF/O1GO5hRD8rtWUQRwu+h36yvkKRH+dEB
7ZncAvDJ3cUT+sJzgfKHvVjibT1mHHigjrUbSK39tUsEVH5Fag2a0ikGVTpv7GhL
xT/791ZtwRWQ5EjgLR7L75SAfwobAgMBAAGjggECMIH/MAkGA1UdEwQCMAAwLAYJ
YIZIAYb4QgENBB8WHU9wZW5TU0wgR2VuZXJhdGVkIENlcnRpZmljYXRlMB0GA1Ud
DgQWBBTZzyfB+FMqef/TIxwpBabIyqoNFzCBpAYDVR0jBIGcMIGZgBT2fOb7FLf2
wV4DmRKq7UDkRBJ2OKF+pHwwejELMAkGA1UEBhMCUlUxCzAJBgNVBAgTAk5BMRIw
EAYDVQQHEwlUT0dMSUFUVEkxFjAUBgNVBAoTDUlOWkEtTFRELUFJU1QxDzANBgNV
BAMTBnNlcnZlcjEhMB8GCSqGSIb3DQEJARYScGF2ZWxAa3VzdG8uY29tLnJ1ggEA
MA0GCSqGSIb3DQEBBAUAA4GBAGU4zPu1Zgywx0C56PLuSplAD0nMbZcGsJFyDjKq
dNer3qWhtXJ+DXayPU777h0szyiSjsQP9M2tpyhjBf3TWSe1hO7hPaV+OWBogMeh
dSKoGd2048jnXfPUib0xePXzBEsDc5LrvLzTnElgIomZYUreWH6J5TKzW738w1KJ
m40S
-----END CERTIFICATE-----
