Certificate:
    Data:
        Version: 3 (0x2)
        Serial Number: 150 (0x96)
    Signature Algorithm: md5WithRSAEncryption
        Issuer: C=RU, ST=NA, L=TOGLIATTI, O=INZA-LTD-AIST, CN=server/emailAddress=pavel@kusto.com.ru
        Validity
            Not Before: Jan 29 07:35:09 2014 GMT
            Not After : Jan 27 07:35:09 2024 GMT
        Subject: C=RU, ST=NA, O=INZA-LTD-AIST, CN=modlina_d/emailAddress=pavel@kusto.com.ru
        Subject Public Key Info:
            Public Key Algorithm: rsaEncryption
                Public-Key: (1024 bit)
                Modulus:
                    00:ce:01:3d:6b:f9:75:c0:35:3a:32:e7:c2:da:47:
                    89:3c:70:60:80:d5:ef:97:85:aa:e0:5f:f3:cb:b6:
                    e7:f9:43:d2:35:b4:94:3d:de:6a:a8:1b:36:d1:45:
                    6e:c7:57:9c:e2:cc:07:29:47:65:89:41:43:57:ed:
                    88:84:d5:9d:ce:85:06:a5:5b:52:83:87:25:34:73:
                    6e:87:9b:73:db:6a:43:be:ac:f5:2f:8d:f2:83:de:
                    61:83:6a:1f:cf:24:8d:8f:b6:52:98:25:59:36:c0:
                    a4:a5:ba:c3:80:65:92:58:41:8a:8a:97:a7:8c:ee:
                    65:13:89:20:b6:0b:3d:b2:c5
                Exponent: 65537 (0x10001)
        X509v3 extensions:
            X509v3 Basic Constraints: 
                CA:FALSE
            Netscape Comment: 
                OpenSSL Generated Certificate
            X509v3 Subject Key Identifier: 
                2E:BE:69:4E:6E:53:93:05:A9:66:10:2E:F6:8D:6F:66:D8:69:3D:6E
            X509v3 Authority Key Identifier: 
                keyid:F6:7C:E6:FB:14:B7:F6:C1:5E:03:99:12:AA:ED:40:E4:44:12:76:38
                DirName:/C=RU/ST=NA/L=TOGLIATTI/O=INZA-LTD-AIST/CN=server/emailAddress=pavel@kusto.com.ru
                serial:00

    Signature Algorithm: md5WithRSAEncryption
         97:81:47:10:b2:89:5e:22:b9:6d:88:b3:fa:98:73:35:8b:40:
         80:79:23:9e:a2:7b:33:e1:8a:e2:42:a9:54:ad:52:77:c5:f5:
         d8:d0:b3:69:9b:67:02:34:fe:6c:83:05:b5:c0:9d:91:91:bb:
         c8:5b:a1:df:f0:7f:6b:90:49:5b:a7:ba:3c:2b:a6:e6:3b:9a:
         1f:5b:0a:65:c4:bd:04:89:6f:df:25:66:fc:51:af:a1:49:38:
         a9:45:df:6b:68:f0:24:83:65:a3:a2:96:2e:70:24:53:4e:a7:
         bb:42:ba:a4:11:6e:93:2d:a9:6c:82:0a:89:14:a6:54:0e:1b:
         83:a5
-----BEGIN CERTIFICATE-----
MIIDXjCCAsegAwIBAgICAJYwDQYJKoZIhvcNAQEEBQAwejELMAkGA1UEBhMCUlUx
CzAJBgNVBAgTAk5BMRIwEAYDVQQHEwlUT0dMSUFUVEkxFjAUBgNVBAoTDUlOWkEt
TFRELUFJU1QxDzANBgNVBAMTBnNlcnZlcjEhMB8GCSqGSIb3DQEJARYScGF2ZWxA
a3VzdG8uY29tLnJ1MB4XDTE0MDEyOTA3MzUwOVoXDTI0MDEyNzA3MzUwOVowaTEL
MAkGA1UEBhMCUlUxCzAJBgNVBAgTAk5BMRYwFAYDVQQKEw1JTlpBLUxURC1BSVNU
MRIwEAYDVQQDFAltb2RsaW5hX2QxITAfBgkqhkiG9w0BCQEWEnBhdmVsQGt1c3Rv
LmNvbS5ydTCBnzANBgkqhkiG9w0BAQEFAAOBjQAwgYkCgYEAzgE9a/l1wDU6MufC
2keJPHBggNXvl4Wq4F/zy7bn+UPSNbSUPd5qqBs20UVux1ec4swHKUdliUFDV+2I
hNWdzoUGpVtSg4clNHNuh5tz22pDvqz1L43yg95hg2ofzySNj7ZSmCVZNsCkpbrD
gGWSWEGKipenjO5lE4kgtgs9ssUCAwEAAaOCAQIwgf8wCQYDVR0TBAIwADAsBglg
hkgBhvhCAQ0EHxYdT3BlblNTTCBHZW5lcmF0ZWQgQ2VydGlmaWNhdGUwHQYDVR0O
BBYEFC6+aU5uU5MFqWYQLvaNb2bYaT1uMIGkBgNVHSMEgZwwgZmAFPZ85vsUt/bB
XgOZEqrtQOREEnY4oX6kfDB6MQswCQYDVQQGEwJSVTELMAkGA1UECBMCTkExEjAQ
BgNVBAcTCVRPR0xJQVRUSTEWMBQGA1UEChMNSU5aQS1MVEQtQUlTVDEPMA0GA1UE
AxMGc2VydmVyMSEwHwYJKoZIhvcNAQkBFhJwYXZlbEBrdXN0by5jb20ucnWCAQAw
DQYJKoZIhvcNAQEEBQADgYEAl4FHELKJXiK5bYiz+phzNYtAgHkjnqJ7M+GK4kKp
VK1Sd8X12NCzaZtnAjT+bIMFtcCdkZG7yFuh3/B/a5BJW6e6PCum5juaH1sKZcS9
BIlv3yVm/FGvoUk4qUXfa2jwJINlo6KWLnAkU06nu0K6pBFuky2pbIIKiRSmVA4b
g6U=
-----END CERTIFICATE-----
