Certificate:
    Data:
        Version: 3 (0x2)
        Serial Number: 153 (0x99)
    Signature Algorithm: md5WithRSAEncryption
        Issuer: C=RU, ST=NA, L=TOGLIATTI, O=INZA-LTD-AIST, CN=server/emailAddress=pavel@kusto.com.ru
        Validity
            Not Before: Apr 21 06:19:23 2014 GMT
            Not After : Apr 18 06:19:23 2024 GMT
        Subject: C=RU, ST=NA, O=INZA-LTD-AIST, CN=vav/emailAddress=pavel@kusto.com.ru
        Subject Public Key Info:
            Public Key Algorithm: rsaEncryption
                Public-Key: (1024 bit)
                Modulus:
                    00:a1:d6:00:ea:8f:a2:e6:ab:52:9e:90:f1:39:09:
                    80:9f:7a:78:cd:8a:ed:37:54:bc:fb:ff:b5:f5:b2:
                    28:87:60:e0:e6:44:84:0a:d4:a4:e6:f1:c6:fe:5e:
                    60:68:35:f7:4c:64:2d:a9:98:d0:67:88:97:29:b1:
                    4f:ca:60:dc:c9:08:91:9a:26:ca:58:84:27:6e:d5:
                    4e:5c:dc:bd:d4:19:3e:d7:42:c6:33:4c:c8:f8:b3:
                    0c:0c:88:90:22:40:bf:57:18:74:e6:6a:05:9d:bd:
                    8e:04:e5:aa:ba:d3:a4:e0:d9:03:2b:f3:22:dc:af:
                    29:6c:96:f2:66:c4:0f:37:91
                Exponent: 65537 (0x10001)
        X509v3 extensions:
            X509v3 Basic Constraints: 
                CA:FALSE
            Netscape Comment: 
                OpenSSL Generated Certificate
            X509v3 Subject Key Identifier: 
                6C:E4:38:20:4C:66:76:48:4B:62:40:27:89:2B:CD:E2:77:38:FA:A1
            X509v3 Authority Key Identifier: 
                keyid:F6:7C:E6:FB:14:B7:F6:C1:5E:03:99:12:AA:ED:40:E4:44:12:76:38
                DirName:/C=RU/ST=NA/L=TOGLIATTI/O=INZA-LTD-AIST/CN=server/emailAddress=pavel@kusto.com.ru
                serial:00

    Signature Algorithm: md5WithRSAEncryption
         79:e8:f8:21:d1:44:e5:8f:80:0b:dc:3b:46:7b:19:4d:48:1c:
         48:58:4c:27:32:22:0b:e1:e2:2f:79:54:ae:3e:5c:34:11:2e:
         e3:53:b3:70:23:25:32:4e:b7:2b:3f:d7:04:49:d2:fd:31:cb:
         9f:93:71:1b:c8:5f:fe:16:fa:f7:41:a2:92:78:0d:fe:f9:47:
         64:b8:e7:e6:dc:51:55:23:e7:fd:4c:0b:18:10:f8:bf:b3:35:
         12:1f:96:c2:d4:1c:4e:69:01:71:a9:94:e7:a6:a0:21:30:f2:
         cd:a0:8e:14:9e:8f:fa:39:9a:70:45:84:5d:d4:ee:d0:f3:29:
         9d:67
-----BEGIN CERTIFICATE-----
MIIDWDCCAsGgAwIBAgICAJkwDQYJKoZIhvcNAQEEBQAwejELMAkGA1UEBhMCUlUx
CzAJBgNVBAgTAk5BMRIwEAYDVQQHEwlUT0dMSUFUVEkxFjAUBgNVBAoTDUlOWkEt
TFRELUFJU1QxDzANBgNVBAMTBnNlcnZlcjEhMB8GCSqGSIb3DQEJARYScGF2ZWxA
a3VzdG8uY29tLnJ1MB4XDTE0MDQyMTA2MTkyM1oXDTI0MDQxODA2MTkyM1owYzEL
MAkGA1UEBhMCUlUxCzAJBgNVBAgTAk5BMRYwFAYDVQQKEw1JTlpBLUxURC1BSVNU
MQwwCgYDVQQDEwN2YXYxITAfBgkqhkiG9w0BCQEWEnBhdmVsQGt1c3RvLmNvbS5y
dTCBnzANBgkqhkiG9w0BAQEFAAOBjQAwgYkCgYEAodYA6o+i5qtSnpDxOQmAn3p4
zYrtN1S8+/+19bIoh2Dg5kSECtSk5vHG/l5gaDX3TGQtqZjQZ4iXKbFPymDcyQiR
mibKWIQnbtVOXNy91Bk+10LGM0zI+LMMDIiQIkC/Vxh05moFnb2OBOWqutOk4NkD
K/Mi3K8pbJbyZsQPN5ECAwEAAaOCAQIwgf8wCQYDVR0TBAIwADAsBglghkgBhvhC
AQ0EHxYdT3BlblNTTCBHZW5lcmF0ZWQgQ2VydGlmaWNhdGUwHQYDVR0OBBYEFGzk
OCBMZnZIS2JAJ4krzeJ3OPqhMIGkBgNVHSMEgZwwgZmAFPZ85vsUt/bBXgOZEqrt
QOREEnY4oX6kfDB6MQswCQYDVQQGEwJSVTELMAkGA1UECBMCTkExEjAQBgNVBAcT
CVRPR0xJQVRUSTEWMBQGA1UEChMNSU5aQS1MVEQtQUlTVDEPMA0GA1UEAxMGc2Vy
dmVyMSEwHwYJKoZIhvcNAQkBFhJwYXZlbEBrdXN0by5jb20ucnWCAQAwDQYJKoZI
hvcNAQEEBQADgYEAeej4IdFE5Y+AC9w7RnsZTUgcSFhMJzIiC+HiL3lUrj5cNBEu
41OzcCMlMk63Kz/XBEnS/THLn5NxG8hf/hb690GikngN/vlHZLjn5txRVSPn/UwL
GBD4v7M1Eh+WwtQcTmkBcamU56agITDyzaCOFJ6P+jmacEWEXdTu0PMpnWc=
-----END CERTIFICATE-----
