Certificate:
    Data:
        Version: 3 (0x2)
        Serial Number: 155 (0x9b)
    Signature Algorithm: md5WithRSAEncryption
        Issuer: C=RU, ST=NA, L=TOGLIATTI, O=INZA-LTD-AIST, CN=server/emailAddress=pavel@kusto.com.ru
        Validity
            Not Before: Jul  8 13:18:00 2014 GMT
            Not After : Jul  5 13:18:00 2024 GMT
        Subject: C=RU, ST=NA, O=INZA-LTD-AIST, CN=p_hryaschevka/emailAddress=pavel@kusto.com.ru
        Subject Public Key Info:
            Public Key Algorithm: rsaEncryption
                Public-Key: (1024 bit)
                Modulus:
                    00:ef:46:3d:b6:a6:c0:53:9e:a1:07:0b:9b:5f:0a:
                    53:5b:1a:7d:ad:2e:c0:a7:8a:bc:9f:5f:b1:dd:47:
                    6e:20:28:d3:b1:4f:08:48:74:b6:8a:31:a8:2d:df:
                    e9:16:36:8c:ea:38:82:26:1b:59:6a:85:2a:16:09:
                    1c:6e:77:9b:eb:73:16:4a:c9:60:0f:39:f6:78:90:
                    b9:c7:ad:65:12:5e:e5:39:b6:db:96:02:41:05:9e:
                    7d:0a:8c:60:ec:6a:91:ae:83:28:0a:0e:14:cb:f7:
                    1a:03:05:d4:48:e4:ec:04:0b:be:bb:46:5c:da:ae:
                    bf:18:cb:c2:e0:dd:18:14:65
                Exponent: 65537 (0x10001)
        X509v3 extensions:
            X509v3 Basic Constraints: 
                CA:FALSE
            Netscape Comment: 
                OpenSSL Generated Certificate
            X509v3 Subject Key Identifier: 
                C0:D6:89:CC:EE:71:3D:D8:6F:B7:26:8D:D7:29:3A:46:2F:EE:91:1A
            X509v3 Authority Key Identifier: 
                keyid:F6:7C:E6:FB:14:B7:F6:C1:5E:03:99:12:AA:ED:40:E4:44:12:76:38
                DirName:/C=RU/ST=NA/L=TOGLIATTI/O=INZA-LTD-AIST/CN=server/emailAddress=pavel@kusto.com.ru
                serial:00

    Signature Algorithm: md5WithRSAEncryption
         51:fe:15:63:f2:b4:f3:dc:eb:26:01:19:d0:01:84:4f:4d:dd:
         4d:5f:7d:9e:37:f2:43:c0:71:bf:a0:90:be:f0:b4:a7:7d:8b:
         bb:30:52:cc:2d:df:c1:f9:aa:03:5d:5f:a9:d0:78:72:2c:70:
         5c:57:ea:c0:d4:db:ce:48:bb:9a:c5:2b:6e:ce:c2:81:30:b6:
         87:76:9d:8b:29:e7:c1:8d:f7:96:21:c3:4a:80:54:36:31:47:
         14:71:d4:e9:f1:21:0e:a0:29:36:51:f7:ba:3c:5e:54:68:8b:
         38:fa:6c:3c:1a:4d:f8:45:b2:c4:8e:e5:e0:2b:93:68:da:6f:
         d9:c4
-----BEGIN CERTIFICATE-----
MIIDYjCCAsugAwIBAgICAJswDQYJKoZIhvcNAQEEBQAwejELMAkGA1UEBhMCUlUx
CzAJBgNVBAgTAk5BMRIwEAYDVQQHEwlUT0dMSUFUVEkxFjAUBgNVBAoTDUlOWkEt
TFRELUFJU1QxDzANBgNVBAMTBnNlcnZlcjEhMB8GCSqGSIb3DQEJARYScGF2ZWxA
a3VzdG8uY29tLnJ1MB4XDTE0MDcwODEzMTgwMFoXDTI0MDcwNTEzMTgwMFowbTEL
MAkGA1UEBhMCUlUxCzAJBgNVBAgTAk5BMRYwFAYDVQQKEw1JTlpBLUxURC1BSVNU
MRYwFAYDVQQDFA1wX2hyeWFzY2hldmthMSEwHwYJKoZIhvcNAQkBFhJwYXZlbEBr
dXN0by5jb20ucnUwgZ8wDQYJKoZIhvcNAQEBBQADgY0AMIGJAoGBAO9GPbamwFOe
oQcLm18KU1safa0uwKeKvJ9fsd1HbiAo07FPCEh0tooxqC3f6RY2jOo4giYbWWqF
KhYJHG53m+tzFkrJYA859niQucetZRJe5Tm225YCQQWefQqMYOxqka6DKAoOFMv3
GgMF1Ejk7AQLvrtGXNquvxjLwuDdGBRlAgMBAAGjggECMIH/MAkGA1UdEwQCMAAw
LAYJYIZIAYb4QgENBB8WHU9wZW5TU0wgR2VuZXJhdGVkIENlcnRpZmljYXRlMB0G
A1UdDgQWBBTA1onM7nE92G+3Jo3XKTpGL+6RGjCBpAYDVR0jBIGcMIGZgBT2fOb7
FLf2wV4DmRKq7UDkRBJ2OKF+pHwwejELMAkGA1UEBhMCUlUxCzAJBgNVBAgTAk5B
MRIwEAYDVQQHEwlUT0dMSUFUVEkxFjAUBgNVBAoTDUlOWkEtTFRELUFJU1QxDzAN
BgNVBAMTBnNlcnZlcjEhMB8GCSqGSIb3DQEJARYScGF2ZWxAa3VzdG8uY29tLnJ1
ggEAMA0GCSqGSIb3DQEBBAUAA4GBAFH+FWPytPPc6yYBGdABhE9N3U1ffZ438kPA
cb+gkL7wtKd9i7swUswt38H5qgNdX6nQeHIscFxX6sDU285Iu5rFK27OwoEwtod2
nYsp58GN95Yhw0qAVDYxRxRx1OnxIQ6gKTZR97o8XlRoizj6bDwaTfhFssSO5eAr
k2jab9nE
-----END CERTIFICATE-----
