Certificate:
    Data:
        Version: 3 (0x2)
        Serial Number: 156 (0x9c)
    Signature Algorithm: md5WithRSAEncryption
        Issuer: C=RU, ST=NA, L=TOGLIATTI, O=INZA-LTD-AIST, CN=server/emailAddress=pavel@kusto.com.ru
        Validity
            Not Before: Jul 17 09:28:18 2014 GMT
            Not After : Jul 14 09:28:18 2024 GMT
        Subject: C=RU, ST=NA, O=INZA-LTD-AIST, CN=stroyka/emailAddress=pavel@kusto.com.ru
        Subject Public Key Info:
            Public Key Algorithm: rsaEncryption
                Public-Key: (1024 bit)
                Modulus:
                    00:e9:60:79:32:38:6f:8c:f6:7e:97:48:6e:58:22:
                    41:75:05:ff:f4:c9:73:13:a5:f6:43:5a:b6:8a:10:
                    84:f8:0e:43:c9:4c:92:9c:d6:86:77:a0:94:9a:26:
                    2e:99:41:f4:db:08:98:f9:40:49:f0:d5:2c:55:0c:
                    3a:0d:3d:e3:84:9e:2e:34:a1:60:a6:fb:a8:03:47:
                    57:e1:a8:34:bc:2f:44:60:e3:87:80:46:33:8f:52:
                    97:58:27:7a:61:c5:1b:ff:59:47:91:c5:6b:74:59:
                    92:fa:5a:63:3a:ae:98:a6:c9:1a:8b:09:d6:46:04:
                    67:5f:78:81:bd:3c:3a:6a:65
                Exponent: 65537 (0x10001)
        X509v3 extensions:
            X509v3 Basic Constraints: 
                CA:FALSE
            Netscape Comment: 
                OpenSSL Generated Certificate
            X509v3 Subject Key Identifier: 
                CD:C0:84:36:A1:32:8B:FB:D6:FF:19:07:F8:F1:47:3E:9F:32:A0:B5
            X509v3 Authority Key Identifier: 
                keyid:F6:7C:E6:FB:14:B7:F6:C1:5E:03:99:12:AA:ED:40:E4:44:12:76:38
                DirName:/C=RU/ST=NA/L=TOGLIATTI/O=INZA-LTD-AIST/CN=server/emailAddress=pavel@kusto.com.ru
                serial:00

    Signature Algorithm: md5WithRSAEncryption
         79:04:2e:0b:93:40:0a:26:76:47:8c:9b:38:a2:de:95:80:d3:
         a4:8a:82:0a:51:50:a3:ba:d5:e4:47:3f:4e:86:13:b4:4e:21:
         a0:cb:e5:37:cb:26:3a:e3:d0:eb:e5:4c:2b:89:fa:61:74:31:
         7c:1e:67:89:07:b4:89:82:ff:85:31:51:58:40:a0:5d:77:1f:
         91:58:97:45:1d:24:97:7f:1f:ea:47:33:b7:3f:d2:ed:f9:91:
         33:f9:68:e3:a1:e0:4d:4f:c5:08:f5:f6:32:53:8f:ba:6c:47:
         be:e5:8a:41:38:e3:d7:64:62:fe:ea:86:60:11:e5:9f:d9:39:
         90:8a
-----BEGIN CERTIFICATE-----
MIIDXDCCAsWgAwIBAgICAJwwDQYJKoZIhvcNAQEEBQAwejELMAkGA1UEBhMCUlUx
CzAJBgNVBAgTAk5BMRIwEAYDVQQHEwlUT0dMSUFUVEkxFjAUBgNVBAoTDUlOWkEt
TFRELUFJU1QxDzANBgNVBAMTBnNlcnZlcjEhMB8GCSqGSIb3DQEJARYScGF2ZWxA
a3VzdG8uY29tLnJ1MB4XDTE0MDcxNzA5MjgxOFoXDTI0MDcxNDA5MjgxOFowZzEL
MAkGA1UEBhMCUlUxCzAJBgNVBAgTAk5BMRYwFAYDVQQKEw1JTlpBLUxURC1BSVNU
MRAwDgYDVQQDEwdzdHJveWthMSEwHwYJKoZIhvcNAQkBFhJwYXZlbEBrdXN0by5j
b20ucnUwgZ8wDQYJKoZIhvcNAQEBBQADgY0AMIGJAoGBAOlgeTI4b4z2fpdIblgi
QXUF//TJcxOl9kNatooQhPgOQ8lMkpzWhneglJomLplB9NsImPlASfDVLFUMOg09
44SeLjShYKb7qANHV+GoNLwvRGDjh4BGM49Sl1gnemHFG/9ZR5HFa3RZkvpaYzqu
mKbJGosJ1kYEZ194gb08OmplAgMBAAGjggECMIH/MAkGA1UdEwQCMAAwLAYJYIZI
AYb4QgENBB8WHU9wZW5TU0wgR2VuZXJhdGVkIENlcnRpZmljYXRlMB0GA1UdDgQW
BBTNwIQ2oTKL+9b/GQf48Uc+nzKgtTCBpAYDVR0jBIGcMIGZgBT2fOb7FLf2wV4D
mRKq7UDkRBJ2OKF+pHwwejELMAkGA1UEBhMCUlUxCzAJBgNVBAgTAk5BMRIwEAYD
VQQHEwlUT0dMSUFUVEkxFjAUBgNVBAoTDUlOWkEtTFRELUFJU1QxDzANBgNVBAMT
BnNlcnZlcjEhMB8GCSqGSIb3DQEJARYScGF2ZWxAa3VzdG8uY29tLnJ1ggEAMA0G
CSqGSIb3DQEBBAUAA4GBAHkELguTQAomdkeMmzii3pWA06SKggpRUKO61eRHP06G
E7ROIaDL5TfLJjrj0OvlTCuJ+mF0MXweZ4kHtImC/4UxUVhAoF13H5FYl0UdJJd/
H+pHM7c/0u35kTP5aOOh4E1PxQj19jJTj7psR77likE449dkYv7qhmAR5Z/ZOZCK
-----END CERTIFICATE-----
