Certificate:
    Data:
        Version: 3 (0x2)
        Serial Number: 160 (0xa0)
    Signature Algorithm: md5WithRSAEncryption
        Issuer: C=RU, ST=NA, L=TOGLIATTI, O=INZA-LTD-AIST, CN=server/emailAddress=pavel@kusto.com.ru
        Validity
            Not Before: Oct 27 08:51:53 2014 GMT
            Not After : Oct 24 08:51:53 2024 GMT
        Subject: C=RU, ST=NA, O=INZA-LTD-AIST, CN=sasha_mac/emailAddress=pavel@kusto.com.ru
        Subject Public Key Info:
            Public Key Algorithm: rsaEncryption
                Public-Key: (1024 bit)
                Modulus:
                    00:a0:71:86:1e:97:7d:2b:bc:2b:18:11:d7:25:40:
                    b6:53:81:ee:40:e0:50:6c:01:49:ea:5c:0c:98:72:
                    fd:55:18:fa:0c:4a:3e:12:42:78:c2:b5:35:d4:6a:
                    8b:62:86:a6:33:99:ae:be:f7:7d:ef:24:b8:71:68:
                    18:dc:19:8f:86:41:3f:a8:25:9b:36:85:75:4b:18:
                    84:24:8e:3a:bb:35:a4:0a:7b:e7:a5:4e:19:cf:4e:
                    1b:ac:5d:e6:dc:06:03:ce:0b:b7:3b:60:cb:f7:99:
                    14:77:9b:b0:83:21:7e:5a:df:4a:7a:d7:11:95:0a:
                    77:bb:a8:73:ff:32:26:38:97
                Exponent: 65537 (0x10001)
        X509v3 extensions:
            X509v3 Basic Constraints: 
                CA:FALSE
            Netscape Comment: 
                OpenSSL Generated Certificate
            X509v3 Subject Key Identifier: 
                84:3D:4D:BF:31:A4:93:87:A2:04:D5:26:12:06:61:47:53:50:E6:4F
            X509v3 Authority Key Identifier: 
                keyid:F6:7C:E6:FB:14:B7:F6:C1:5E:03:99:12:AA:ED:40:E4:44:12:76:38
                DirName:/C=RU/ST=NA/L=TOGLIATTI/O=INZA-LTD-AIST/CN=server/emailAddress=pavel@kusto.com.ru
                serial:00

    Signature Algorithm: md5WithRSAEncryption
         7d:fb:2d:3f:3d:2c:e7:a4:2d:ef:19:11:a9:1d:24:b4:01:70:
         e4:e5:63:ac:92:67:26:ee:7a:b7:07:b2:2a:14:bc:2a:a7:74:
         fb:4d:0d:9d:93:b9:c6:99:a5:e1:3b:69:e3:0c:31:78:35:5e:
         e1:8a:8a:e2:34:d7:e0:f1:f2:ce:c1:fb:a4:55:4f:9b:b9:d8:
         4f:63:14:be:56:1a:2d:91:62:01:d6:dc:9a:51:d1:56:af:b5:
         1a:7d:4a:56:8b:12:94:3b:20:4f:f1:bf:5f:26:f6:40:4d:a3:
         6d:07:33:18:ce:27:56:69:ed:2a:87:ac:38:17:97:04:2c:c8:
         8b:40
-----BEGIN CERTIFICATE-----
MIIDXjCCAsegAwIBAgICAKAwDQYJKoZIhvcNAQEEBQAwejELMAkGA1UEBhMCUlUx
CzAJBgNVBAgTAk5BMRIwEAYDVQQHEwlUT0dMSUFUVEkxFjAUBgNVBAoTDUlOWkEt
TFRELUFJU1QxDzANBgNVBAMTBnNlcnZlcjEhMB8GCSqGSIb3DQEJARYScGF2ZWxA
a3VzdG8uY29tLnJ1MB4XDTE0MTAyNzA4NTE1M1oXDTI0MTAyNDA4NTE1M1owaTEL
MAkGA1UEBhMCUlUxCzAJBgNVBAgTAk5BMRYwFAYDVQQKEw1JTlpBLUxURC1BSVNU
MRIwEAYDVQQDFAlzYXNoYV9tYWMxITAfBgkqhkiG9w0BCQEWEnBhdmVsQGt1c3Rv
LmNvbS5ydTCBnzANBgkqhkiG9w0BAQEFAAOBjQAwgYkCgYEAoHGGHpd9K7wrGBHX
JUC2U4HuQOBQbAFJ6lwMmHL9VRj6DEo+EkJ4wrU11GqLYoamM5muvvd97yS4cWgY
3BmPhkE/qCWbNoV1SxiEJI46uzWkCnvnpU4Zz04brF3m3AYDzgu3O2DL95kUd5uw
gyF+Wt9KetcRlQp3u6hz/zImOJcCAwEAAaOCAQIwgf8wCQYDVR0TBAIwADAsBglg
hkgBhvhCAQ0EHxYdT3BlblNTTCBHZW5lcmF0ZWQgQ2VydGlmaWNhdGUwHQYDVR0O
BBYEFIQ9Tb8xpJOHogTVJhIGYUdTUOZPMIGkBgNVHSMEgZwwgZmAFPZ85vsUt/bB
XgOZEqrtQOREEnY4oX6kfDB6MQswCQYDVQQGEwJSVTELMAkGA1UECBMCTkExEjAQ
BgNVBAcTCVRPR0xJQVRUSTEWMBQGA1UEChMNSU5aQS1MVEQtQUlTVDEPMA0GA1UE
AxMGc2VydmVyMSEwHwYJKoZIhvcNAQkBFhJwYXZlbEBrdXN0by5jb20ucnWCAQAw
DQYJKoZIhvcNAQEEBQADgYEAffstPz0s56Qt7xkRqR0ktAFw5OVjrJJnJu56twey
KhS8Kqd0+00NnZO5xpml4Ttp4wwxeDVe4YqK4jTX4PHyzsH7pFVPm7nYT2MUvlYa
LZFiAdbcmlHRVq+1Gn1KVosSlDsgT/G/Xyb2QE2jbQczGM4nVmntKoesOBeXBCzI
i0A=
-----END CERTIFICATE-----
