Certificate:
    Data:
        Version: 3 (0x2)
        Serial Number: 161 (0xa1)
    Signature Algorithm: md5WithRSAEncryption
        Issuer: C=RU, ST=NA, L=TOGLIATTI, O=INZA-LTD-AIST, CN=server/emailAddress=pavel@kusto.com.ru
        Validity
            Not Before: Oct 29 07:28:39 2014 GMT
            Not After : Oct 26 07:28:39 2024 GMT
        Subject: C=RU, ST=NA, O=INZA-LTD-AIST, CN=borisov/emailAddress=pavel@kusto.com.ru
        Subject Public Key Info:
            Public Key Algorithm: rsaEncryption
                Public-Key: (1024 bit)
                Modulus:
                    00:c4:2e:69:3e:ac:58:ed:c7:86:34:0d:dc:82:66:
                    dd:77:70:03:e4:79:cf:21:86:86:18:06:43:3d:b3:
                    6b:f6:95:16:9e:9a:12:e6:f5:cc:ef:cc:ea:b2:89:
                    cc:73:92:7a:9c:01:10:06:b3:46:a6:99:d6:66:72:
                    a3:57:20:eb:19:e5:45:2e:12:7c:af:b0:06:88:6a:
                    84:e4:fa:91:26:11:d9:dd:e9:19:38:c5:94:21:aa:
                    56:8d:7a:d4:1f:1f:80:68:0d:7e:81:0d:42:b6:ab:
                    a1:25:e8:fb:6c:6e:53:e8:e1:df:07:0d:48:ee:48:
                    30:c8:35:07:93:a8:fa:e1:ef
                Exponent: 65537 (0x10001)
        X509v3 extensions:
            X509v3 Basic Constraints: 
                CA:FALSE
            Netscape Comment: 
                OpenSSL Generated Certificate
            X509v3 Subject Key Identifier: 
                EC:C5:7C:5A:11:C4:2A:40:E2:73:57:65:3D:50:B7:18:0A:CD:68:B8
            X509v3 Authority Key Identifier: 
                keyid:F6:7C:E6:FB:14:B7:F6:C1:5E:03:99:12:AA:ED:40:E4:44:12:76:38
                DirName:/C=RU/ST=NA/L=TOGLIATTI/O=INZA-LTD-AIST/CN=server/emailAddress=pavel@kusto.com.ru
                serial:00

    Signature Algorithm: md5WithRSAEncryption
         ba:f5:3b:6f:f6:0c:f1:f2:0a:ac:c4:74:15:25:d9:71:82:92:
         15:03:fc:b4:2b:f8:84:fc:81:cb:46:60:c2:47:50:6f:12:36:
         88:a6:28:9f:df:28:3f:c3:e6:bf:33:c2:86:bd:12:af:9a:83:
         c5:0f:07:d7:e9:03:17:57:d5:74:45:ba:72:92:22:79:52:2f:
         64:c2:0e:b8:a4:b1:b5:e6:b2:99:7e:4c:d3:5f:24:fd:b6:ed:
         05:a4:49:91:ad:28:b3:6c:06:91:d5:6f:bc:bc:dd:f1:b5:a5:
         96:ca:d3:e1:48:db:09:97:07:7f:a9:71:34:95:35:6c:a5:04:
         b8:5e
-----BEGIN CERTIFICATE-----
MIIDXDCCAsWgAwIBAgICAKEwDQYJKoZIhvcNAQEEBQAwejELMAkGA1UEBhMCUlUx
CzAJBgNVBAgTAk5BMRIwEAYDVQQHEwlUT0dMSUFUVEkxFjAUBgNVBAoTDUlOWkEt
TFRELUFJU1QxDzANBgNVBAMTBnNlcnZlcjEhMB8GCSqGSIb3DQEJARYScGF2ZWxA
a3VzdG8uY29tLnJ1MB4XDTE0MTAyOTA3MjgzOVoXDTI0MTAyNjA3MjgzOVowZzEL
MAkGA1UEBhMCUlUxCzAJBgNVBAgTAk5BMRYwFAYDVQQKEw1JTlpBLUxURC1BSVNU
MRAwDgYDVQQDEwdib3Jpc292MSEwHwYJKoZIhvcNAQkBFhJwYXZlbEBrdXN0by5j
b20ucnUwgZ8wDQYJKoZIhvcNAQEBBQADgY0AMIGJAoGBAMQuaT6sWO3HhjQN3IJm
3XdwA+R5zyGGhhgGQz2za/aVFp6aEub1zO/M6rKJzHOSepwBEAazRqaZ1mZyo1cg
6xnlRS4SfK+wBohqhOT6kSYR2d3pGTjFlCGqVo161B8fgGgNfoENQraroSXo+2xu
U+jh3wcNSO5IMMg1B5Oo+uHvAgMBAAGjggECMIH/MAkGA1UdEwQCMAAwLAYJYIZI
AYb4QgENBB8WHU9wZW5TU0wgR2VuZXJhdGVkIENlcnRpZmljYXRlMB0GA1UdDgQW
BBTsxXxaEcQqQOJzV2U9ULcYCs1ouDCBpAYDVR0jBIGcMIGZgBT2fOb7FLf2wV4D
mRKq7UDkRBJ2OKF+pHwwejELMAkGA1UEBhMCUlUxCzAJBgNVBAgTAk5BMRIwEAYD
VQQHEwlUT0dMSUFUVEkxFjAUBgNVBAoTDUlOWkEtTFRELUFJU1QxDzANBgNVBAMT
BnNlcnZlcjEhMB8GCSqGSIb3DQEJARYScGF2ZWxAa3VzdG8uY29tLnJ1ggEAMA0G
CSqGSIb3DQEBBAUAA4GBALr1O2/2DPHyCqzEdBUl2XGCkhUD/LQr+IT8gctGYMJH
UG8SNoimKJ/fKD/D5r8zwoa9Eq+ag8UPB9fpAxdX1XRFunKSInlSL2TCDriksbXm
spl+TNNfJP227QWkSZGtKLNsBpHVb7y83fG1pZbK0+FI2wmXB3+pcTSVNWylBLhe
-----END CERTIFICATE-----
