Certificate:
    Data:
        Version: 3 (0x2)
        Serial Number: 162 (0xa2)
    Signature Algorithm: md5WithRSAEncryption
        Issuer: C=RU, ST=NA, L=TOGLIATTI, O=INZA-LTD-AIST, CN=server/emailAddress=pavel@kusto.com.ru
        Validity
            Not Before: Nov  5 12:51:30 2014 GMT
            Not After : Nov  2 12:51:30 2024 GMT
        Subject: C=RU, ST=NA, O=INZA-LTD-AIST, CN=f_diman/emailAddress=pavel@kusto.com.ru
        Subject Public Key Info:
            Public Key Algorithm: rsaEncryption
                Public-Key: (1024 bit)
                Modulus:
                    00:b0:58:6b:6d:5d:b9:ca:30:07:f5:23:2d:49:95:
                    2e:dd:38:5d:5d:c9:ca:f4:c3:85:73:d2:e4:64:18:
                    ed:10:0b:0b:57:c4:1d:e9:47:b7:2c:f8:c7:29:b3:
                    c5:d2:e8:12:01:a1:2f:37:98:ce:5b:29:1b:99:fe:
                    25:80:2c:01:8c:8d:4e:9d:7f:2a:7e:39:52:b8:34:
                    74:d9:e2:7e:b7:5b:aa:63:90:a9:b4:48:ed:6e:82:
                    d5:d4:a6:a1:05:cb:f5:38:4d:2d:0b:e8:d0:d5:c5:
                    63:ba:c9:a5:dc:2d:dc:29:96:01:71:1c:75:81:79:
                    86:6e:1f:cf:52:8e:f7:e9:39
                Exponent: 65537 (0x10001)
        X509v3 extensions:
            X509v3 Basic Constraints: 
                CA:FALSE
            Netscape Comment: 
                OpenSSL Generated Certificate
            X509v3 Subject Key Identifier: 
                1C:8F:D2:87:BF:E7:4F:EF:85:59:84:2B:4A:1E:07:DC:A1:8C:5A:F3
            X509v3 Authority Key Identifier: 
                keyid:F6:7C:E6:FB:14:B7:F6:C1:5E:03:99:12:AA:ED:40:E4:44:12:76:38
                DirName:/C=RU/ST=NA/L=TOGLIATTI/O=INZA-LTD-AIST/CN=server/emailAddress=pavel@kusto.com.ru
                serial:00

    Signature Algorithm: md5WithRSAEncryption
         2e:ec:60:85:0b:b3:f9:10:d8:63:67:40:4d:85:45:3e:46:2e:
         4d:72:56:79:cd:68:e9:76:ef:71:82:20:6c:e0:29:5a:55:9b:
         1d:46:53:29:d8:9c:ac:4a:d9:55:f8:9d:f5:8c:29:be:e4:2e:
         18:94:66:ea:6f:14:92:ed:29:60:d2:30:39:ca:bf:2d:e8:82:
         10:f0:9c:bb:58:c0:a5:9d:d2:ed:ea:71:cd:3e:b8:63:6f:34:
         8d:d1:d3:64:ca:cf:f0:57:21:bd:87:a0:47:25:56:59:81:ac:
         28:07:0e:18:f1:fd:eb:55:0b:4e:9b:0c:d3:15:d5:0e:65:b9:
         4a:2f
-----BEGIN CERTIFICATE-----
MIIDXDCCAsWgAwIBAgICAKIwDQYJKoZIhvcNAQEEBQAwejELMAkGA1UEBhMCUlUx
CzAJBgNVBAgTAk5BMRIwEAYDVQQHEwlUT0dMSUFUVEkxFjAUBgNVBAoTDUlOWkEt
TFRELUFJU1QxDzANBgNVBAMTBnNlcnZlcjEhMB8GCSqGSIb3DQEJARYScGF2ZWxA
a3VzdG8uY29tLnJ1MB4XDTE0MTEwNTEyNTEzMFoXDTI0MTEwMjEyNTEzMFowZzEL
MAkGA1UEBhMCUlUxCzAJBgNVBAgTAk5BMRYwFAYDVQQKEw1JTlpBLUxURC1BSVNU
MRAwDgYDVQQDFAdmX2RpbWFuMSEwHwYJKoZIhvcNAQkBFhJwYXZlbEBrdXN0by5j
b20ucnUwgZ8wDQYJKoZIhvcNAQEBBQADgY0AMIGJAoGBALBYa21ducowB/UjLUmV
Lt04XV3JyvTDhXPS5GQY7RALC1fEHelHtyz4xymzxdLoEgGhLzeYzlspG5n+JYAs
AYyNTp1/Kn45Urg0dNnifrdbqmOQqbRI7W6C1dSmoQXL9ThNLQvo0NXFY7rJpdwt
3CmWAXEcdYF5hm4fz1KO9+k5AgMBAAGjggECMIH/MAkGA1UdEwQCMAAwLAYJYIZI
AYb4QgENBB8WHU9wZW5TU0wgR2VuZXJhdGVkIENlcnRpZmljYXRlMB0GA1UdDgQW
BBQcj9KHv+dP74VZhCtKHgfcoYxa8zCBpAYDVR0jBIGcMIGZgBT2fOb7FLf2wV4D
mRKq7UDkRBJ2OKF+pHwwejELMAkGA1UEBhMCUlUxCzAJBgNVBAgTAk5BMRIwEAYD
VQQHEwlUT0dMSUFUVEkxFjAUBgNVBAoTDUlOWkEtTFRELUFJU1QxDzANBgNVBAMT
BnNlcnZlcjEhMB8GCSqGSIb3DQEJARYScGF2ZWxAa3VzdG8uY29tLnJ1ggEAMA0G
CSqGSIb3DQEBBAUAA4GBAC7sYIULs/kQ2GNnQE2FRT5GLk1yVnnNaOl273GCIGzg
KVpVmx1GUynYnKxK2VX4nfWMKb7kLhiUZupvFJLtKWDSMDnKvy3oghDwnLtYwKWd
0u3qcc0+uGNvNI3R02TKz/BXIb2HoEclVlmBrCgHDhjx/etVC06bDNMV1Q5luUov
-----END CERTIFICATE-----
