Certificate:
    Data:
        Version: 3 (0x2)
        Serial Number: 163 (0xa3)
    Signature Algorithm: md5WithRSAEncryption
        Issuer: C=RU, ST=NA, L=TOGLIATTI, O=INZA-LTD-AIST, CN=server/emailAddress=pavel@kusto.com.ru
        Validity
            Not Before: Dec 17 06:52:33 2014 GMT
            Not After : Dec 14 06:52:33 2024 GMT
        Subject: C=RU, ST=NA, O=INZA-LTD-AIST, CN=p_mira1/emailAddress=pavel@kusto.com.ru
        Subject Public Key Info:
            Public Key Algorithm: rsaEncryption
                Public-Key: (1024 bit)
                Modulus:
                    00:ca:68:7b:8c:2a:16:6d:50:b4:96:75:eb:69:e0:
                    b6:99:7c:e8:f5:c6:2c:6b:c5:58:6a:50:b8:0b:dc:
                    41:a3:fc:c4:de:94:7f:b6:03:fd:14:51:fd:9b:80:
                    d9:7a:99:1b:a7:6a:8c:8c:87:54:b9:99:e0:16:0a:
                    82:92:d0:8c:f1:52:c8:8e:e0:d9:dd:28:0c:1e:20:
                    90:21:e0:d1:96:28:fb:72:42:63:c0:c0:3e:ce:e6:
                    7d:8b:87:2f:37:b7:d1:68:b7:bc:54:a1:60:ec:f7:
                    05:eb:81:1b:b8:bf:e2:d7:8e:aa:5c:2d:1d:e3:c1:
                    7e:d8:5a:db:06:e1:06:ca:0f
                Exponent: 65537 (0x10001)
        X509v3 extensions:
            X509v3 Basic Constraints: 
                CA:FALSE
            Netscape Comment: 
                OpenSSL Generated Certificate
            X509v3 Subject Key Identifier: 
                38:1E:A8:D6:04:78:6B:90:48:BE:00:4D:E6:BB:E3:B4:51:B2:53:53
            X509v3 Authority Key Identifier: 
                keyid:F6:7C:E6:FB:14:B7:F6:C1:5E:03:99:12:AA:ED:40:E4:44:12:76:38
                DirName:/C=RU/ST=NA/L=TOGLIATTI/O=INZA-LTD-AIST/CN=server/emailAddress=pavel@kusto.com.ru
                serial:00

    Signature Algorithm: md5WithRSAEncryption
         a2:90:75:0c:b3:7f:d4:8c:e8:f0:6a:43:18:7e:78:9c:f2:c8:
         7e:77:42:9e:a5:a3:9d:2f:29:3b:94:a0:22:b7:f7:8d:19:70:
         92:15:66:a8:d7:0d:c6:b8:15:ae:cb:58:da:1f:b1:d0:50:e0:
         ec:03:89:dd:07:dc:80:27:ea:6a:31:8c:a9:73:a3:ca:44:4a:
         0c:f6:86:83:62:f8:5a:65:a1:ff:3a:d7:48:4a:e8:20:b0:83:
         16:82:a6:2d:67:58:90:5d:48:cf:be:7c:5e:b3:6c:72:e4:61:
         ca:e9:4a:1c:ae:5e:30:17:64:95:1a:f2:be:36:93:9f:f7:91:
         d9:2d
-----BEGIN CERTIFICATE-----
MIIDXDCCAsWgAwIBAgICAKMwDQYJKoZIhvcNAQEEBQAwejELMAkGA1UEBhMCUlUx
CzAJBgNVBAgTAk5BMRIwEAYDVQQHEwlUT0dMSUFUVEkxFjAUBgNVBAoTDUlOWkEt
TFRELUFJU1QxDzANBgNVBAMTBnNlcnZlcjEhMB8GCSqGSIb3DQEJARYScGF2ZWxA
a3VzdG8uY29tLnJ1MB4XDTE0MTIxNzA2NTIzM1oXDTI0MTIxNDA2NTIzM1owZzEL
MAkGA1UEBhMCUlUxCzAJBgNVBAgTAk5BMRYwFAYDVQQKEw1JTlpBLUxURC1BSVNU
MRAwDgYDVQQDFAdwX21pcmExMSEwHwYJKoZIhvcNAQkBFhJwYXZlbEBrdXN0by5j
b20ucnUwgZ8wDQYJKoZIhvcNAQEBBQADgY0AMIGJAoGBAMpoe4wqFm1QtJZ162ng
tpl86PXGLGvFWGpQuAvcQaP8xN6Uf7YD/RRR/ZuA2XqZG6dqjIyHVLmZ4BYKgpLQ
jPFSyI7g2d0oDB4gkCHg0ZYo+3JCY8DAPs7mfYuHLze30Wi3vFShYOz3BeuBG7i/
4teOqlwtHePBftha2wbhBsoPAgMBAAGjggECMIH/MAkGA1UdEwQCMAAwLAYJYIZI
AYb4QgENBB8WHU9wZW5TU0wgR2VuZXJhdGVkIENlcnRpZmljYXRlMB0GA1UdDgQW
BBQ4HqjWBHhrkEi+AE3mu+O0UbJTUzCBpAYDVR0jBIGcMIGZgBT2fOb7FLf2wV4D
mRKq7UDkRBJ2OKF+pHwwejELMAkGA1UEBhMCUlUxCzAJBgNVBAgTAk5BMRIwEAYD
VQQHEwlUT0dMSUFUVEkxFjAUBgNVBAoTDUlOWkEtTFRELUFJU1QxDzANBgNVBAMT
BnNlcnZlcjEhMB8GCSqGSIb3DQEJARYScGF2ZWxAa3VzdG8uY29tLnJ1ggEAMA0G
CSqGSIb3DQEBBAUAA4GBAKKQdQyzf9SM6PBqQxh+eJzyyH53Qp6lo50vKTuUoCK3
940ZcJIVZqjXDca4Fa7LWNofsdBQ4OwDid0H3IAn6moxjKlzo8pESgz2hoNi+Fpl
of8610hK6CCwgxaCpi1nWJBdSM++fF6zbHLkYcrpShyuXjAXZJUa8r42k5/3kdkt
-----END CERTIFICATE-----
