Certificate:
    Data:
        Version: 3 (0x2)
        Serial Number: 166 (0xa6)
    Signature Algorithm: md5WithRSAEncryption
        Issuer: C=RU, ST=NA, L=TOGLIATTI, O=INZA-LTD-AIST, CN=server/emailAddress=pavel@kusto.com.ru
        Validity
            Not Before: Jan 15 06:29:50 2015 GMT
            Not After : Jan 12 06:29:50 2025 GMT
        Subject: C=RU, ST=NA, O=INZA-LTD-AIST, CN=p15_5/emailAddress=pavel@kusto.com.ru
        Subject Public Key Info:
            Public Key Algorithm: rsaEncryption
                Public-Key: (1024 bit)
                Modulus:
                    00:ed:18:47:87:c5:a4:ef:1e:f7:ac:06:03:0f:2b:
                    f8:45:b9:99:38:04:f9:16:95:b1:d8:f8:79:96:6f:
                    82:4a:a0:73:37:a4:2a:d9:8c:8a:b0:40:c6:73:17:
                    f5:b9:a7:41:80:b1:d4:79:8a:55:d3:1e:5c:e2:c0:
                    1b:93:ae:31:29:e9:51:f6:f5:db:19:50:2c:75:bb:
                    7c:7e:a9:74:35:41:e4:78:c0:4c:1d:ac:ec:7b:09:
                    3e:77:9a:07:2c:2e:bf:4e:c6:ff:15:d5:3b:43:ba:
                    43:15:a8:b7:af:ff:de:34:de:a7:f6:95:95:e9:46:
                    3a:40:de:89:f6:12:9d:29:65
                Exponent: 65537 (0x10001)
        X509v3 extensions:
            X509v3 Basic Constraints: 
                CA:FALSE
            Netscape Comment: 
                OpenSSL Generated Certificate
            X509v3 Subject Key Identifier: 
                D7:0B:2D:54:26:74:9D:17:3E:DC:8D:23:FE:79:0E:99:64:FD:A7:C7
            X509v3 Authority Key Identifier: 
                keyid:F6:7C:E6:FB:14:B7:F6:C1:5E:03:99:12:AA:ED:40:E4:44:12:76:38
                DirName:/C=RU/ST=NA/L=TOGLIATTI/O=INZA-LTD-AIST/CN=server/emailAddress=pavel@kusto.com.ru
                serial:00

    Signature Algorithm: md5WithRSAEncryption
         85:fb:61:93:3d:db:3d:11:da:c2:63:3a:49:86:12:85:35:7f:
         a8:78:a5:de:02:33:1f:e2:36:f5:9c:85:55:e7:eb:64:b0:2b:
         a5:bb:1d:fd:26:91:95:5a:61:0b:4f:7b:08:d2:59:e7:e3:df:
         6e:d0:58:04:e5:dc:d1:ce:ec:88:35:d6:d9:b8:1f:6b:f2:e7:
         9f:f0:92:6d:ef:69:e5:95:fd:3d:b1:1a:e1:7e:b2:b9:7a:6d:
         ab:be:85:e1:1f:9c:f5:14:dd:24:d6:4b:0e:f0:ea:12:ce:d5:
         3f:93:89:ac:cc:82:08:fe:75:c1:27:c7:e4:c9:31:31:fb:55:
         7d:28
-----BEGIN CERTIFICATE-----
MIIDWjCCAsOgAwIBAgICAKYwDQYJKoZIhvcNAQEEBQAwejELMAkGA1UEBhMCUlUx
CzAJBgNVBAgTAk5BMRIwEAYDVQQHEwlUT0dMSUFUVEkxFjAUBgNVBAoTDUlOWkEt
TFRELUFJU1QxDzANBgNVBAMTBnNlcnZlcjEhMB8GCSqGSIb3DQEJARYScGF2ZWxA
a3VzdG8uY29tLnJ1MB4XDTE1MDExNTA2Mjk1MFoXDTI1MDExMjA2Mjk1MFowZTEL
MAkGA1UEBhMCUlUxCzAJBgNVBAgTAk5BMRYwFAYDVQQKEw1JTlpBLUxURC1BSVNU
MQ4wDAYDVQQDFAVwMTVfNTEhMB8GCSqGSIb3DQEJARYScGF2ZWxAa3VzdG8uY29t
LnJ1MIGfMA0GCSqGSIb3DQEBAQUAA4GNADCBiQKBgQDtGEeHxaTvHvesBgMPK/hF
uZk4BPkWlbHY+HmWb4JKoHM3pCrZjIqwQMZzF/W5p0GAsdR5ilXTHlziwBuTrjEp
6VH29dsZUCx1u3x+qXQ1QeR4wEwdrOx7CT53mgcsLr9Oxv8V1TtDukMVqLev/940
3qf2lZXpRjpA3on2Ep0pZQIDAQABo4IBAjCB/zAJBgNVHRMEAjAAMCwGCWCGSAGG
+EIBDQQfFh1PcGVuU1NMIEdlbmVyYXRlZCBDZXJ0aWZpY2F0ZTAdBgNVHQ4EFgQU
1wstVCZ0nRc+3I0j/nkOmWT9p8cwgaQGA1UdIwSBnDCBmYAU9nzm+xS39sFeA5kS
qu1A5EQSdjihfqR8MHoxCzAJBgNVBAYTAlJVMQswCQYDVQQIEwJOQTESMBAGA1UE
BxMJVE9HTElBVFRJMRYwFAYDVQQKEw1JTlpBLUxURC1BSVNUMQ8wDQYDVQQDEwZz
ZXJ2ZXIxITAfBgkqhkiG9w0BCQEWEnBhdmVsQGt1c3RvLmNvbS5ydYIBADANBgkq
hkiG9w0BAQQFAAOBgQCF+2GTPds9EdrCYzpJhhKFNX+oeKXeAjMf4jb1nIVV5+tk
sCulux39JpGVWmELT3sI0lnn499u0FgE5dzRzuyINdbZuB9r8uef8JJt72nllf09
sRrhfrK5em2rvoXhH5z1FN0k1ksO8OoSztU/k4mszIII/nXBJ8fkyTEx+1V9KA==
-----END CERTIFICATE-----
