Certificate:
    Data:
        Version: 3 (0x2)
        Serial Number: 170 (0xaa)
    Signature Algorithm: md5WithRSAEncryption
        Issuer: C=RU, ST=NA, L=TOGLIATTI, O=INZA-LTD-AIST, CN=server/emailAddress=pavel@kusto.com.ru
        Validity
            Not Before: Mar 12 11:42:30 2015 GMT
            Not After : Mar  9 11:42:30 2025 GMT
        Subject: C=RU, ST=NA, O=INZA-LTD-AIST, CN=sklad_neo/emailAddress=pavel@kusto.com.ru
        Subject Public Key Info:
            Public Key Algorithm: rsaEncryption
                Public-Key: (1024 bit)
                Modulus:
                    00:a3:94:e1:02:e6:37:0a:a7:56:10:5e:27:43:56:
                    e4:36:40:eb:ec:98:b0:fa:1b:54:28:30:67:3d:f7:
                    9c:62:85:ab:67:d5:8d:eb:bd:4e:07:1b:da:d1:d5:
                    f0:58:85:1e:5f:21:a3:fa:26:f5:76:db:06:66:4f:
                    7e:f6:88:f0:fa:b0:64:cd:e8:d4:69:2d:55:b2:3c:
                    cb:97:9e:05:f0:5b:64:68:dd:3c:e5:b0:0e:59:1c:
                    be:49:5a:72:62:19:7c:05:03:da:86:37:6f:b4:24:
                    8a:fd:35:33:85:eb:9e:01:cc:0d:74:c5:7b:42:5b:
                    c1:e7:f2:ce:f9:58:ff:bc:a1
                Exponent: 65537 (0x10001)
        X509v3 extensions:
            X509v3 Basic Constraints: 
                CA:FALSE
            Netscape Comment: 
                OpenSSL Generated Certificate
            X509v3 Subject Key Identifier: 
                89:A8:7F:8F:F1:8D:F7:A7:AB:1D:AD:04:70:EC:FC:28:F7:D8:BA:07
            X509v3 Authority Key Identifier: 
                keyid:F6:7C:E6:FB:14:B7:F6:C1:5E:03:99:12:AA:ED:40:E4:44:12:76:38
                DirName:/C=RU/ST=NA/L=TOGLIATTI/O=INZA-LTD-AIST/CN=server/emailAddress=pavel@kusto.com.ru
                serial:00

    Signature Algorithm: md5WithRSAEncryption
         9a:6f:8e:69:29:9f:b6:22:de:58:a1:0c:b9:78:da:9e:c6:d6:
         43:aa:f2:ea:16:0f:34:9c:40:a6:12:27:45:93:47:3c:ba:75:
         af:37:87:bc:1f:4d:26:b5:f1:1e:9e:b4:2c:9d:bd:67:34:c5:
         3b:08:a3:5d:83:0e:58:00:ab:ff:9e:37:a7:ce:ab:11:31:51:
         78:58:d3:80:5f:3d:c5:1f:08:16:01:b3:d0:14:4b:8d:f0:36:
         06:5f:88:f4:18:4c:cb:5d:87:38:ac:92:01:c7:88:2e:3d:bd:
         c2:c3:5f:ce:c4:78:7c:cf:34:9f:fe:e3:58:a1:c9:c8:71:e7:
         72:e3
-----BEGIN CERTIFICATE-----
MIIDXjCCAsegAwIBAgICAKowDQYJKoZIhvcNAQEEBQAwejELMAkGA1UEBhMCUlUx
CzAJBgNVBAgTAk5BMRIwEAYDVQQHEwlUT0dMSUFUVEkxFjAUBgNVBAoTDUlOWkEt
TFRELUFJU1QxDzANBgNVBAMTBnNlcnZlcjEhMB8GCSqGSIb3DQEJARYScGF2ZWxA
a3VzdG8uY29tLnJ1MB4XDTE1MDMxMjExNDIzMFoXDTI1MDMwOTExNDIzMFowaTEL
MAkGA1UEBhMCUlUxCzAJBgNVBAgTAk5BMRYwFAYDVQQKEw1JTlpBLUxURC1BSVNU
MRIwEAYDVQQDFAlza2xhZF9uZW8xITAfBgkqhkiG9w0BCQEWEnBhdmVsQGt1c3Rv
LmNvbS5ydTCBnzANBgkqhkiG9w0BAQEFAAOBjQAwgYkCgYEAo5ThAuY3CqdWEF4n
Q1bkNkDr7Jiw+htUKDBnPfecYoWrZ9WN671OBxva0dXwWIUeXyGj+ib1dtsGZk9+
9ojw+rBkzejUaS1VsjzLl54F8FtkaN085bAOWRy+SVpyYhl8BQPahjdvtCSK/TUz
heueAcwNdMV7QlvB5/LO+Vj/vKECAwEAAaOCAQIwgf8wCQYDVR0TBAIwADAsBglg
hkgBhvhCAQ0EHxYdT3BlblNTTCBHZW5lcmF0ZWQgQ2VydGlmaWNhdGUwHQYDVR0O
BBYEFImof4/xjfenqx2tBHDs/Cj32LoHMIGkBgNVHSMEgZwwgZmAFPZ85vsUt/bB
XgOZEqrtQOREEnY4oX6kfDB6MQswCQYDVQQGEwJSVTELMAkGA1UECBMCTkExEjAQ
BgNVBAcTCVRPR0xJQVRUSTEWMBQGA1UEChMNSU5aQS1MVEQtQUlTVDEPMA0GA1UE
AxMGc2VydmVyMSEwHwYJKoZIhvcNAQkBFhJwYXZlbEBrdXN0by5jb20ucnWCAQAw
DQYJKoZIhvcNAQEEBQADgYEAmm+OaSmftiLeWKEMuXjansbWQ6ry6hYPNJxAphIn
RZNHPLp1rzeHvB9NJrXxHp60LJ29ZzTFOwijXYMOWACr/543p86rETFReFjTgF89
xR8IFgGz0BRLjfA2Bl+I9BhMy12HOKySAceILj29wsNfzsR4fM80n/7jWKHJyHHn
cuM=
-----END CERTIFICATE-----
