Certificate:
    Data:
        Version: 3 (0x2)
        Serial Number: 122 (0x7a)
        Signature Algorithm: md5WithRSAEncryption
        Issuer: C=RU, ST=NA, L=TOGLIATTI, O=INZA-LTD-AIST, CN=server/emailAddress=pavel@kusto.com.ru
        Validity
            Not Before: Sep 25 05:50:26 2012 GMT
            Not After : Sep 23 05:50:26 2022 GMT
        Subject: C=RU, ST=NA, O=INZA-LTD-AIST, CN=p15_4/emailAddress=pavel@kusto.com.ru
        Subject Public Key Info:
            Public Key Algorithm: rsaEncryption
            RSA Public Key: (1024 bit)
                Modulus (1024 bit):
                    00:cb:cf:19:7d:b2:a4:56:9c:dd:ce:a7:02:ef:40:
                    46:e1:e3:c8:8d:8f:33:7f:4a:8e:af:33:f1:63:e8:
                    82:50:ab:7a:90:a5:5e:28:0b:3c:73:19:e5:71:72:
                    42:15:c2:37:47:a6:a4:ad:a0:b9:d1:44:e3:ff:93:
                    23:57:cc:94:d7:b6:2a:60:44:8b:53:25:67:12:63:
                    13:02:3e:1b:b9:c0:dc:a3:c2:45:36:68:46:c7:92:
                    ed:66:39:8d:08:c6:12:9f:2e:b6:2a:e3:76:86:53:
                    8a:32:68:91:c0:6f:c9:5c:68:91:48:1e:76:c6:9f:
                    06:40:4a:b2:b2:c4:52:97:4b
                Exponent: 65537 (0x10001)
        X509v3 extensions:
            X509v3 Basic Constraints: 
                CA:FALSE
            Netscape Comment: 
                OpenSSL Generated Certificate
            X509v3 Subject Key Identifier: 
                A7:D0:C9:58:9E:79:28:FD:A5:0F:37:0F:B9:E6:E5:2A:D0:4A:13:26
            X509v3 Authority Key Identifier: 
                keyid:F6:7C:E6:FB:14:B7:F6:C1:5E:03:99:12:AA:ED:40:E4:44:12:76:38
                DirName:/C=RU/ST=NA/L=TOGLIATTI/O=INZA-LTD-AIST/CN=server/emailAddress=pavel@kusto.com.ru
                serial:00

    Signature Algorithm: md5WithRSAEncryption
        5f:30:cd:48:2e:df:00:54:6f:a3:a2:9b:a0:2f:26:13:a9:27:
        e7:86:ab:96:4d:e3:30:b7:49:dc:57:77:e4:86:fc:85:e7:83:
        67:04:64:a3:a4:c4:a6:e4:d0:46:29:1b:0e:a3:4b:0f:7e:fa:
        37:c7:a1:cb:af:5c:58:42:9c:6e:a9:f9:0f:68:16:46:29:05:
        47:2a:28:88:0c:51:bf:fb:e9:52:70:ed:86:fd:aa:74:b4:01:
        9b:9a:81:00:e8:bf:5f:29:b0:fc:ca:22:ba:39:a0:48:06:f8:
        14:54:8b:e4:c3:58:d3:66:2c:0a:82:2e:a2:e1:25:23:87:98:
        9a:06
-----BEGIN CERTIFICATE-----
MIIDWTCCAsKgAwIBAgIBejANBgkqhkiG9w0BAQQFADB6MQswCQYDVQQGEwJSVTEL
MAkGA1UECBMCTkExEjAQBgNVBAcTCVRPR0xJQVRUSTEWMBQGA1UEChMNSU5aQS1M
VEQtQUlTVDEPMA0GA1UEAxMGc2VydmVyMSEwHwYJKoZIhvcNAQkBFhJwYXZlbEBr
dXN0by5jb20ucnUwHhcNMTIwOTI1MDU1MDI2WhcNMjIwOTIzMDU1MDI2WjBlMQsw
CQYDVQQGEwJSVTELMAkGA1UECBMCTkExFjAUBgNVBAoTDUlOWkEtTFRELUFJU1Qx
DjAMBgNVBAMUBXAxNV80MSEwHwYJKoZIhvcNAQkBFhJwYXZlbEBrdXN0by5jb20u
cnUwgZ8wDQYJKoZIhvcNAQEBBQADgY0AMIGJAoGBAMvPGX2ypFac3c6nAu9ARuHj
yI2PM39Kjq8z8WPoglCrepClXigLPHMZ5XFyQhXCN0empK2gudFE4/+TI1fMlNe2
KmBEi1MlZxJjEwI+G7nA3KPCRTZoRseS7WY5jQjGEp8utirjdoZTijJokcBvyVxo
kUgedsafBkBKsrLEUpdLAgMBAAGjggECMIH/MAkGA1UdEwQCMAAwLAYJYIZIAYb4
QgENBB8WHU9wZW5TU0wgR2VuZXJhdGVkIENlcnRpZmljYXRlMB0GA1UdDgQWBBSn
0MlYnnko/aUPNw+55uUq0EoTJjCBpAYDVR0jBIGcMIGZgBT2fOb7FLf2wV4DmRKq
7UDkRBJ2OKF+pHwwejELMAkGA1UEBhMCUlUxCzAJBgNVBAgTAk5BMRIwEAYDVQQH
EwlUT0dMSUFUVEkxFjAUBgNVBAoTDUlOWkEtTFRELUFJU1QxDzANBgNVBAMTBnNl
cnZlcjEhMB8GCSqGSIb3DQEJARYScGF2ZWxAa3VzdG8uY29tLnJ1ggEAMA0GCSqG
SIb3DQEBBAUAA4GBAF8wzUgu3wBUb6Oim6AvJhOpJ+eGq5ZN4zC3SdxXd+SG/IXn
g2cEZKOkxKbk0EYpGw6jSw9++jfHocuvXFhCnG6p+Q9oFkYpBUcqKIgMUb/76VJw
7Yb9qnS0AZuagQDov18psPzKIro5oEgG+BRUi+TDWNNmLAqCLqLhJSOHmJoG
-----END CERTIFICATE-----
