Certificate:
    Data:
        Version: 3 (0x2)
        Serial Number: 114 (0x72)
        Signature Algorithm: md5WithRSAEncryption
        Issuer: C=RU, ST=NA, L=TOGLIATTI, O=INZA-LTD-AIST, CN=server/emailAddress=pavel@kusto.com.ru
        Validity
            Not Before: Aug 15 08:17:19 2012 GMT
            Not After : Aug 13 08:17:19 2022 GMT
        Subject: C=RU, ST=NA, O=INZA-LTD-AIST, CN=p8_2/emailAddress=pavel@kusto.com.ru
        Subject Public Key Info:
            Public Key Algorithm: rsaEncryption
            RSA Public Key: (1024 bit)
                Modulus (1024 bit):
                    00:e5:38:8b:ec:a3:5d:2c:ce:e9:7e:2b:df:bb:17:
                    39:ba:40:9d:a4:ea:dd:d2:be:28:45:6f:7b:c2:e7:
                    81:a1:17:84:e4:b2:60:f4:e5:54:55:7a:09:95:13:
                    d9:f8:a0:7a:67:60:c6:de:15:5d:a6:e2:b8:88:f5:
                    73:d4:52:d1:6b:68:83:e0:30:f3:ae:f9:b0:cf:6a:
                    ec:38:d0:64:a8:f6:2c:58:da:b6:c5:12:fa:47:72:
                    a2:c1:6e:cf:c9:20:60:6c:e1:56:82:93:21:24:ac:
                    5c:73:e1:64:2d:c1:6b:40:79:ab:31:a9:cb:68:3a:
                    9f:1c:43:24:3d:c4:73:6b:b7
                Exponent: 65537 (0x10001)
        X509v3 extensions:
            X509v3 Basic Constraints: 
                CA:FALSE
            Netscape Comment: 
                OpenSSL Generated Certificate
            X509v3 Subject Key Identifier: 
                39:71:55:63:8A:76:14:33:1A:D7:76:5F:C7:DD:B8:94:B2:57:FF:6D
            X509v3 Authority Key Identifier: 
                keyid:F6:7C:E6:FB:14:B7:F6:C1:5E:03:99:12:AA:ED:40:E4:44:12:76:38
                DirName:/C=RU/ST=NA/L=TOGLIATTI/O=INZA-LTD-AIST/CN=server/emailAddress=pavel@kusto.com.ru
                serial:00

    Signature Algorithm: md5WithRSAEncryption
        36:17:c1:23:a0:d8:a0:db:da:3e:3c:95:3b:bb:e9:a8:88:d3:
        21:fe:f5:42:bc:91:f2:01:4d:42:ba:3d:06:a8:ab:b6:cd:6a:
        6c:59:ef:5f:1b:c2:39:95:65:14:10:3e:70:c5:6b:28:5b:af:
        c1:5f:06:90:f6:8d:a6:33:87:5c:fc:11:93:ef:07:1d:15:55:
        65:53:b6:81:df:d4:cd:a7:67:97:b0:10:d6:76:7a:53:d4:ae:
        0d:00:78:47:53:97:a5:5b:df:70:78:3a:00:a2:8a:5a:30:35:
        33:af:34:ba:9f:fb:75:d1:ff:63:d5:a6:14:6c:a5:e1:c9:46:
        5e:a6
-----BEGIN CERTIFICATE-----
MIIDWDCCAsGgAwIBAgIBcjANBgkqhkiG9w0BAQQFADB6MQswCQYDVQQGEwJSVTEL
MAkGA1UECBMCTkExEjAQBgNVBAcTCVRPR0xJQVRUSTEWMBQGA1UEChMNSU5aQS1M
VEQtQUlTVDEPMA0GA1UEAxMGc2VydmVyMSEwHwYJKoZIhvcNAQkBFhJwYXZlbEBr
dXN0by5jb20ucnUwHhcNMTIwODE1MDgxNzE5WhcNMjIwODEzMDgxNzE5WjBkMQsw
CQYDVQQGEwJSVTELMAkGA1UECBMCTkExFjAUBgNVBAoTDUlOWkEtTFRELUFJU1Qx
DTALBgNVBAMUBHA4XzIxITAfBgkqhkiG9w0BCQEWEnBhdmVsQGt1c3RvLmNvbS5y
dTCBnzANBgkqhkiG9w0BAQEFAAOBjQAwgYkCgYEA5TiL7KNdLM7pfivfuxc5ukCd
pOrd0r4oRW97wueBoReE5LJg9OVUVXoJlRPZ+KB6Z2DG3hVdpuK4iPVz1FLRa2iD
4DDzrvmwz2rsONBkqPYsWNq2xRL6R3KiwW7PySBgbOFWgpMhJKxcc+FkLcFrQHmr
ManLaDqfHEMkPcRza7cCAwEAAaOCAQIwgf8wCQYDVR0TBAIwADAsBglghkgBhvhC
AQ0EHxYdT3BlblNTTCBHZW5lcmF0ZWQgQ2VydGlmaWNhdGUwHQYDVR0OBBYEFDlx
VWOKdhQzGtd2X8fduJSyV/9tMIGkBgNVHSMEgZwwgZmAFPZ85vsUt/bBXgOZEqrt
QOREEnY4oX6kfDB6MQswCQYDVQQGEwJSVTELMAkGA1UECBMCTkExEjAQBgNVBAcT
CVRPR0xJQVRUSTEWMBQGA1UEChMNSU5aQS1MVEQtQUlTVDEPMA0GA1UEAxMGc2Vy
dmVyMSEwHwYJKoZIhvcNAQkBFhJwYXZlbEBrdXN0by5jb20ucnWCAQAwDQYJKoZI
hvcNAQEEBQADgYEANhfBI6DYoNvaPjyVO7vpqIjTIf71QryR8gFNQro9Bqirts1q
bFnvXxvCOZVlFBA+cMVrKFuvwV8GkPaNpjOHXPwRk+8HHRVVZVO2gd/Uzadnl7AQ
1nZ6U9SuDQB4R1OXpVvfcHg6AKKKWjA1M680up/7ddH/Y9WmFGyl4clGXqY=
-----END CERTIFICATE-----
