Certificate:
    Data:
        Version: 3 (0x2)
        Serial Number: 128 (0x80)
        Signature Algorithm: md5WithRSAEncryption
        Issuer: C=RU, ST=NA, L=TOGLIATTI, O=INZA-LTD-AIST, CN=server/emailAddress=pavel@kusto.com.ru
        Validity
            Not Before: Oct  8 08:12:27 2012 GMT
            Not After : Oct  6 08:12:27 2022 GMT
        Subject: C=RU, ST=NA, O=INZA-LTD-AIST, CN=p_31/emailAddress=pavel@kusto.com.ru
        Subject Public Key Info:
            Public Key Algorithm: rsaEncryption
            RSA Public Key: (1024 bit)
                Modulus (1024 bit):
                    00:b6:c8:3b:bd:cd:63:00:fa:92:58:42:d9:32:74:
                    1e:6f:b9:2f:20:30:76:27:65:b5:3e:ca:4b:04:73:
                    19:4a:96:f3:34:c1:14:42:9e:2f:20:00:65:ba:dc:
                    0b:fd:f1:e3:58:a4:a1:ab:ea:ef:d5:a8:af:3b:84:
                    1c:81:bf:b2:c9:e6:b4:3f:c7:04:5b:28:8d:81:d5:
                    38:0c:1c:e9:6e:a4:36:78:33:9c:f9:48:28:16:17:
                    e5:95:a6:06:08:8f:a0:14:f1:b9:c6:ed:db:d9:5d:
                    a6:f1:51:9b:b3:3c:e9:2c:37:a0:d7:ec:06:17:18:
                    1d:ca:d6:19:bd:37:17:93:9f
                Exponent: 65537 (0x10001)
        X509v3 extensions:
            X509v3 Basic Constraints: 
                CA:FALSE
            Netscape Comment: 
                OpenSSL Generated Certificate
            X509v3 Subject Key Identifier: 
                F5:02:D6:A4:DA:F3:45:4C:FF:08:64:0B:AD:C2:9E:53:23:B6:C4:E4
            X509v3 Authority Key Identifier: 
                keyid:F6:7C:E6:FB:14:B7:F6:C1:5E:03:99:12:AA:ED:40:E4:44:12:76:38
                DirName:/C=RU/ST=NA/L=TOGLIATTI/O=INZA-LTD-AIST/CN=server/emailAddress=pavel@kusto.com.ru
                serial:00

    Signature Algorithm: md5WithRSAEncryption
        d4:35:0a:0e:9c:49:35:0b:7a:f1:23:0b:8c:ef:a8:f9:e9:b3:
        46:03:6f:b2:24:57:d6:c8:6a:85:28:90:a5:87:45:12:f6:6f:
        01:f9:ad:dd:82:66:90:5a:2e:5f:cc:7f:3b:83:81:83:2e:c7:
        d0:c8:97:e7:3c:02:da:35:55:af:14:5d:d6:29:1d:ec:91:dc:
        c9:38:8d:36:96:d6:d1:75:11:d3:dd:8e:a5:a7:48:eb:94:a0:
        a2:00:40:b8:a5:42:80:76:e0:11:9e:a7:10:32:5b:83:9b:82:
        5a:10:82:48:64:2a:0e:8d:6b:d0:52:ab:9f:92:54:ff:10:4a:
        49:16
-----BEGIN CERTIFICATE-----
MIIDWTCCAsKgAwIBAgICAIAwDQYJKoZIhvcNAQEEBQAwejELMAkGA1UEBhMCUlUx
CzAJBgNVBAgTAk5BMRIwEAYDVQQHEwlUT0dMSUFUVEkxFjAUBgNVBAoTDUlOWkEt
TFRELUFJU1QxDzANBgNVBAMTBnNlcnZlcjEhMB8GCSqGSIb3DQEJARYScGF2ZWxA
a3VzdG8uY29tLnJ1MB4XDTEyMTAwODA4MTIyN1oXDTIyMTAwNjA4MTIyN1owZDEL
MAkGA1UEBhMCUlUxCzAJBgNVBAgTAk5BMRYwFAYDVQQKEw1JTlpBLUxURC1BSVNU
MQ0wCwYDVQQDFARwXzMxMSEwHwYJKoZIhvcNAQkBFhJwYXZlbEBrdXN0by5jb20u
cnUwgZ8wDQYJKoZIhvcNAQEBBQADgY0AMIGJAoGBALbIO73NYwD6klhC2TJ0Hm+5
LyAwdidltT7KSwRzGUqW8zTBFEKeLyAAZbrcC/3x41ikoavq79WorzuEHIG/ssnm
tD/HBFsojYHVOAwc6W6kNngznPlIKBYX5ZWmBgiPoBTxucbt29ldpvFRm7M86Sw3
oNfsBhcYHcrWGb03F5OfAgMBAAGjggECMIH/MAkGA1UdEwQCMAAwLAYJYIZIAYb4
QgENBB8WHU9wZW5TU0wgR2VuZXJhdGVkIENlcnRpZmljYXRlMB0GA1UdDgQWBBT1
Atak2vNFTP8IZAutwp5TI7bE5DCBpAYDVR0jBIGcMIGZgBT2fOb7FLf2wV4DmRKq
7UDkRBJ2OKF+pHwwejELMAkGA1UEBhMCUlUxCzAJBgNVBAgTAk5BMRIwEAYDVQQH
EwlUT0dMSUFUVEkxFjAUBgNVBAoTDUlOWkEtTFRELUFJU1QxDzANBgNVBAMTBnNl
cnZlcjEhMB8GCSqGSIb3DQEJARYScGF2ZWxAa3VzdG8uY29tLnJ1ggEAMA0GCSqG
SIb3DQEBBAUAA4GBANQ1Cg6cSTULevEjC4zvqPnps0YDb7IkV9bIaoUokKWHRRL2
bwH5rd2CZpBaLl/MfzuDgYMux9DIl+c8Ato1Va8UXdYpHeyR3Mk4jTaW1tF1EdPd
jqWnSOuUoKIAQLilQoB24BGepxAyW4ObgloQgkhkKg6Na9BSq5+SVP8QSkkW
-----END CERTIFICATE-----
