Certificate:
    Data:
        Version: 3 (0x2)
        Serial Number: 159 (0x9f)
    Signature Algorithm: md5WithRSAEncryption
        Issuer: C=RU, ST=NA, L=TOGLIATTI, O=INZA-LTD-AIST, CN=server/emailAddress=pavel@kusto.com.ru
        Validity
            Not Before: Oct 17 12:00:55 2014 GMT
            Not After : Oct 14 12:00:55 2024 GMT
        Subject: C=RU, ST=NA, O=INZA-LTD-AIST, CN=p_borkovka2/emailAddress=pavel@kusto.com.ru
        Subject Public Key Info:
            Public Key Algorithm: rsaEncryption
                Public-Key: (1024 bit)
                Modulus:
                    00:d5:0c:f9:c9:dc:ed:29:c8:51:58:66:3d:18:da:
                    18:40:c0:ea:ec:3a:c6:5a:56:6a:4a:67:43:1d:9c:
                    a0:f6:2f:4f:77:dd:e5:e2:7c:89:99:35:0f:45:ad:
                    33:d6:87:2e:20:89:81:3a:f3:69:90:a6:95:5b:94:
                    a6:0a:89:5f:01:cf:a6:7d:13:28:0f:4e:f0:63:d2:
                    73:d5:34:35:60:0f:a6:d4:58:15:8b:24:ab:8b:b9:
                    31:3b:b0:cf:70:db:a0:31:77:f0:12:0f:24:56:1b:
                    4d:de:ac:ce:d1:be:21:7d:ae:07:b6:e2:04:a4:c9:
                    b2:05:28:f8:bf:af:cb:0f:4b
                Exponent: 65537 (0x10001)
        X509v3 extensions:
            X509v3 Basic Constraints: 
                CA:FALSE
            Netscape Comment: 
                OpenSSL Generated Certificate
            X509v3 Subject Key Identifier: 
                EB:9E:77:58:EE:2B:BE:85:49:D5:B8:4B:29:18:D3:88:EB:A0:AE:2E
            X509v3 Authority Key Identifier: 
                keyid:F6:7C:E6:FB:14:B7:F6:C1:5E:03:99:12:AA:ED:40:E4:44:12:76:38
                DirName:/C=RU/ST=NA/L=TOGLIATTI/O=INZA-LTD-AIST/CN=server/emailAddress=pavel@kusto.com.ru
                serial:00

    Signature Algorithm: md5WithRSAEncryption
         32:85:cd:d4:db:40:78:72:b4:78:0c:1f:b6:e4:c6:3e:88:93:
         a1:2b:99:1c:36:83:ee:0b:02:b9:be:88:b9:d2:ce:f1:e4:57:
         83:b0:9b:2b:f6:8c:ca:a9:3b:cd:42:de:6d:da:23:f8:5b:57:
         46:72:b4:a6:bc:d6:3b:2f:f1:97:2b:dd:f2:35:29:33:35:0b:
         9a:6a:61:ee:71:1b:2b:03:dd:a0:29:62:04:0a:27:cd:9d:5f:
         51:90:ec:01:2e:d2:e5:b8:43:b5:1c:e8:89:01:0b:c5:5b:8c:
         7a:d4:ce:a7:11:cf:a7:e4:98:c9:7b:59:0c:00:db:23:5d:90:
         7d:9f
-----BEGIN CERTIFICATE-----
MIIDYDCCAsmgAwIBAgICAJ8wDQYJKoZIhvcNAQEEBQAwejELMAkGA1UEBhMCUlUx
CzAJBgNVBAgTAk5BMRIwEAYDVQQHEwlUT0dMSUFUVEkxFjAUBgNVBAoTDUlOWkEt
TFRELUFJU1QxDzANBgNVBAMTBnNlcnZlcjEhMB8GCSqGSIb3DQEJARYScGF2ZWxA
a3VzdG8uY29tLnJ1MB4XDTE0MTAxNzEyMDA1NVoXDTI0MTAxNDEyMDA1NVowazEL
MAkGA1UEBhMCUlUxCzAJBgNVBAgTAk5BMRYwFAYDVQQKEw1JTlpBLUxURC1BSVNU
MRQwEgYDVQQDFAtwX2JvcmtvdmthMjEhMB8GCSqGSIb3DQEJARYScGF2ZWxAa3Vz
dG8uY29tLnJ1MIGfMA0GCSqGSIb3DQEBAQUAA4GNADCBiQKBgQDVDPnJ3O0pyFFY
Zj0Y2hhAwOrsOsZaVmpKZ0MdnKD2L0933eXifImZNQ9FrTPWhy4giYE682mQppVb
lKYKiV8Bz6Z9EygPTvBj0nPVNDVgD6bUWBWLJKuLuTE7sM9w26Axd/ASDyRWG03e
rM7RviF9rge24gSkybIFKPi/r8sPSwIDAQABo4IBAjCB/zAJBgNVHRMEAjAAMCwG
CWCGSAGG+EIBDQQfFh1PcGVuU1NMIEdlbmVyYXRlZCBDZXJ0aWZpY2F0ZTAdBgNV
HQ4EFgQU6553WO4rvoVJ1bhLKRjTiOugri4wgaQGA1UdIwSBnDCBmYAU9nzm+xS3
9sFeA5kSqu1A5EQSdjihfqR8MHoxCzAJBgNVBAYTAlJVMQswCQYDVQQIEwJOQTES
MBAGA1UEBxMJVE9HTElBVFRJMRYwFAYDVQQKEw1JTlpBLUxURC1BSVNUMQ8wDQYD
VQQDEwZzZXJ2ZXIxITAfBgkqhkiG9w0BCQEWEnBhdmVsQGt1c3RvLmNvbS5ydYIB
ADANBgkqhkiG9w0BAQQFAAOBgQAyhc3U20B4crR4DB+25MY+iJOhK5kcNoPuCwK5
voi50s7x5FeDsJsr9ozKqTvNQt5t2iP4W1dGcrSmvNY7L/GXK93yNSkzNQuaamHu
cRsrA92gKWIECifNnV9RkOwBLtLluEO1HOiJAQvFW4x61M6nEc+n5JjJe1kMANsj
XZB9nw==
-----END CERTIFICATE-----
