Certificate:
    Data:
        Version: 3 (0x2)
        Serial Number: 39 (0x27)
        Signature Algorithm: md5WithRSAEncryption
        Issuer: C=RU, ST=NA, L=TOGLIATTI, O=INZA-LTD-AIST, CN=server/emailAddress=pavel@kusto.com.ru
        Validity
            Not Before: Oct  9 10:37:18 2009 GMT
            Not After : Oct  7 10:37:18 2019 GMT
        Subject: C=RU, ST=NA, O=INZA-LTD-AIST, CN=pelican7_kv/emailAddress=pavel@kusto.com.ru
        Subject Public Key Info:
            Public Key Algorithm: rsaEncryption
            RSA Public Key: (1024 bit)
                Modulus (1024 bit):
                    00:df:43:2d:02:53:18:58:1f:3d:f2:6d:c6:62:56:
                    45:67:68:63:2d:40:92:db:0a:6f:e8:d5:46:1b:fd:
                    31:00:15:c6:87:15:46:0e:80:66:98:78:f6:52:5b:
                    98:9b:1c:55:1c:8d:93:b9:1f:20:99:9a:f5:8f:d5:
                    4e:db:c6:58:2c:42:3b:9c:6f:70:30:e1:c8:17:b2:
                    81:aa:c4:a2:a7:a5:25:70:df:a6:9c:4e:7b:3b:83:
                    0f:a5:4d:81:bb:14:48:b1:39:10:0d:24:0b:85:ba:
                    e0:9c:32:b3:8f:2a:9b:f3:1d:78:df:17:bf:5a:2b:
                    9c:c0:01:bf:e9:f1:9f:3f:0d
                Exponent: 65537 (0x10001)
        X509v3 extensions:
            X509v3 Basic Constraints: 
                CA:FALSE
            Netscape Comment: 
                OpenSSL Generated Certificate
            X509v3 Subject Key Identifier: 
                E9:DC:8A:58:50:F1:0E:25:B9:62:56:44:57:D6:02:E0:B6:F0:F8:8B
            X509v3 Authority Key Identifier: 
                keyid:F6:7C:E6:FB:14:B7:F6:C1:5E:03:99:12:AA:ED:40:E4:44:12:76:38
                DirName:/C=RU/ST=NA/L=TOGLIATTI/O=INZA-LTD-AIST/CN=server/emailAddress=pavel@kusto.com.ru
                serial:00

    Signature Algorithm: md5WithRSAEncryption
        c3:92:51:e1:e6:35:69:40:63:2b:f5:ca:74:21:74:c2:97:45:
        b3:24:49:0f:0b:66:7f:4f:77:b2:46:73:39:c1:5e:d8:55:65:
        17:81:38:ce:4b:db:f0:61:00:8c:93:a5:58:a7:aa:cf:b6:50:
        c4:42:53:e1:3e:c4:82:96:69:70:4c:c5:8c:8d:69:7c:57:24:
        31:e9:ba:7a:62:d9:b3:07:d8:9b:50:a3:36:8a:37:f4:02:d3:
        7c:c6:c1:ed:64:53:44:19:0c:39:5c:a8:3e:61:c9:60:89:d9:
        24:5d:23:9d:b7:cd:51:55:ca:cd:a4:d6:65:d5:42:de:a1:4e:
        87:3f
-----BEGIN CERTIFICATE-----
MIIDXzCCAsigAwIBAgIBJzANBgkqhkiG9w0BAQQFADB6MQswCQYDVQQGEwJSVTEL
MAkGA1UECBMCTkExEjAQBgNVBAcTCVRPR0xJQVRUSTEWMBQGA1UEChMNSU5aQS1M
VEQtQUlTVDEPMA0GA1UEAxMGc2VydmVyMSEwHwYJKoZIhvcNAQkBFhJwYXZlbEBr
dXN0by5jb20ucnUwHhcNMDkxMDA5MTAzNzE4WhcNMTkxMDA3MTAzNzE4WjBrMQsw
CQYDVQQGEwJSVTELMAkGA1UECBMCTkExFjAUBgNVBAoTDUlOWkEtTFRELUFJU1Qx
FDASBgNVBAMUC3BlbGljYW43X2t2MSEwHwYJKoZIhvcNAQkBFhJwYXZlbEBrdXN0
by5jb20ucnUwgZ8wDQYJKoZIhvcNAQEBBQADgY0AMIGJAoGBAN9DLQJTGFgfPfJt
xmJWRWdoYy1AktsKb+jVRhv9MQAVxocVRg6AZph49lJbmJscVRyNk7kfIJma9Y/V
TtvGWCxCO5xvcDDhyBeygarEoqelJXDfppxOezuDD6VNgbsUSLE5EA0kC4W64Jwy
s48qm/MdeN8Xv1ornMABv+nxnz8NAgMBAAGjggECMIH/MAkGA1UdEwQCMAAwLAYJ
YIZIAYb4QgENBB8WHU9wZW5TU0wgR2VuZXJhdGVkIENlcnRpZmljYXRlMB0GA1Ud
DgQWBBTp3IpYUPEOJbliVkRX1gLgtvD4izCBpAYDVR0jBIGcMIGZgBT2fOb7FLf2
wV4DmRKq7UDkRBJ2OKF+pHwwejELMAkGA1UEBhMCUlUxCzAJBgNVBAgTAk5BMRIw
EAYDVQQHEwlUT0dMSUFUVEkxFjAUBgNVBAoTDUlOWkEtTFRELUFJU1QxDzANBgNV
BAMTBnNlcnZlcjEhMB8GCSqGSIb3DQEJARYScGF2ZWxAa3VzdG8uY29tLnJ1ggEA
MA0GCSqGSIb3DQEBBAUAA4GBAMOSUeHmNWlAYyv1ynQhdMKXRbMkSQ8LZn9Pd7JG
cznBXthVZReBOM5L2/BhAIyTpVinqs+2UMRCU+E+xIKWaXBMxYyNaXxXJDHpunpi
2bMH2JtQozaKN/QC03zGwe1kU0QZDDlcqD5hyWCJ2SRdI523zVFVys2k1mXVQt6h
Toc/
-----END CERTIFICATE-----
