Certificate:
    Data:
        Version: 3 (0x2)
        Serial Number: 66 (0x42)
        Signature Algorithm: md5WithRSAEncryption
        Issuer: C=RU, ST=NA, L=TOGLIATTI, O=INZA-LTD-AIST, CN=server/emailAddress=pavel@kusto.com.ru
        Validity
            Not Before: Dec 13 08:57:50 2010 GMT
            Not After : Dec 10 08:57:50 2020 GMT
        Subject: C=RU, ST=NA, O=INZA-LTD-AIST, CN=pelican_mur64/emailAddress=pavel@kusto.com.ru
        Subject Public Key Info:
            Public Key Algorithm: rsaEncryption
            RSA Public Key: (1024 bit)
                Modulus (1024 bit):
                    00:c3:d3:2c:61:e2:8e:7d:71:50:c7:8d:fe:8e:92:
                    15:c4:84:61:3a:8a:f8:f0:f0:9c:1e:90:8e:d7:db:
                    44:33:77:c4:9c:06:dd:94:70:44:6a:30:09:16:66:
                    d4:7a:a4:af:fa:ce:fd:84:93:53:3a:91:f4:b5:eb:
                    a2:10:99:d3:2a:18:6c:ca:33:52:49:40:c8:5b:c7:
                    9c:13:5e:31:5f:87:e2:63:d3:5e:9c:20:f3:a8:ec:
                    90:5b:09:34:fb:1d:11:18:99:14:bc:d3:b1:73:92:
                    c9:10:0e:af:d0:48:bb:55:85:eb:fd:1a:ce:39:2c:
                    40:58:0d:f7:ad:ae:61:14:eb
                Exponent: 65537 (0x10001)
        X509v3 extensions:
            X509v3 Basic Constraints: 
                CA:FALSE
            Netscape Comment: 
                OpenSSL Generated Certificate
            X509v3 Subject Key Identifier: 
                90:82:06:D1:B5:7C:8C:06:1D:DD:C0:01:8B:91:D4:26:53:85:AE:C6
            X509v3 Authority Key Identifier: 
                keyid:F6:7C:E6:FB:14:B7:F6:C1:5E:03:99:12:AA:ED:40:E4:44:12:76:38
                DirName:/C=RU/ST=NA/L=TOGLIATTI/O=INZA-LTD-AIST/CN=server/emailAddress=pavel@kusto.com.ru
                serial:00

    Signature Algorithm: md5WithRSAEncryption
        25:37:2a:0d:90:14:4f:81:e5:03:0b:b1:af:23:21:45:60:20:
        87:8c:a5:16:19:65:71:53:35:92:4f:5d:68:54:9c:18:6b:aa:
        e5:67:f0:f4:a2:8e:18:77:41:b5:f7:dd:2c:8a:3e:d1:3d:64:
        dd:99:4f:26:78:aa:33:6b:fd:39:7b:e4:4a:9b:f4:21:59:9e:
        a7:25:35:a7:86:b3:30:cc:c3:71:f7:14:26:e9:b6:2c:20:2e:
        a9:c5:d1:40:b0:c5:21:b0:96:d5:91:af:9e:02:9f:95:56:9a:
        a1:31:28:79:a2:4f:65:a6:5f:c8:74:3c:b5:ec:68:bb:c3:e4:
        b7:0d
-----BEGIN CERTIFICATE-----
MIIDYTCCAsqgAwIBAgIBQjANBgkqhkiG9w0BAQQFADB6MQswCQYDVQQGEwJSVTEL
MAkGA1UECBMCTkExEjAQBgNVBAcTCVRPR0xJQVRUSTEWMBQGA1UEChMNSU5aQS1M
VEQtQUlTVDEPMA0GA1UEAxMGc2VydmVyMSEwHwYJKoZIhvcNAQkBFhJwYXZlbEBr
dXN0by5jb20ucnUwHhcNMTAxMjEzMDg1NzUwWhcNMjAxMjEwMDg1NzUwWjBtMQsw
CQYDVQQGEwJSVTELMAkGA1UECBMCTkExFjAUBgNVBAoTDUlOWkEtTFRELUFJU1Qx
FjAUBgNVBAMUDXBlbGljYW5fbXVyNjQxITAfBgkqhkiG9w0BCQEWEnBhdmVsQGt1
c3RvLmNvbS5ydTCBnzANBgkqhkiG9w0BAQEFAAOBjQAwgYkCgYEAw9MsYeKOfXFQ
x43+jpIVxIRhOor48PCcHpCO19tEM3fEnAbdlHBEajAJFmbUeqSv+s79hJNTOpH0
teuiEJnTKhhsyjNSSUDIW8ecE14xX4fiY9NenCDzqOyQWwk0+x0RGJkUvNOxc5LJ
EA6v0Ei7VYXr/RrOOSxAWA33ra5hFOsCAwEAAaOCAQIwgf8wCQYDVR0TBAIwADAs
BglghkgBhvhCAQ0EHxYdT3BlblNTTCBHZW5lcmF0ZWQgQ2VydGlmaWNhdGUwHQYD
VR0OBBYEFJCCBtG1fIwGHd3AAYuR1CZTha7GMIGkBgNVHSMEgZwwgZmAFPZ85vsU
t/bBXgOZEqrtQOREEnY4oX6kfDB6MQswCQYDVQQGEwJSVTELMAkGA1UECBMCTkEx
EjAQBgNVBAcTCVRPR0xJQVRUSTEWMBQGA1UEChMNSU5aQS1MVEQtQUlTVDEPMA0G
A1UEAxMGc2VydmVyMSEwHwYJKoZIhvcNAQkBFhJwYXZlbEBrdXN0by5jb20ucnWC
AQAwDQYJKoZIhvcNAQEEBQADgYEAJTcqDZAUT4HlAwuxryMhRWAgh4ylFhllcVM1
kk9daFScGGuq5Wfw9KKOGHdBtffdLIo+0T1k3ZlPJniqM2v9OXvkSpv0IVmepyU1
p4azMMzDcfcUJum2LCAuqcXRQLDFIbCW1ZGvngKflVaaoTEoeaJPZaZfyHQ8texo
u8Pktw0=
-----END CERTIFICATE-----
