Certificate:
    Data:
        Version: 3 (0x2)
        Serial Number: 149 (0x95)
    Signature Algorithm: md5WithRSAEncryption
        Issuer: C=RU, ST=NA, L=TOGLIATTI, O=INZA-LTD-AIST, CN=server/emailAddress=pavel@kusto.com.ru
        Validity
            Not Before: Dec 19 13:53:18 2013 GMT
            Not After : Dec 17 13:53:18 2023 GMT
        Subject: C=RU, ST=NA, O=INZA-LTD-AIST, CN=test/emailAddress=pavel@kusto.com.ru
        Subject Public Key Info:
            Public Key Algorithm: rsaEncryption
                Public-Key: (1024 bit)
                Modulus:
                    00:ce:2d:23:20:16:c7:e4:88:db:10:b4:e2:08:54:
                    6d:fe:a5:97:f2:ec:83:32:b4:d9:a7:97:02:7e:eb:
                    17:de:c7:af:0a:95:e0:9d:cf:91:1e:5f:36:e6:1a:
                    71:e4:65:3d:28:b7:f6:fe:24:9d:34:36:a4:24:04:
                    48:ea:b5:8e:f2:ac:c9:7e:8f:6f:2d:42:33:e4:8d:
                    07:74:92:d8:cb:63:3a:bb:86:de:31:35:09:a9:b6:
                    2e:49:7e:6b:3a:ee:04:81:3c:42:39:0b:24:c0:c3:
                    48:6d:e4:84:75:62:a3:7f:5d:a1:d4:b1:ea:4c:d4:
                    8d:57:99:70:34:3d:bd:0f:23
                Exponent: 65537 (0x10001)
        X509v3 extensions:
            X509v3 Basic Constraints: 
                CA:FALSE
            Netscape Comment: 
                OpenSSL Generated Certificate
            X509v3 Subject Key Identifier: 
                B6:D2:83:6B:B3:95:10:EF:DF:B2:32:8D:AE:D4:7E:F2:97:FA:D3:FB
            X509v3 Authority Key Identifier: 
                keyid:F6:7C:E6:FB:14:B7:F6:C1:5E:03:99:12:AA:ED:40:E4:44:12:76:38
                DirName:/C=RU/ST=NA/L=TOGLIATTI/O=INZA-LTD-AIST/CN=server/emailAddress=pavel@kusto.com.ru
                serial:00

    Signature Algorithm: md5WithRSAEncryption
         54:e9:ea:49:3d:72:65:68:b0:92:fe:16:1d:5f:b9:12:ab:69:
         18:94:ce:e9:71:f9:1c:81:0a:da:67:59:05:28:9a:fa:ba:59:
         e7:23:c0:cc:7c:89:8a:9a:5c:4f:14:5b:c7:89:b0:80:f2:df:
         e4:49:20:79:49:80:8d:28:dc:dd:5c:69:05:c9:c2:2e:48:2b:
         dd:55:fe:26:61:f6:52:38:3d:96:a8:ff:ad:9b:7b:6f:30:d2:
         59:fb:90:41:5b:35:26:7a:7a:4d:9d:99:da:b6:09:88:d1:e4:
         00:08:d1:86:1a:e2:4c:e4:08:89:e1:f2:61:35:f1:b2:58:a3:
         69:25
-----BEGIN CERTIFICATE-----
MIIDWTCCAsKgAwIBAgICAJUwDQYJKoZIhvcNAQEEBQAwejELMAkGA1UEBhMCUlUx
CzAJBgNVBAgTAk5BMRIwEAYDVQQHEwlUT0dMSUFUVEkxFjAUBgNVBAoTDUlOWkEt
TFRELUFJU1QxDzANBgNVBAMTBnNlcnZlcjEhMB8GCSqGSIb3DQEJARYScGF2ZWxA
a3VzdG8uY29tLnJ1MB4XDTEzMTIxOTEzNTMxOFoXDTIzMTIxNzEzNTMxOFowZDEL
MAkGA1UEBhMCUlUxCzAJBgNVBAgTAk5BMRYwFAYDVQQKEw1JTlpBLUxURC1BSVNU
MQ0wCwYDVQQDEwR0ZXN0MSEwHwYJKoZIhvcNAQkBFhJwYXZlbEBrdXN0by5jb20u
cnUwgZ8wDQYJKoZIhvcNAQEBBQADgY0AMIGJAoGBAM4tIyAWx+SI2xC04ghUbf6l
l/LsgzK02aeXAn7rF97HrwqV4J3PkR5fNuYaceRlPSi39v4knTQ2pCQESOq1jvKs
yX6Pby1CM+SNB3SS2MtjOruG3jE1Cam2Lkl+azruBIE8QjkLJMDDSG3khHVio39d
odSx6kzUjVeZcDQ9vQ8jAgMBAAGjggECMIH/MAkGA1UdEwQCMAAwLAYJYIZIAYb4
QgENBB8WHU9wZW5TU0wgR2VuZXJhdGVkIENlcnRpZmljYXRlMB0GA1UdDgQWBBS2
0oNrs5UQ79+yMo2u1H7yl/rT+zCBpAYDVR0jBIGcMIGZgBT2fOb7FLf2wV4DmRKq
7UDkRBJ2OKF+pHwwejELMAkGA1UEBhMCUlUxCzAJBgNVBAgTAk5BMRIwEAYDVQQH
EwlUT0dMSUFUVEkxFjAUBgNVBAoTDUlOWkEtTFRELUFJU1QxDzANBgNVBAMTBnNl
cnZlcjEhMB8GCSqGSIb3DQEJARYScGF2ZWxAa3VzdG8uY29tLnJ1ggEAMA0GCSqG
SIb3DQEBBAUAA4GBAFTp6kk9cmVosJL+Fh1fuRKraRiUzulx+RyBCtpnWQUomvq6
WecjwMx8iYqaXE8UW8eJsIDy3+RJIHlJgI0o3N1caQXJwi5IK91V/iZh9lI4PZao
/62be28w0ln7kEFbNSZ6ek2dmdq2CYjR5AAI0YYa4kzkCInh8mE18bJYo2kl
-----END CERTIFICATE-----
