Certificate:
    Data:
        Version: 3 (0x2)
        Serial Number: 6 (0x6)
    Signature Algorithm: sha1WithRSAEncryption
        Issuer: C=RU, ST=SAMARSKAYA, L=TOGLIATTY, O=NEOTREID-LTD, CN=NEOTREID-LTD CA/emailAddress=muxa@neo63.ru
        Validity
            Not Before: Aug  6 08:01:54 2015 GMT
            Not After : Aug  3 08:01:54 2025 GMT
        Subject: C=RU, ST=SAMARSKAYA, L=TOGLIATTY, O=NEOTREID-LTD, CN=p_lenina3/emailAddress=muxa@neo63.ru
        Subject Public Key Info:
            Public Key Algorithm: rsaEncryption
                Public-Key: (1024 bit)
                Modulus:
                    00:b0:dc:21:f1:98:6e:b6:79:18:ab:fa:27:a5:3b:
                    8c:fb:76:7f:ac:34:df:36:b4:cf:5c:15:6a:c5:61:
                    fe:50:89:05:db:05:ee:22:d5:ff:f2:21:04:4e:9f:
                    9b:a4:e4:5d:67:a7:de:63:1f:8c:c6:d1:0e:fa:8f:
                    06:e4:9f:b8:03:06:ff:37:14:83:bf:1b:53:02:46:
                    5c:bf:69:6d:7b:52:40:75:4b:3d:6f:21:5a:31:9c:
                    0c:42:9e:4f:1b:4e:7c:a3:26:ce:05:10:ab:b2:54:
                    ea:47:3c:41:be:3f:ea:7b:38:55:4e:a1:c6:77:34:
                    00:9f:09:00:68:ba:e6:68:1b
                Exponent: 65537 (0x10001)
        X509v3 extensions:
            X509v3 Basic Constraints: 
                CA:FALSE
            Netscape Comment: 
                Easy-RSA Generated Certificate
            X509v3 Subject Key Identifier: 
                57:8E:97:F6:97:6D:95:01:EB:BF:20:1C:C5:80:44:71:28:D1:7A:25
            X509v3 Authority Key Identifier: 
                keyid:F8:AD:6B:CF:05:6A:F5:01:B7:8A:6F:A2:91:D0:F3:C3:E3:2B:62:F3
                DirName:/C=RU/ST=SAMARSKAYA/L=TOGLIATTY/O=NEOTREID-LTD/CN=NEOTREID-LTD CA/emailAddress=muxa@neo63.ru
                serial:A3:2E:2A:A8:AE:52:1B:B7

            X509v3 Extended Key Usage: 
                TLS Web Client Authentication
            X509v3 Key Usage: 
                Digital Signature
    Signature Algorithm: sha1WithRSAEncryption
         0f:ef:8f:12:cc:10:a4:35:12:f6:55:4b:65:f5:08:21:e0:74:
         6c:5f:45:ca:97:42:98:c6:eb:97:9d:4d:b7:b2:de:74:37:5b:
         4e:19:82:9b:b4:4a:48:8a:aa:ec:11:c2:ec:70:29:b2:bd:3a:
         ad:df:06:99:1a:51:62:d7:7c:81:9f:26:87:c4:5b:3d:f1:cf:
         eb:78:8c:c6:03:f8:ec:41:18:b2:d1:ae:30:22:8e:e1:d3:86:
         a7:d6:d5:f7:cf:86:67:51:db:10:73:77:b1:af:cf:12:bb:87:
         f7:df:7b:3e:ae:23:ed:7c:bc:bc:5b:41:b4:83:ad:23:04:d8:
         4a:7a
-----BEGIN CERTIFICATE-----
MIIDuTCCAyKgAwIBAgIBBjANBgkqhkiG9w0BAQUFADCBhTELMAkGA1UEBhMCUlUx
EzARBgNVBAgTClNBTUFSU0tBWUExEjAQBgNVBAcTCVRPR0xJQVRUWTEVMBMGA1UE
ChMMTkVPVFJFSUQtTFREMRgwFgYDVQQDEw9ORU9UUkVJRC1MVEQgQ0ExHDAaBgkq
hkiG9w0BCQEWDW11eGFAbmVvNjMucnUwHhcNMTUwODA2MDgwMTU0WhcNMjUwODAz
MDgwMTU0WjB/MQswCQYDVQQGEwJSVTETMBEGA1UECBMKU0FNQVJTS0FZQTESMBAG
A1UEBxMJVE9HTElBVFRZMRUwEwYDVQQKEwxORU9UUkVJRC1MVEQxEjAQBgNVBAMU
CXBfbGVuaW5hMzEcMBoGCSqGSIb3DQEJARYNbXV4YUBuZW82My5ydTCBnzANBgkq
hkiG9w0BAQEFAAOBjQAwgYkCgYEAsNwh8ZhutnkYq/onpTuM+3Z/rDTfNrTPXBVq
xWH+UIkF2wXuItX/8iEETp+bpORdZ6feYx+MxtEO+o8G5J+4Awb/NxSDvxtTAkZc
v2lte1JAdUs9byFaMZwMQp5PG058oybOBRCrslTqRzxBvj/qezhVTqHGdzQAnwkA
aLrmaBsCAwEAAaOCATwwggE4MAkGA1UdEwQCMAAwLQYJYIZIAYb4QgENBCAWHkVh
c3ktUlNBIEdlbmVyYXRlZCBDZXJ0aWZpY2F0ZTAdBgNVHQ4EFgQUV46X9pdtlQHr
vyAcxYBEcSjReiUwgboGA1UdIwSBsjCBr4AU+K1rzwVq9QG3im+ikdDzw+MrYvOh
gYukgYgwgYUxCzAJBgNVBAYTAlJVMRMwEQYDVQQIEwpTQU1BUlNLQVlBMRIwEAYD
VQQHEwlUT0dMSUFUVFkxFTATBgNVBAoTDE5FT1RSRUlELUxURDEYMBYGA1UEAxMP
TkVPVFJFSUQtTFREIENBMRwwGgYJKoZIhvcNAQkBFg1tdXhhQG5lbzYzLnJ1ggkA
oy4qqK5SG7cwEwYDVR0lBAwwCgYIKwYBBQUHAwIwCwYDVR0PBAQDAgeAMA0GCSqG
SIb3DQEBBQUAA4GBAA/vjxLMEKQ1EvZVS2X1CCHgdGxfRcqXQpjG65edTbey3nQ3
W04Zgpu0SkiKquwRwuxwKbK9Oq3fBpkaUWLXfIGfJofEWz3xz+t4jMYD+OxBGLLR
rjAijuHThqfW1ffPhmdR2xBzd7GvzxK7h/ffez6uI+18vLxbQbSDrSME2Ep6
-----END CERTIFICATE-----
