Certificate:
    Data:
        Version: 3 (0x2)
        Serial Number: 8 (0x8)
    Signature Algorithm: sha1WithRSAEncryption
        Issuer: C=RU, ST=SAMARSKAYA, L=TOGLIATTY, O=NEOTREID-LTD, CN=NEOTREID-LTD CA/emailAddress=muxa@neo63.ru
        Validity
            Not Before: Aug 18 08:36:59 2015 GMT
            Not After : Aug 15 08:36:59 2025 GMT
        Subject: C=RU, ST=SAMARSKAYA, L=TOGLIATTY, O=NEOTREID-LTD, CN=uzukovo/emailAddress=muxa@neo63.ru
        Subject Public Key Info:
            Public Key Algorithm: rsaEncryption
                Public-Key: (1024 bit)
                Modulus:
                    00:cc:af:e8:ce:55:c4:99:84:f5:70:da:6a:49:97:
                    ff:c1:7f:4b:e0:c5:d1:8f:50:c7:d0:60:ca:1a:7a:
                    2c:21:5e:41:4a:1e:f8:97:4c:e5:3f:60:8b:05:7c:
                    c6:ec:03:88:13:28:d3:f3:78:b5:19:03:8d:db:e5:
                    ce:f7:f8:d8:d7:17:1e:f1:d3:15:41:29:64:f6:ee:
                    e6:ae:d9:70:ff:8d:2f:ac:a6:83:1a:52:9e:ed:6e:
                    96:fa:1c:cb:40:99:6c:6a:60:04:fa:6f:30:4f:fa:
                    39:f1:dc:e7:12:83:8d:df:4c:9b:31:61:5d:29:b6:
                    8f:45:a9:f0:97:05:b5:92:1d
                Exponent: 65537 (0x10001)
        X509v3 extensions:
            X509v3 Basic Constraints: 
                CA:FALSE
            Netscape Comment: 
                Easy-RSA Generated Certificate
            X509v3 Subject Key Identifier: 
                BE:4F:05:92:0C:E9:03:60:39:16:0D:CA:EE:C8:FB:75:F2:4B:F9:83
            X509v3 Authority Key Identifier: 
                keyid:F8:AD:6B:CF:05:6A:F5:01:B7:8A:6F:A2:91:D0:F3:C3:E3:2B:62:F3
                DirName:/C=RU/ST=SAMARSKAYA/L=TOGLIATTY/O=NEOTREID-LTD/CN=NEOTREID-LTD CA/emailAddress=muxa@neo63.ru
                serial:A3:2E:2A:A8:AE:52:1B:B7

            X509v3 Extended Key Usage: 
                TLS Web Client Authentication
            X509v3 Key Usage: 
                Digital Signature
    Signature Algorithm: sha1WithRSAEncryption
         b7:ee:ad:ae:08:d5:13:61:d3:49:d5:59:3f:36:99:79:f3:5c:
         44:ad:b1:08:27:54:c7:54:f4:52:0b:34:86:93:be:52:f6:d8:
         00:fa:80:d6:fd:52:f1:59:c1:ab:9c:82:02:80:34:88:32:04:
         32:3d:9f:5a:a6:df:fb:19:43:c3:0b:6c:8f:6d:3c:54:11:a8:
         5b:22:76:e5:23:db:91:a3:3d:85:e7:02:57:32:2e:16:b4:91:
         03:0c:ca:f6:97:7e:2d:cd:91:2c:0b:df:af:45:82:01:d8:16:
         cf:2c:13:c6:00:65:be:04:01:32:d9:33:6e:cb:3b:bc:9d:45:
         71:9b
-----BEGIN CERTIFICATE-----
MIIDtzCCAyCgAwIBAgIBCDANBgkqhkiG9w0BAQUFADCBhTELMAkGA1UEBhMCUlUx
EzARBgNVBAgTClNBTUFSU0tBWUExEjAQBgNVBAcTCVRPR0xJQVRUWTEVMBMGA1UE
ChMMTkVPVFJFSUQtTFREMRgwFgYDVQQDEw9ORU9UUkVJRC1MVEQgQ0ExHDAaBgkq
hkiG9w0BCQEWDW11eGFAbmVvNjMucnUwHhcNMTUwODE4MDgzNjU5WhcNMjUwODE1
MDgzNjU5WjB9MQswCQYDVQQGEwJSVTETMBEGA1UECBMKU0FNQVJTS0FZQTESMBAG
A1UEBxMJVE9HTElBVFRZMRUwEwYDVQQKEwxORU9UUkVJRC1MVEQxEDAOBgNVBAMT
B3V6dWtvdm8xHDAaBgkqhkiG9w0BCQEWDW11eGFAbmVvNjMucnUwgZ8wDQYJKoZI
hvcNAQEBBQADgY0AMIGJAoGBAMyv6M5VxJmE9XDaakmX/8F/S+DF0Y9Qx9Bgyhp6
LCFeQUoe+JdM5T9giwV8xuwDiBMo0/N4tRkDjdvlzvf42NcXHvHTFUEpZPbu5q7Z
cP+NL6ymgxpSnu1ulvocy0CZbGpgBPpvME/6OfHc5xKDjd9MmzFhXSm2j0Wp8JcF
tZIdAgMBAAGjggE8MIIBODAJBgNVHRMEAjAAMC0GCWCGSAGG+EIBDQQgFh5FYXN5
LVJTQSBHZW5lcmF0ZWQgQ2VydGlmaWNhdGUwHQYDVR0OBBYEFL5PBZIM6QNgORYN
yu7I+3XyS/mDMIG6BgNVHSMEgbIwga+AFPita88FavUBt4pvopHQ88PjK2LzoYGL
pIGIMIGFMQswCQYDVQQGEwJSVTETMBEGA1UECBMKU0FNQVJTS0FZQTESMBAGA1UE
BxMJVE9HTElBVFRZMRUwEwYDVQQKEwxORU9UUkVJRC1MVEQxGDAWBgNVBAMTD05F
T1RSRUlELUxURCBDQTEcMBoGCSqGSIb3DQEJARYNbXV4YUBuZW82My5ydYIJAKMu
KqiuUhu3MBMGA1UdJQQMMAoGCCsGAQUFBwMCMAsGA1UdDwQEAwIHgDANBgkqhkiG
9w0BAQUFAAOBgQC37q2uCNUTYdNJ1Vk/Npl581xErbEIJ1THVPRSCzSGk75S9tgA
+oDW/VLxWcGrnIICgDSIMgQyPZ9apt/7GUPDC2yPbTxUEahbInblI9uRoz2F5wJX
Mi4WtJEDDMr2l34tzZEsC9+vRYIB2BbPLBPGAGW+BAEy2TNuyzu8nUVxmw==
-----END CERTIFICATE-----
