Certificate:
    Data:
        Version: 3 (0x2)
        Serial Number: 5 (0x5)
        Signature Algorithm: md5WithRSAEncryption
        Issuer: C=RU, ST=NA, L=TOGLIATTI, O=INZA-LTD-AIST, CN=server/emailAddress=pavel@kusto.com.ru
        Validity
            Not Before: Oct 10 06:44:11 2008 GMT
            Not After : Oct  8 06:44:11 2018 GMT
        Subject: C=RU, ST=NA, O=INZA-LTD-AIST, OU=AlexeyAist, CN=AlexeyAist/emailAddress=pavel@kusto.com.ru
        Subject Public Key Info:
            Public Key Algorithm: rsaEncryption
            RSA Public Key: (1024 bit)
                Modulus (1024 bit):
                    00:ae:ca:4c:81:31:50:b7:4f:2c:6f:bc:47:1f:d2:
                    5d:11:af:22:a5:6b:1f:90:1d:85:ea:4c:bf:bd:5f:
                    bf:dd:0b:80:98:51:f8:d2:ab:ef:88:cb:fe:c0:f2:
                    eb:47:3d:3c:fb:da:cb:ab:2b:8c:8b:25:df:4d:24:
                    39:cb:32:ea:33:42:75:64:b2:06:7d:86:e4:68:3f:
                    47:94:2a:eb:09:a5:7a:f0:f4:42:ec:b4:8d:ed:d3:
                    d9:79:06:de:2b:ed:b5:99:83:76:d1:e2:c7:8d:7b:
                    b9:e1:c8:42:06:4b:23:57:a4:a9:20:7e:31:67:74:
                    3a:d8:1c:ce:bf:15:4f:2e:43
                Exponent: 65537 (0x10001)
        X509v3 extensions:
            X509v3 Basic Constraints: 
                CA:FALSE
            Netscape Comment: 
                OpenSSL Generated Certificate
            X509v3 Subject Key Identifier: 
                D1:25:C6:3F:5B:FD:EE:EC:77:6C:C8:2A:7C:FA:EE:70:6C:84:CA:5E
            X509v3 Authority Key Identifier: 
                keyid:F6:7C:E6:FB:14:B7:F6:C1:5E:03:99:12:AA:ED:40:E4:44:12:76:38
                DirName:/C=RU/ST=NA/L=TOGLIATTI/O=INZA-LTD-AIST/CN=server/emailAddress=pavel@kusto.com.ru
                serial:00

    Signature Algorithm: md5WithRSAEncryption
        57:35:0c:5d:f9:8d:bc:a4:eb:90:89:e2:a2:e1:2c:0c:90:35:
        bc:0c:18:66:6a:2c:c6:2f:7e:ec:3a:33:1d:ec:84:49:f3:25:
        5a:99:54:6d:3d:18:e6:58:cc:5a:b5:a3:9b:4e:f4:89:e1:f4:
        14:0d:44:7b:59:eb:35:7b:b3:3e:01:cb:d5:a4:89:30:f4:a9:
        6f:59:91:54:f3:cf:ba:04:4f:2d:35:50:e3:87:d3:90:55:3f:
        95:2a:45:83:ce:52:e2:22:b9:07:6a:8c:70:f6:c2:81:ef:d5:
        2c:f0:63:8e:fb:42:ac:f8:86:42:5b:fd:5f:41:71:ba:61:92:
        fe:7f
-----BEGIN CERTIFICATE-----
MIIDczCCAtygAwIBAgIBBTANBgkqhkiG9w0BAQQFADB6MQswCQYDVQQGEwJSVTEL
MAkGA1UECBMCTkExEjAQBgNVBAcTCVRPR0xJQVRUSTEWMBQGA1UEChMNSU5aQS1M
VEQtQUlTVDEPMA0GA1UEAxMGc2VydmVyMSEwHwYJKoZIhvcNAQkBFhJwYXZlbEBr
dXN0by5jb20ucnUwHhcNMDgxMDEwMDY0NDExWhcNMTgxMDA4MDY0NDExWjB/MQsw
CQYDVQQGEwJSVTELMAkGA1UECBMCTkExFjAUBgNVBAoTDUlOWkEtTFRELUFJU1Qx
EzARBgNVBAsTCkFsZXhleUFpc3QxEzARBgNVBAMTCkFsZXhleUFpc3QxITAfBgkq
hkiG9w0BCQEWEnBhdmVsQGt1c3RvLmNvbS5ydTCBnzANBgkqhkiG9w0BAQEFAAOB
jQAwgYkCgYEArspMgTFQt08sb7xHH9JdEa8ipWsfkB2F6ky/vV+/3QuAmFH40qvv
iMv+wPLrRz08+9rLqyuMiyXfTSQ5yzLqM0J1ZLIGfYbkaD9HlCrrCaV68PRC7LSN
7dPZeQbeK+21mYN20eLHjXu54chCBksjV6SpIH4xZ3Q62BzOvxVPLkMCAwEAAaOC
AQIwgf8wCQYDVR0TBAIwADAsBglghkgBhvhCAQ0EHxYdT3BlblNTTCBHZW5lcmF0
ZWQgQ2VydGlmaWNhdGUwHQYDVR0OBBYEFNElxj9b/e7sd2zIKnz67nBshMpeMIGk
BgNVHSMEgZwwgZmAFPZ85vsUt/bBXgOZEqrtQOREEnY4oX6kfDB6MQswCQYDVQQG
EwJSVTELMAkGA1UECBMCTkExEjAQBgNVBAcTCVRPR0xJQVRUSTEWMBQGA1UEChMN
SU5aQS1MVEQtQUlTVDEPMA0GA1UEAxMGc2VydmVyMSEwHwYJKoZIhvcNAQkBFhJw
YXZlbEBrdXN0by5jb20ucnWCAQAwDQYJKoZIhvcNAQEEBQADgYEAVzUMXfmNvKTr
kIniouEsDJA1vAwYZmosxi9+7DozHeyESfMlWplUbT0Y5ljMWrWjm070ieH0FA1E
e1nrNXuzPgHL1aSJMPSpb1mRVPPPugRPLTVQ44fTkFU/lSpFg85S4iK5B2qMcPbC
ge/VLPBjjvtCrPiGQlv9X0FxumGS/n8=
-----END CERTIFICATE-----
