Certificate:
    Data:
        Version: 3 (0x2)
        Serial Number: 8 (0x8)
        Signature Algorithm: md5WithRSAEncryption
        Issuer: C=RU, ST=NA, L=TOGLIATTI, O=INZA-LTD-AIST, CN=server/emailAddress=pavel@kusto.com.ru
        Validity
            Not Before: Jan  6 13:37:32 2009 GMT
            Not After : Jan  4 13:37:32 2019 GMT
        Subject: C=RU, ST=NA, O=INZA-LTD-AIST, OU=medman, CN=medman/emailAddress=pavel@kusto.com.ru
        Subject Public Key Info:
            Public Key Algorithm: rsaEncryption
            RSA Public Key: (1024 bit)
                Modulus (1024 bit):
                    00:bd:a0:aa:7d:da:bb:40:3c:72:a0:e5:69:f7:87:
                    65:87:e4:8f:65:2c:51:48:f8:fa:fd:ac:32:71:a4:
                    1e:d0:d6:86:98:c4:a6:a9:ab:cd:82:56:5f:2d:f0:
                    e5:24:8b:08:29:38:b2:4a:77:cb:ca:4b:7b:aa:b4:
                    0c:ee:1d:19:93:0b:45:08:e3:75:4c:94:38:52:85:
                    42:bc:46:0e:e3:c7:41:d5:b3:f2:49:a5:64:22:61:
                    64:91:3a:59:e0:cc:1e:41:02:b8:02:80:d0:37:3a:
                    d2:d8:fd:4f:9a:86:c5:3f:37:07:4c:38:76:86:e0:
                    b3:c6:de:56:aa:6c:0f:f2:75
                Exponent: 65537 (0x10001)
        X509v3 extensions:
            X509v3 Basic Constraints: 
                CA:FALSE
            Netscape Comment: 
                OpenSSL Generated Certificate
            X509v3 Subject Key Identifier: 
                16:3A:D3:B2:4A:25:B5:F5:E0:EB:13:3B:13:C7:96:DC:3C:29:21:30
            X509v3 Authority Key Identifier: 
                keyid:F6:7C:E6:FB:14:B7:F6:C1:5E:03:99:12:AA:ED:40:E4:44:12:76:38
                DirName:/C=RU/ST=NA/L=TOGLIATTI/O=INZA-LTD-AIST/CN=server/emailAddress=pavel@kusto.com.ru
                serial:00

    Signature Algorithm: md5WithRSAEncryption
        4c:d6:bd:78:8a:d9:ba:be:23:9d:80:9f:a9:8c:bc:f3:15:5d:
        10:d7:95:ea:07:b1:9c:64:90:26:38:db:8c:0f:e9:41:5f:36:
        81:ba:0f:cc:da:fb:20:92:8c:74:ca:93:b4:5a:92:18:71:73:
        12:5c:8e:20:97:82:ee:4f:58:f1:32:93:10:68:de:4d:15:48:
        ee:aa:74:44:e3:0f:fe:69:67:77:5f:b1:2a:9d:9c:ba:53:e9:
        0e:1d:5b:77:3d:03:95:b7:05:76:6e:6e:76:b0:5a:dc:2a:8f:
        98:32:a9:4c:bc:61:33:dd:8b:90:1e:4f:03:47:f4:39:41:81:
        31:8b
-----BEGIN CERTIFICATE-----
MIIDazCCAtSgAwIBAgIBCDANBgkqhkiG9w0BAQQFADB6MQswCQYDVQQGEwJSVTEL
MAkGA1UECBMCTkExEjAQBgNVBAcTCVRPR0xJQVRUSTEWMBQGA1UEChMNSU5aQS1M
VEQtQUlTVDEPMA0GA1UEAxMGc2VydmVyMSEwHwYJKoZIhvcNAQkBFhJwYXZlbEBr
dXN0by5jb20ucnUwHhcNMDkwMTA2MTMzNzMyWhcNMTkwMTA0MTMzNzMyWjB3MQsw
CQYDVQQGEwJSVTELMAkGA1UECBMCTkExFjAUBgNVBAoTDUlOWkEtTFRELUFJU1Qx
DzANBgNVBAsTBm1lZG1hbjEPMA0GA1UEAxMGbWVkbWFuMSEwHwYJKoZIhvcNAQkB
FhJwYXZlbEBrdXN0by5jb20ucnUwgZ8wDQYJKoZIhvcNAQEBBQADgY0AMIGJAoGB
AL2gqn3au0A8cqDlafeHZYfkj2UsUUj4+v2sMnGkHtDWhpjEpqmrzYJWXy3w5SSL
CCk4skp3y8pLe6q0DO4dGZMLRQjjdUyUOFKFQrxGDuPHQdWz8kmlZCJhZJE6WeDM
HkECuAKA0Dc60tj9T5qGxT83B0w4dobgs8beVqpsD/J1AgMBAAGjggECMIH/MAkG
A1UdEwQCMAAwLAYJYIZIAYb4QgENBB8WHU9wZW5TU0wgR2VuZXJhdGVkIENlcnRp
ZmljYXRlMB0GA1UdDgQWBBQWOtOySiW19eDrEzsTx5bcPCkhMDCBpAYDVR0jBIGc
MIGZgBT2fOb7FLf2wV4DmRKq7UDkRBJ2OKF+pHwwejELMAkGA1UEBhMCUlUxCzAJ
BgNVBAgTAk5BMRIwEAYDVQQHEwlUT0dMSUFUVEkxFjAUBgNVBAoTDUlOWkEtTFRE
LUFJU1QxDzANBgNVBAMTBnNlcnZlcjEhMB8GCSqGSIb3DQEJARYScGF2ZWxAa3Vz
dG8uY29tLnJ1ggEAMA0GCSqGSIb3DQEBBAUAA4GBAEzWvXiK2bq+I52An6mMvPMV
XRDXleoHsZxkkCY424wP6UFfNoG6D8za+yCSjHTKk7RakhhxcxJcjiCXgu5PWPEy
kxBo3k0VSO6qdETjD/5pZ3dfsSqdnLpT6Q4dW3c9A5W3BXZubnawWtwqj5gyqUy8
YTPdi5AeTwNH9DlBgTGL
-----END CERTIFICATE-----
