Certificate:
    Data:
        Version: 3 (0x2)
        Serial Number: 10 (0xa)
        Signature Algorithm: md5WithRSAEncryption
        Issuer: C=RU, ST=NA, L=TOGLIATTI, O=INZA-LTD-AIST, CN=server/emailAddress=pavel@kusto.com.ru
        Validity
            Not Before: Feb 11 09:15:28 2009 GMT
            Not After : Feb  9 09:15:28 2019 GMT
        Subject: C=RU, ST=NA, O=INZA-LTD-AIST, OU=pelican3baist, CN=pelican3bais/emailAddress=pavel@kusto.com.ru
        Subject Public Key Info:
            Public Key Algorithm: rsaEncryption
            RSA Public Key: (1024 bit)
                Modulus (1024 bit):
                    00:bd:c7:f2:19:36:34:1a:19:9e:04:01:ad:95:f3:
                    c8:c0:7b:08:f6:89:5a:ea:9e:8c:40:f7:ab:9c:0f:
                    dd:0e:9d:a9:8a:7d:da:b8:e2:72:37:4b:c6:0f:0e:
                    58:40:2f:e3:cf:01:08:ec:0d:4a:cc:25:e9:08:15:
                    9f:f9:af:e9:32:a5:51:e0:16:8e:af:18:bd:c3:a3:
                    a2:a4:8d:4d:84:73:b1:98:a6:2f:8b:f5:99:e4:ea:
                    72:94:65:b1:27:b4:9f:bf:96:b0:ad:c6:95:56:3c:
                    b3:63:40:15:72:9d:c4:78:1b:9a:2c:b0:bb:79:7a:
                    fc:52:d4:cf:bc:3d:52:81:1f
                Exponent: 65537 (0x10001)
        X509v3 extensions:
            X509v3 Basic Constraints: 
                CA:FALSE
            Netscape Comment: 
                OpenSSL Generated Certificate
            X509v3 Subject Key Identifier: 
                34:18:38:20:E8:E2:F4:AF:B0:E7:80:D0:63:43:E0:A9:0A:37:68:C5
            X509v3 Authority Key Identifier: 
                keyid:F6:7C:E6:FB:14:B7:F6:C1:5E:03:99:12:AA:ED:40:E4:44:12:76:38
                DirName:/C=RU/ST=NA/L=TOGLIATTI/O=INZA-LTD-AIST/CN=server/emailAddress=pavel@kusto.com.ru
                serial:00

    Signature Algorithm: md5WithRSAEncryption
        75:a8:e6:b7:af:2c:ce:13:00:c0:e8:ba:f5:dd:4a:cd:50:c4:
        3b:6a:c6:c0:ca:83:a7:91:bb:71:fe:aa:17:53:59:71:c3:70:
        7d:0a:4d:6f:ee:6a:27:08:70:ea:b9:fb:18:6f:5f:16:a4:37:
        4d:00:0b:1f:1e:e6:0e:ae:c4:bf:c8:22:46:e6:b5:bb:b7:72:
        fc:90:bf:fa:c8:3f:27:95:92:9c:f4:5d:cc:cb:39:55:c5:dd:
        a8:24:2c:53:3b:e2:3c:e4:84:c4:d8:29:78:64:8c:f5:06:52:
        ce:65:58:95:e7:79:ae:68:4c:3c:fa:79:38:87:5f:1e:9f:ce:
        fe:4f
-----BEGIN CERTIFICATE-----
MIIDeTCCAuKgAwIBAgIBCjANBgkqhkiG9w0BAQQFADB6MQswCQYDVQQGEwJSVTEL
MAkGA1UECBMCTkExEjAQBgNVBAcTCVRPR0xJQVRUSTEWMBQGA1UEChMNSU5aQS1M
VEQtQUlTVDEPMA0GA1UEAxMGc2VydmVyMSEwHwYJKoZIhvcNAQkBFhJwYXZlbEBr
dXN0by5jb20ucnUwHhcNMDkwMjExMDkxNTI4WhcNMTkwMjA5MDkxNTI4WjCBhDEL
MAkGA1UEBhMCUlUxCzAJBgNVBAgTAk5BMRYwFAYDVQQKEw1JTlpBLUxURC1BSVNU
MRYwFAYDVQQLEw1wZWxpY2FuM2JhaXN0MRUwEwYDVQQDEwxwZWxpY2FuM2JhaXMx
ITAfBgkqhkiG9w0BCQEWEnBhdmVsQGt1c3RvLmNvbS5ydTCBnzANBgkqhkiG9w0B
AQEFAAOBjQAwgYkCgYEAvcfyGTY0GhmeBAGtlfPIwHsI9ola6p6MQPernA/dDp2p
in3auOJyN0vGDw5YQC/jzwEI7A1KzCXpCBWf+a/pMqVR4BaOrxi9w6OipI1NhHOx
mKYvi/WZ5OpylGWxJ7Sfv5awrcaVVjyzY0AVcp3EeBuaLLC7eXr8UtTPvD1SgR8C
AwEAAaOCAQIwgf8wCQYDVR0TBAIwADAsBglghkgBhvhCAQ0EHxYdT3BlblNTTCBH
ZW5lcmF0ZWQgQ2VydGlmaWNhdGUwHQYDVR0OBBYEFDQYOCDo4vSvsOeA0GND4KkK
N2jFMIGkBgNVHSMEgZwwgZmAFPZ85vsUt/bBXgOZEqrtQOREEnY4oX6kfDB6MQsw
CQYDVQQGEwJSVTELMAkGA1UECBMCTkExEjAQBgNVBAcTCVRPR0xJQVRUSTEWMBQG
A1UEChMNSU5aQS1MVEQtQUlTVDEPMA0GA1UEAxMGc2VydmVyMSEwHwYJKoZIhvcN
AQkBFhJwYXZlbEBrdXN0by5jb20ucnWCAQAwDQYJKoZIhvcNAQEEBQADgYEAdajm
t68szhMAwOi69d1KzVDEO2rGwMqDp5G7cf6qF1NZccNwfQpNb+5qJwhw6rn7GG9f
FqQ3TQALHx7mDq7Ev8giRua1u7dy/JC/+sg/J5WSnPRdzMs5VcXdqCQsUzviPOSE
xNgpeGSM9QZSzmVYled5rmhMPPp5OIdfHp/O/k8=
-----END CERTIFICATE-----
