Certificate:
    Data:
        Version: 3 (0x2)
        Serial Number: 11 (0xb)
        Signature Algorithm: md5WithRSAEncryption
        Issuer: C=RU, ST=NA, L=TOGLIATTI, O=INZA-LTD-AIST, CN=server/emailAddress=pavel@kusto.com.ru
        Validity
            Not Before: Feb 11 09:16:10 2009 GMT
            Not After : Feb  9 09:16:10 2019 GMT
        Subject: C=RU, ST=NA, O=INZA-LTD-AIST, OU=pelican15aist, CN=pelican15ais/emailAddress=pavel@kusto.com.ru
        Subject Public Key Info:
            Public Key Algorithm: rsaEncryption
            RSA Public Key: (1024 bit)
                Modulus (1024 bit):
                    00:b5:37:81:90:75:95:c4:bf:07:a9:ac:24:77:21:
                    3b:a3:91:b1:70:b3:a6:60:58:a3:96:dd:6a:6b:48:
                    78:2f:8b:c2:d1:13:9c:47:b8:cc:04:80:0d:e7:07:
                    35:0c:9e:1b:10:30:52:2d:bc:f1:ef:92:24:8e:a4:
                    1d:1b:02:ca:f4:3d:89:b6:25:50:b2:60:fd:23:fe:
                    99:4f:84:1e:f8:0d:50:01:6c:e8:30:c5:22:91:7e:
                    b1:19:d9:7e:e0:6e:bd:68:7f:e1:7f:71:2e:07:16:
                    88:57:bb:2f:a6:e7:a4:dd:6f:41:ed:28:de:25:7b:
                    3b:72:2e:f9:04:4c:12:ff:a5
                Exponent: 65537 (0x10001)
        X509v3 extensions:
            X509v3 Basic Constraints: 
                CA:FALSE
            Netscape Comment: 
                OpenSSL Generated Certificate
            X509v3 Subject Key Identifier: 
                BF:2D:5F:A5:FD:08:F1:E7:A4:D7:D1:E3:1C:AE:5C:5F:A4:A9:AF:9B
            X509v3 Authority Key Identifier: 
                keyid:F6:7C:E6:FB:14:B7:F6:C1:5E:03:99:12:AA:ED:40:E4:44:12:76:38
                DirName:/C=RU/ST=NA/L=TOGLIATTI/O=INZA-LTD-AIST/CN=server/emailAddress=pavel@kusto.com.ru
                serial:00

    Signature Algorithm: md5WithRSAEncryption
        4d:40:c0:5f:54:13:33:ce:7e:f0:43:74:15:3b:4c:d2:91:5c:
        af:17:5a:45:fd:0f:3b:fe:5e:9e:ae:e3:45:3c:3e:0c:63:7a:
        33:84:56:79:e8:ca:d5:0a:09:04:76:15:11:b3:7f:1d:c5:dc:
        ae:4d:67:27:da:87:83:4a:7c:72:99:1c:65:8f:18:e8:43:65:
        97:14:fd:8f:e1:6a:3a:7c:42:b7:e1:f5:e4:3a:59:32:3e:df:
        02:c9:43:58:c8:29:13:18:58:98:ba:92:3f:54:cb:cf:9d:78:
        fa:17:90:d1:fd:cb:cb:2a:62:50:63:18:81:eb:09:d3:26:0d:
        4a:e8
-----BEGIN CERTIFICATE-----
MIIDeTCCAuKgAwIBAgIBCzANBgkqhkiG9w0BAQQFADB6MQswCQYDVQQGEwJSVTEL
MAkGA1UECBMCTkExEjAQBgNVBAcTCVRPR0xJQVRUSTEWMBQGA1UEChMNSU5aQS1M
VEQtQUlTVDEPMA0GA1UEAxMGc2VydmVyMSEwHwYJKoZIhvcNAQkBFhJwYXZlbEBr
dXN0by5jb20ucnUwHhcNMDkwMjExMDkxNjEwWhcNMTkwMjA5MDkxNjEwWjCBhDEL
MAkGA1UEBhMCUlUxCzAJBgNVBAgTAk5BMRYwFAYDVQQKEw1JTlpBLUxURC1BSVNU
MRYwFAYDVQQLEw1wZWxpY2FuMTVhaXN0MRUwEwYDVQQDEwxwZWxpY2FuMTVhaXMx
ITAfBgkqhkiG9w0BCQEWEnBhdmVsQGt1c3RvLmNvbS5ydTCBnzANBgkqhkiG9w0B
AQEFAAOBjQAwgYkCgYEAtTeBkHWVxL8HqawkdyE7o5GxcLOmYFijlt1qa0h4L4vC
0ROcR7jMBIAN5wc1DJ4bEDBSLbzx75IkjqQdGwLK9D2JtiVQsmD9I/6ZT4Qe+A1Q
AWzoMMUikX6xGdl+4G69aH/hf3EuBxaIV7svpuek3W9B7SjeJXs7ci75BEwS/6UC
AwEAAaOCAQIwgf8wCQYDVR0TBAIwADAsBglghkgBhvhCAQ0EHxYdT3BlblNTTCBH
ZW5lcmF0ZWQgQ2VydGlmaWNhdGUwHQYDVR0OBBYEFL8tX6X9CPHnpNfR4xyuXF+k
qa+bMIGkBgNVHSMEgZwwgZmAFPZ85vsUt/bBXgOZEqrtQOREEnY4oX6kfDB6MQsw
CQYDVQQGEwJSVTELMAkGA1UECBMCTkExEjAQBgNVBAcTCVRPR0xJQVRUSTEWMBQG
A1UEChMNSU5aQS1MVEQtQUlTVDEPMA0GA1UEAxMGc2VydmVyMSEwHwYJKoZIhvcN
AQkBFhJwYXZlbEBrdXN0by5jb20ucnWCAQAwDQYJKoZIhvcNAQEEBQADgYEATUDA
X1QTM85+8EN0FTtM0pFcrxdaRf0PO/5enq7jRTw+DGN6M4RWeejK1QoJBHYVEbN/
HcXcrk1nJ9qHg0p8cpkcZY8Y6ENllxT9j+FqOnxCt+H15DpZMj7fAslDWMgpExhY
mLqSP1TLz514+heQ0f3LyypiUGMYgesJ0yYNSug=
-----END CERTIFICATE-----
