Certificate:
    Data:
        Version: 3 (0x2)
        Serial Number: 27 (0x1b)
        Signature Algorithm: md5WithRSAEncryption
        Issuer: C=RU, ST=NA, L=TOGLIATTI, O=INZA-LTD-AIST, CN=server/emailAddress=pavel@kusto.com.ru
        Validity
            Not Before: Jun  1 09:12:33 2009 GMT
            Not After : May 30 09:12:33 2019 GMT
        Subject: C=RU, ST=NA, O=INZA-LTD-AIST, OU=pel16_3, CN=pel16_3/emailAddress=pavel@kusto.com.ru
        Subject Public Key Info:
            Public Key Algorithm: rsaEncryption
            RSA Public Key: (1024 bit)
                Modulus (1024 bit):
                    00:a1:c6:ff:9a:bc:56:36:63:9c:4e:39:87:bf:24:
                    45:08:f5:0f:56:30:ae:a9:f8:ad:e6:77:74:ee:3e:
                    ab:a3:a5:fb:e2:ec:a6:ed:34:95:47:60:8a:d3:93:
                    16:28:cd:4b:db:fd:73:54:30:7b:08:59:7b:93:1f:
                    1b:f2:60:f6:40:3a:52:92:67:a8:e1:50:ea:3a:8b:
                    7b:d1:3d:03:e6:7f:eb:b9:e8:ca:b0:7f:31:ae:11:
                    52:de:79:67:f6:35:14:e7:2f:94:91:a5:9d:19:6b:
                    5c:94:a0:1f:f0:8e:52:fc:54:cd:72:64:72:6d:98:
                    cc:61:c0:1b:5f:1c:08:59:89
                Exponent: 65537 (0x10001)
        X509v3 extensions:
            X509v3 Basic Constraints: 
                CA:FALSE
            Netscape Comment: 
                OpenSSL Generated Certificate
            X509v3 Subject Key Identifier: 
                33:97:03:5E:9B:AE:00:04:F5:8E:81:DB:DB:5D:63:76:61:98:4C:E7
            X509v3 Authority Key Identifier: 
                keyid:F6:7C:E6:FB:14:B7:F6:C1:5E:03:99:12:AA:ED:40:E4:44:12:76:38
                DirName:/C=RU/ST=NA/L=TOGLIATTI/O=INZA-LTD-AIST/CN=server/emailAddress=pavel@kusto.com.ru
                serial:00

    Signature Algorithm: md5WithRSAEncryption
        12:61:ba:70:69:5d:d5:16:b0:29:77:a1:12:6c:1a:69:71:05:
        10:b9:39:3a:db:46:9a:e9:7a:95:85:18:5b:29:a1:4f:06:10:
        ee:8e:c2:2c:2a:72:e8:6f:5c:3b:98:a5:d8:5b:64:45:17:1a:
        2c:06:8a:6f:e9:ad:5a:3c:1e:35:8a:c4:de:93:c9:8a:e2:9f:
        ed:2c:bf:67:e4:42:8e:4f:57:85:28:69:9c:fa:e7:5c:b4:86:
        29:14:26:65:82:70:cf:b4:15:63:4b:e8:84:c0:ac:10:9f:64:
        0b:ca:8f:77:23:92:24:5e:1e:ea:11:6a:0c:d6:03:f1:bc:b0:
        53:cb
-----BEGIN CERTIFICATE-----
MIIDbTCCAtagAwIBAgIBGzANBgkqhkiG9w0BAQQFADB6MQswCQYDVQQGEwJSVTEL
MAkGA1UECBMCTkExEjAQBgNVBAcTCVRPR0xJQVRUSTEWMBQGA1UEChMNSU5aQS1M
VEQtQUlTVDEPMA0GA1UEAxMGc2VydmVyMSEwHwYJKoZIhvcNAQkBFhJwYXZlbEBr
dXN0by5jb20ucnUwHhcNMDkwNjAxMDkxMjMzWhcNMTkwNTMwMDkxMjMzWjB5MQsw
CQYDVQQGEwJSVTELMAkGA1UECBMCTkExFjAUBgNVBAoTDUlOWkEtTFRELUFJU1Qx
EDAOBgNVBAsUB3BlbDE2XzMxEDAOBgNVBAMUB3BlbDE2XzMxITAfBgkqhkiG9w0B
CQEWEnBhdmVsQGt1c3RvLmNvbS5ydTCBnzANBgkqhkiG9w0BAQEFAAOBjQAwgYkC
gYEAocb/mrxWNmOcTjmHvyRFCPUPVjCuqfit5nd07j6ro6X74uym7TSVR2CK05MW
KM1L2/1zVDB7CFl7kx8b8mD2QDpSkmeo4VDqOot70T0D5n/ruejKsH8xrhFS3nln
9jUU5y+UkaWdGWtclKAf8I5S/FTNcmRybZjMYcAbXxwIWYkCAwEAAaOCAQIwgf8w
CQYDVR0TBAIwADAsBglghkgBhvhCAQ0EHxYdT3BlblNTTCBHZW5lcmF0ZWQgQ2Vy
dGlmaWNhdGUwHQYDVR0OBBYEFDOXA16brgAE9Y6B29tdY3ZhmEznMIGkBgNVHSME
gZwwgZmAFPZ85vsUt/bBXgOZEqrtQOREEnY4oX6kfDB6MQswCQYDVQQGEwJSVTEL
MAkGA1UECBMCTkExEjAQBgNVBAcTCVRPR0xJQVRUSTEWMBQGA1UEChMNSU5aQS1M
VEQtQUlTVDEPMA0GA1UEAxMGc2VydmVyMSEwHwYJKoZIhvcNAQkBFhJwYXZlbEBr
dXN0by5jb20ucnWCAQAwDQYJKoZIhvcNAQEEBQADgYEAEmG6cGld1RawKXehEmwa
aXEFELk5OttGmul6lYUYWymhTwYQ7o7CLCpy6G9cO5il2FtkRRcaLAaKb+mtWjwe
NYrE3pPJiuKf7Sy/Z+RCjk9XhShpnPrnXLSGKRQmZYJwz7QVY0vohMCsEJ9kC8qP
dyOSJF4e6hFqDNYD8bywU8s=
-----END CERTIFICATE-----
