Certificate:
    Data:
        Version: 3 (0x2)
        Serial Number: 30 (0x1e)
        Signature Algorithm: md5WithRSAEncryption
        Issuer: C=RU, ST=NA, L=TOGLIATTI, O=INZA-LTD-AIST, CN=server/emailAddress=pavel@kusto.com.ru
        Validity
            Not Before: Jul 30 07:02:58 2009 GMT
            Not After : Jul 28 07:02:58 2019 GMT
        Subject: C=RU, ST=NA, O=INZA-LTD-AIST, OU=pel3b2, CN=pel3b2/emailAddress=pavel@kusto.com.ru
        Subject Public Key Info:
            Public Key Algorithm: rsaEncryption
            RSA Public Key: (1024 bit)
                Modulus (1024 bit):
                    00:e2:b3:7b:19:b0:c7:7c:74:3f:60:cd:db:49:97:
                    67:4c:15:e2:37:39:ee:17:64:88:53:5e:a5:89:56:
                    85:74:0c:d6:26:52:bf:7e:65:1f:02:bc:a7:3f:0b:
                    5f:f0:b4:67:06:3d:7e:38:75:36:b0:57:86:8a:6b:
                    0f:0c:d0:d2:c3:21:21:83:2a:1f:c5:d2:84:3e:5c:
                    f0:13:a4:81:81:5f:60:ca:ee:57:51:2f:2a:6e:78:
                    72:ab:df:6d:af:04:21:11:64:f5:ee:f5:46:7c:60:
                    af:34:5f:7f:6e:05:ea:e7:43:04:12:de:df:39:fc:
                    22:9c:da:5c:02:92:b6:7a:b1
                Exponent: 65537 (0x10001)
        X509v3 extensions:
            X509v3 Basic Constraints: 
                CA:FALSE
            Netscape Comment: 
                OpenSSL Generated Certificate
            X509v3 Subject Key Identifier: 
                78:0E:ED:09:6D:0B:F1:D4:01:F1:B3:58:97:B7:5F:CD:CD:CA:31:70
            X509v3 Authority Key Identifier: 
                keyid:F6:7C:E6:FB:14:B7:F6:C1:5E:03:99:12:AA:ED:40:E4:44:12:76:38
                DirName:/C=RU/ST=NA/L=TOGLIATTI/O=INZA-LTD-AIST/CN=server/emailAddress=pavel@kusto.com.ru
                serial:00

    Signature Algorithm: md5WithRSAEncryption
        53:a8:39:04:2d:aa:94:95:17:36:dc:24:57:eb:84:5f:85:0d:
        a1:87:08:ae:e0:56:e6:62:a1:56:84:43:b9:11:4e:05:1e:5c:
        8c:b0:30:5b:9c:da:08:aa:c8:90:a8:bf:91:de:77:54:fd:65:
        e2:9b:07:58:31:aa:66:0e:eb:3e:b1:1d:cd:42:6a:0b:f0:76:
        9a:7a:d9:d8:3e:c6:db:fc:ec:8f:55:31:f4:ed:65:9c:b3:15:
        65:4f:8d:7c:b0:6b:13:45:45:cc:eb:8c:2c:b9:65:63:f1:f2:
        65:18:b7:83:ff:53:0f:91:17:5a:b6:ad:e0:53:12:20:16:fe:
        6a:7b
-----BEGIN CERTIFICATE-----
MIIDazCCAtSgAwIBAgIBHjANBgkqhkiG9w0BAQQFADB6MQswCQYDVQQGEwJSVTEL
MAkGA1UECBMCTkExEjAQBgNVBAcTCVRPR0xJQVRUSTEWMBQGA1UEChMNSU5aQS1M
VEQtQUlTVDEPMA0GA1UEAxMGc2VydmVyMSEwHwYJKoZIhvcNAQkBFhJwYXZlbEBr
dXN0by5jb20ucnUwHhcNMDkwNzMwMDcwMjU4WhcNMTkwNzI4MDcwMjU4WjB3MQsw
CQYDVQQGEwJSVTELMAkGA1UECBMCTkExFjAUBgNVBAoTDUlOWkEtTFRELUFJU1Qx
DzANBgNVBAsTBnBlbDNiMjEPMA0GA1UEAxMGcGVsM2IyMSEwHwYJKoZIhvcNAQkB
FhJwYXZlbEBrdXN0by5jb20ucnUwgZ8wDQYJKoZIhvcNAQEBBQADgY0AMIGJAoGB
AOKzexmwx3x0P2DN20mXZ0wV4jc57hdkiFNepYlWhXQM1iZSv35lHwK8pz8LX/C0
ZwY9fjh1NrBXhoprDwzQ0sMhIYMqH8XShD5c8BOkgYFfYMruV1EvKm54cqvfba8E
IRFk9e71RnxgrzRff24F6udDBBLe3zn8IpzaXAKStnqxAgMBAAGjggECMIH/MAkG
A1UdEwQCMAAwLAYJYIZIAYb4QgENBB8WHU9wZW5TU0wgR2VuZXJhdGVkIENlcnRp
ZmljYXRlMB0GA1UdDgQWBBR4Du0JbQvx1AHxs1iXt1/NzcoxcDCBpAYDVR0jBIGc
MIGZgBT2fOb7FLf2wV4DmRKq7UDkRBJ2OKF+pHwwejELMAkGA1UEBhMCUlUxCzAJ
BgNVBAgTAk5BMRIwEAYDVQQHEwlUT0dMSUFUVEkxFjAUBgNVBAoTDUlOWkEtTFRE
LUFJU1QxDzANBgNVBAMTBnNlcnZlcjEhMB8GCSqGSIb3DQEJARYScGF2ZWxAa3Vz
dG8uY29tLnJ1ggEAMA0GCSqGSIb3DQEBBAUAA4GBAFOoOQQtqpSVFzbcJFfrhF+F
DaGHCK7gVuZioVaEQ7kRTgUeXIywMFuc2giqyJCov5Hed1T9ZeKbB1gxqmYO6z6x
Hc1Cagvwdpp62dg+xtv87I9VMfTtZZyzFWVPjXywaxNFRczrjCy5ZWPx8mUYt4P/
Uw+RF1q2reBTEiAW/mp7
-----END CERTIFICATE-----
