Certificate:
    Data:
        Version: 3 (0x2)
        Serial Number: 31 (0x1f)
        Signature Algorithm: md5WithRSAEncryption
        Issuer: C=RU, ST=NA, L=TOGLIATTI, O=INZA-LTD-AIST, CN=server/emailAddress=pavel@kusto.com.ru
        Validity
            Not Before: Sep  1 08:49:51 2009 GMT
            Not After : Aug 30 08:49:51 2019 GMT
        Subject: C=RU, ST=NA, O=INZA-LTD-AIST, CN=pelican14_3/emailAddress=pavel@kusto.com.ru
        Subject Public Key Info:
            Public Key Algorithm: rsaEncryption
            RSA Public Key: (1024 bit)
                Modulus (1024 bit):
                    00:d4:9e:09:35:22:86:10:02:ff:d9:50:9a:fc:be:
                    8c:a6:4d:f5:41:75:80:66:be:9c:9a:83:9b:17:72:
                    22:22:30:a7:21:43:32:95:23:24:3b:56:42:3b:0b:
                    a0:bb:0b:12:20:58:fe:a1:70:ef:10:28:c0:4b:1c:
                    31:3c:bc:c9:b0:19:4a:51:f0:65:17:29:39:b7:ed:
                    61:56:06:aa:ec:e9:47:f9:34:bb:28:d5:c7:21:be:
                    97:4f:50:28:99:e2:93:ea:48:ff:c4:03:fe:39:be:
                    00:7b:a2:27:4e:e5:4a:ee:18:08:94:7f:bb:b2:4e:
                    df:bb:d3:16:3d:20:1a:10:d3
                Exponent: 65537 (0x10001)
        X509v3 extensions:
            X509v3 Basic Constraints: 
                CA:FALSE
            Netscape Comment: 
                OpenSSL Generated Certificate
            X509v3 Subject Key Identifier: 
                08:EE:EE:38:42:65:BD:B9:14:7B:89:C6:82:B4:98:01:B4:0F:4B:EB
            X509v3 Authority Key Identifier: 
                keyid:F6:7C:E6:FB:14:B7:F6:C1:5E:03:99:12:AA:ED:40:E4:44:12:76:38
                DirName:/C=RU/ST=NA/L=TOGLIATTI/O=INZA-LTD-AIST/CN=server/emailAddress=pavel@kusto.com.ru
                serial:00

    Signature Algorithm: md5WithRSAEncryption
        93:ec:a7:47:79:41:99:70:00:c4:69:63:e1:f1:05:6e:ca:44:
        0a:3a:02:8d:b7:d3:be:c9:7a:7a:b7:8d:0c:d7:6a:2f:4f:56:
        f5:af:99:b9:38:bf:ce:cb:c1:70:43:35:7c:da:17:ec:97:57:
        00:ea:b6:45:2b:f4:9b:4c:e2:62:ab:ff:98:68:9a:e6:75:8c:
        5a:ad:0b:12:60:2e:3f:e5:5e:d8:c0:77:25:ef:b2:4f:9a:6f:
        4c:43:88:f9:be:08:62:f6:15:af:37:31:a1:62:3f:ac:cc:3d:
        e9:64:4a:08:da:34:74:dc:64:88:da:08:cb:03:86:60:82:39:
        bc:56
-----BEGIN CERTIFICATE-----
MIIDXzCCAsigAwIBAgIBHzANBgkqhkiG9w0BAQQFADB6MQswCQYDVQQGEwJSVTEL
MAkGA1UECBMCTkExEjAQBgNVBAcTCVRPR0xJQVRUSTEWMBQGA1UEChMNSU5aQS1M
VEQtQUlTVDEPMA0GA1UEAxMGc2VydmVyMSEwHwYJKoZIhvcNAQkBFhJwYXZlbEBr
dXN0by5jb20ucnUwHhcNMDkwOTAxMDg0OTUxWhcNMTkwODMwMDg0OTUxWjBrMQsw
CQYDVQQGEwJSVTELMAkGA1UECBMCTkExFjAUBgNVBAoTDUlOWkEtTFRELUFJU1Qx
FDASBgNVBAMUC3BlbGljYW4xNF8zMSEwHwYJKoZIhvcNAQkBFhJwYXZlbEBrdXN0
by5jb20ucnUwgZ8wDQYJKoZIhvcNAQEBBQADgY0AMIGJAoGBANSeCTUihhAC/9lQ
mvy+jKZN9UF1gGa+nJqDmxdyIiIwpyFDMpUjJDtWQjsLoLsLEiBY/qFw7xAowEsc
MTy8ybAZSlHwZRcpObftYVYGquzpR/k0uyjVxyG+l09QKJnik+pI/8QD/jm+AHui
J07lSu4YCJR/u7JO37vTFj0gGhDTAgMBAAGjggECMIH/MAkGA1UdEwQCMAAwLAYJ
YIZIAYb4QgENBB8WHU9wZW5TU0wgR2VuZXJhdGVkIENlcnRpZmljYXRlMB0GA1Ud
DgQWBBQI7u44QmW9uRR7icaCtJgBtA9L6zCBpAYDVR0jBIGcMIGZgBT2fOb7FLf2
wV4DmRKq7UDkRBJ2OKF+pHwwejELMAkGA1UEBhMCUlUxCzAJBgNVBAgTAk5BMRIw
EAYDVQQHEwlUT0dMSUFUVEkxFjAUBgNVBAoTDUlOWkEtTFRELUFJU1QxDzANBgNV
BAMTBnNlcnZlcjEhMB8GCSqGSIb3DQEJARYScGF2ZWxAa3VzdG8uY29tLnJ1ggEA
MA0GCSqGSIb3DQEBBAUAA4GBAJPsp0d5QZlwAMRpY+HxBW7KRAo6Ao23077Jenq3
jQzXai9PVvWvmbk4v87LwXBDNXzaF+yXVwDqtkUr9JtM4mKr/5homuZ1jFqtCxJg
Lj/lXtjAdyXvsk+ab0xDiPm+CGL2Fa83MaFiP6zMPelkSgjaNHTcZIjaCMsDhmCC
ObxW
-----END CERTIFICATE-----
