Certificate:
    Data:
        Version: 3 (0x2)
        Serial Number: 33 (0x21)
        Signature Algorithm: md5WithRSAEncryption
        Issuer: C=RU, ST=NA, L=TOGLIATTI, O=INZA-LTD-AIST, CN=server/emailAddress=pavel@kusto.com.ru
        Validity
            Not Before: Sep 17 13:43:37 2009 GMT
            Not After : Sep 15 13:43:37 2019 GMT
        Subject: C=RU, ST=NA, O=INZA-LTD-AIST, CN=pelican16_2/emailAddress=pavel@kusto.com.ru
        Subject Public Key Info:
            Public Key Algorithm: rsaEncryption
            RSA Public Key: (1024 bit)
                Modulus (1024 bit):
                    00:b5:ef:71:0e:48:3b:5c:8b:c2:c8:ae:53:02:3b:
                    1c:10:57:cb:9c:ff:17:60:82:40:3a:70:1e:e0:eb:
                    9e:3e:cd:b5:64:03:03:f6:5d:b6:6d:0c:a8:6c:7f:
                    7d:ab:22:46:1f:f8:10:bc:17:7a:e1:71:16:0d:e3:
                    61:3e:d6:bf:de:f0:62:b6:91:ec:79:02:da:0e:ab:
                    3a:ff:0c:70:32:ca:28:7e:7e:bf:dc:73:c1:c2:8e:
                    5b:f9:52:ad:b6:11:31:9d:fb:0b:bc:16:81:95:7a:
                    48:da:a2:84:8d:b7:49:07:89:67:39:f4:3b:02:1f:
                    d3:0a:8d:52:1b:4c:0e:fb:57
                Exponent: 65537 (0x10001)
        X509v3 extensions:
            X509v3 Basic Constraints: 
                CA:FALSE
            Netscape Comment: 
                OpenSSL Generated Certificate
            X509v3 Subject Key Identifier: 
                C0:74:60:6C:5E:08:16:32:B2:4E:5A:04:A0:4E:0A:FA:B4:A5:FF:91
            X509v3 Authority Key Identifier: 
                keyid:F6:7C:E6:FB:14:B7:F6:C1:5E:03:99:12:AA:ED:40:E4:44:12:76:38
                DirName:/C=RU/ST=NA/L=TOGLIATTI/O=INZA-LTD-AIST/CN=server/emailAddress=pavel@kusto.com.ru
                serial:00

    Signature Algorithm: md5WithRSAEncryption
        72:43:46:c2:9d:71:71:31:30:58:21:1e:d9:31:47:1b:5d:e3:
        1e:f4:68:fb:d8:75:0d:cb:3b:14:b4:da:9b:8b:9c:24:01:bd:
        c9:00:07:1f:12:96:88:45:a9:f8:df:d2:c4:e6:73:c3:6d:16:
        6c:89:a7:bd:7e:82:0d:bd:18:94:ba:56:ae:af:84:94:59:c4:
        16:41:84:66:3e:74:65:fa:2f:77:a0:57:58:cf:c4:a5:f1:e0:
        f9:18:22:de:2e:65:1d:46:19:3c:28:53:0b:fd:c1:78:63:8e:
        fc:75:d2:7e:32:a7:b5:07:53:4e:12:6a:ab:f4:5f:83:7b:80:
        2c:84
-----BEGIN CERTIFICATE-----
MIIDXzCCAsigAwIBAgIBITANBgkqhkiG9w0BAQQFADB6MQswCQYDVQQGEwJSVTEL
MAkGA1UECBMCTkExEjAQBgNVBAcTCVRPR0xJQVRUSTEWMBQGA1UEChMNSU5aQS1M
VEQtQUlTVDEPMA0GA1UEAxMGc2VydmVyMSEwHwYJKoZIhvcNAQkBFhJwYXZlbEBr
dXN0by5jb20ucnUwHhcNMDkwOTE3MTM0MzM3WhcNMTkwOTE1MTM0MzM3WjBrMQsw
CQYDVQQGEwJSVTELMAkGA1UECBMCTkExFjAUBgNVBAoTDUlOWkEtTFRELUFJU1Qx
FDASBgNVBAMUC3BlbGljYW4xNl8yMSEwHwYJKoZIhvcNAQkBFhJwYXZlbEBrdXN0
by5jb20ucnUwgZ8wDQYJKoZIhvcNAQEBBQADgY0AMIGJAoGBALXvcQ5IO1yLwsiu
UwI7HBBXy5z/F2CCQDpwHuDrnj7NtWQDA/Zdtm0MqGx/fasiRh/4ELwXeuFxFg3j
YT7Wv97wYraR7HkC2g6rOv8McDLKKH5+v9xzwcKOW/lSrbYRMZ37C7wWgZV6SNqi
hI23SQeJZzn0OwIf0wqNUhtMDvtXAgMBAAGjggECMIH/MAkGA1UdEwQCMAAwLAYJ
YIZIAYb4QgENBB8WHU9wZW5TU0wgR2VuZXJhdGVkIENlcnRpZmljYXRlMB0GA1Ud
DgQWBBTAdGBsXggWMrJOWgSgTgr6tKX/kTCBpAYDVR0jBIGcMIGZgBT2fOb7FLf2
wV4DmRKq7UDkRBJ2OKF+pHwwejELMAkGA1UEBhMCUlUxCzAJBgNVBAgTAk5BMRIw
EAYDVQQHEwlUT0dMSUFUVEkxFjAUBgNVBAoTDUlOWkEtTFRELUFJU1QxDzANBgNV
BAMTBnNlcnZlcjEhMB8GCSqGSIb3DQEJARYScGF2ZWxAa3VzdG8uY29tLnJ1ggEA
MA0GCSqGSIb3DQEBBAUAA4GBAHJDRsKdcXExMFghHtkxRxtd4x70aPvYdQ3LOxS0
2puLnCQBvckABx8SlohFqfjf0sTmc8NtFmyJp71+gg29GJS6Vq6vhJRZxBZBhGY+
dGX6L3egV1jPxKXx4PkYIt4uZR1GGTwoUwv9wXhjjvx10n4yp7UHU04Saqv0X4N7
gCyE
-----END CERTIFICATE-----
