Certificate:
    Data:
        Version: 3 (0x2)
        Serial Number: 34 (0x22)
        Signature Algorithm: md5WithRSAEncryption
        Issuer: C=RU, ST=NA, L=TOGLIATTI, O=INZA-LTD-AIST, CN=server/emailAddress=pavel@kusto.com.ru
        Validity
            Not Before: Sep 25 09:31:43 2009 GMT
            Not After : Sep 23 09:31:43 2019 GMT
        Subject: C=RU, ST=NA, O=INZA-LTD-AIST, CN=pelican18_kv/emailAddress=pavel@kusto.com.ru
        Subject Public Key Info:
            Public Key Algorithm: rsaEncryption
            RSA Public Key: (1024 bit)
                Modulus (1024 bit):
                    00:c3:64:da:0b:46:95:43:00:b7:e5:1a:ef:31:50:
                    f7:69:f4:1f:c2:99:7c:b8:59:53:69:1e:0c:17:0c:
                    37:06:86:d3:88:e6:c2:f5:84:02:36:b0:9a:44:15:
                    c3:7e:cc:ad:a5:fa:4c:67:d4:79:46:af:f5:76:84:
                    e4:82:fe:cb:ee:c7:28:c8:7a:a5:cb:71:00:16:7a:
                    93:9e:20:f8:72:ec:01:8e:43:94:d1:f7:88:3d:86:
                    ca:6c:c9:ac:63:a4:76:5f:43:f1:e3:b6:a2:86:ad:
                    27:03:08:35:da:f5:eb:a7:fa:04:9f:3a:8f:a6:75:
                    68:bf:19:8a:b2:95:7e:08:d1
                Exponent: 65537 (0x10001)
        X509v3 extensions:
            X509v3 Basic Constraints: 
                CA:FALSE
            Netscape Comment: 
                OpenSSL Generated Certificate
            X509v3 Subject Key Identifier: 
                EE:B7:4D:29:72:41:12:51:F1:9F:02:6C:88:E6:30:E2:83:3C:BA:83
            X509v3 Authority Key Identifier: 
                keyid:F6:7C:E6:FB:14:B7:F6:C1:5E:03:99:12:AA:ED:40:E4:44:12:76:38
                DirName:/C=RU/ST=NA/L=TOGLIATTI/O=INZA-LTD-AIST/CN=server/emailAddress=pavel@kusto.com.ru
                serial:00

    Signature Algorithm: md5WithRSAEncryption
        8c:32:83:cd:8b:df:85:08:b3:af:4f:d5:8e:38:06:01:5f:17:
        f1:d8:18:f3:d4:f8:7a:b9:64:21:99:03:7a:a3:67:0e:dc:b5:
        27:71:7f:47:be:cb:a4:22:6c:b3:cb:06:8d:04:43:c4:cb:90:
        7d:3b:20:59:7a:1e:74:20:17:64:c3:79:75:47:f8:25:85:f5:
        23:20:96:76:eb:f5:a6:8e:5c:b6:3b:ed:f9:6f:fd:63:d5:e2:
        c3:b5:1d:e2:cb:d6:ea:9d:2f:8b:78:69:e4:8b:f9:b3:23:40:
        e7:e2:53:a5:91:32:84:8b:33:d0:7a:c7:15:65:36:a4:eb:ce:
        43:d5
-----BEGIN CERTIFICATE-----
MIIDYDCCAsmgAwIBAgIBIjANBgkqhkiG9w0BAQQFADB6MQswCQYDVQQGEwJSVTEL
MAkGA1UECBMCTkExEjAQBgNVBAcTCVRPR0xJQVRUSTEWMBQGA1UEChMNSU5aQS1M
VEQtQUlTVDEPMA0GA1UEAxMGc2VydmVyMSEwHwYJKoZIhvcNAQkBFhJwYXZlbEBr
dXN0by5jb20ucnUwHhcNMDkwOTI1MDkzMTQzWhcNMTkwOTIzMDkzMTQzWjBsMQsw
CQYDVQQGEwJSVTELMAkGA1UECBMCTkExFjAUBgNVBAoTDUlOWkEtTFRELUFJU1Qx
FTATBgNVBAMUDHBlbGljYW4xOF9rdjEhMB8GCSqGSIb3DQEJARYScGF2ZWxAa3Vz
dG8uY29tLnJ1MIGfMA0GCSqGSIb3DQEBAQUAA4GNADCBiQKBgQDDZNoLRpVDALfl
Gu8xUPdp9B/CmXy4WVNpHgwXDDcGhtOI5sL1hAI2sJpEFcN+zK2l+kxn1HlGr/V2
hOSC/svuxyjIeqXLcQAWepOeIPhy7AGOQ5TR94g9hspsyaxjpHZfQ/HjtqKGrScD
CDXa9eun+gSfOo+mdWi/GYqylX4I0QIDAQABo4IBAjCB/zAJBgNVHRMEAjAAMCwG
CWCGSAGG+EIBDQQfFh1PcGVuU1NMIEdlbmVyYXRlZCBDZXJ0aWZpY2F0ZTAdBgNV
HQ4EFgQU7rdNKXJBElHxnwJsiOYw4oM8uoMwgaQGA1UdIwSBnDCBmYAU9nzm+xS3
9sFeA5kSqu1A5EQSdjihfqR8MHoxCzAJBgNVBAYTAlJVMQswCQYDVQQIEwJOQTES
MBAGA1UEBxMJVE9HTElBVFRJMRYwFAYDVQQKEw1JTlpBLUxURC1BSVNUMQ8wDQYD
VQQDEwZzZXJ2ZXIxITAfBgkqhkiG9w0BCQEWEnBhdmVsQGt1c3RvLmNvbS5ydYIB
ADANBgkqhkiG9w0BAQQFAAOBgQCMMoPNi9+FCLOvT9WOOAYBXxfx2Bjz1Ph6uWQh
mQN6o2cO3LUncX9HvsukImyzywaNBEPEy5B9OyBZeh50IBdkw3l1R/glhfUjIJZ2
6/Wmjly2O+35b/1j1eLDtR3iy9bqnS+LeGnki/mzI0Dn4lOlkTKEizPQescVZTak
685D1Q==
-----END CERTIFICATE-----
