Certificate:
    Data:
        Version: 3 (0x2)
        Serial Number: 47 (0x2f)
        Signature Algorithm: md5WithRSAEncryption
        Issuer: C=RU, ST=NA, L=TOGLIATTI, O=INZA-LTD-AIST, CN=server/emailAddress=pavel@kusto.com.ru
        Validity
            Not Before: Apr 24 08:01:58 2010 GMT
            Not After : Apr 21 08:01:58 2020 GMT
        Subject: C=RU, ST=NA, O=INZA-LTD-AIST, CN=pelican12_3kv/emailAddress=pavel@kusto.com.ru
        Subject Public Key Info:
            Public Key Algorithm: rsaEncryption
            RSA Public Key: (1024 bit)
                Modulus (1024 bit):
                    00:f8:46:91:34:9a:6d:bb:8d:a8:01:f5:a1:6d:64:
                    db:01:af:bf:f8:d8:2a:14:0f:08:9f:ba:c2:2d:87:
                    c9:0e:77:8d:c1:73:ac:03:e8:df:02:c5:c2:8e:ac:
                    22:d0:a5:6e:ed:45:9d:43:bd:eb:4c:ef:eb:84:37:
                    d2:39:bc:80:6a:27:82:02:01:66:3f:09:b2:d2:cf:
                    14:14:7c:96:47:6d:56:32:24:89:07:43:5a:c0:b9:
                    6a:48:79:ab:66:fc:31:08:08:63:c4:06:77:32:ad:
                    f1:56:33:03:5c:9e:ce:e9:0d:d5:44:2c:80:fc:fb:
                    91:30:af:5c:5b:50:77:d4:2b
                Exponent: 65537 (0x10001)
        X509v3 extensions:
            X509v3 Basic Constraints: 
                CA:FALSE
            Netscape Comment: 
                OpenSSL Generated Certificate
            X509v3 Subject Key Identifier: 
                A7:76:D4:87:BF:32:45:1E:30:96:4B:FC:71:DF:34:C2:E3:73:47:3C
            X509v3 Authority Key Identifier: 
                keyid:F6:7C:E6:FB:14:B7:F6:C1:5E:03:99:12:AA:ED:40:E4:44:12:76:38
                DirName:/C=RU/ST=NA/L=TOGLIATTI/O=INZA-LTD-AIST/CN=server/emailAddress=pavel@kusto.com.ru
                serial:00

    Signature Algorithm: md5WithRSAEncryption
        8a:3f:5d:61:d3:ab:d2:94:b0:0e:2f:0c:f7:2b:ac:5d:d5:40:
        5c:00:f3:28:e2:1a:86:b7:30:33:18:27:54:5f:ba:a7:29:de:
        77:f9:7b:d7:e8:5d:49:cb:ea:8b:f8:cd:a0:c2:cb:86:42:ff:
        fa:cc:e1:7e:c5:29:4c:fd:f9:fe:c3:c1:11:a9:2c:7a:36:bc:
        84:b4:50:ce:78:91:e3:c2:ba:5e:56:9a:d4:c3:70:db:57:27:
        e4:36:56:c0:c2:f7:9d:0e:7b:02:9c:b7:06:bb:8b:0b:2d:3a:
        69:53:6b:8a:d5:43:d3:8d:73:27:56:08:ab:15:6e:0f:99:94:
        ac:af
-----BEGIN CERTIFICATE-----
MIIDYTCCAsqgAwIBAgIBLzANBgkqhkiG9w0BAQQFADB6MQswCQYDVQQGEwJSVTEL
MAkGA1UECBMCTkExEjAQBgNVBAcTCVRPR0xJQVRUSTEWMBQGA1UEChMNSU5aQS1M
VEQtQUlTVDEPMA0GA1UEAxMGc2VydmVyMSEwHwYJKoZIhvcNAQkBFhJwYXZlbEBr
dXN0by5jb20ucnUwHhcNMTAwNDI0MDgwMTU4WhcNMjAwNDIxMDgwMTU4WjBtMQsw
CQYDVQQGEwJSVTELMAkGA1UECBMCTkExFjAUBgNVBAoTDUlOWkEtTFRELUFJU1Qx
FjAUBgNVBAMUDXBlbGljYW4xMl8za3YxITAfBgkqhkiG9w0BCQEWEnBhdmVsQGt1
c3RvLmNvbS5ydTCBnzANBgkqhkiG9w0BAQEFAAOBjQAwgYkCgYEA+EaRNJptu42o
AfWhbWTbAa+/+NgqFA8In7rCLYfJDneNwXOsA+jfAsXCjqwi0KVu7UWdQ73rTO/r
hDfSObyAaieCAgFmPwmy0s8UFHyWR21WMiSJB0NawLlqSHmrZvwxCAhjxAZ3Mq3x
VjMDXJ7O6Q3VRCyA/PuRMK9cW1B31CsCAwEAAaOCAQIwgf8wCQYDVR0TBAIwADAs
BglghkgBhvhCAQ0EHxYdT3BlblNTTCBHZW5lcmF0ZWQgQ2VydGlmaWNhdGUwHQYD
VR0OBBYEFKd21Ie/MkUeMJZL/HHfNMLjc0c8MIGkBgNVHSMEgZwwgZmAFPZ85vsU
t/bBXgOZEqrtQOREEnY4oX6kfDB6MQswCQYDVQQGEwJSVTELMAkGA1UECBMCTkEx
EjAQBgNVBAcTCVRPR0xJQVRUSTEWMBQGA1UEChMNSU5aQS1MVEQtQUlTVDEPMA0G
A1UEAxMGc2VydmVyMSEwHwYJKoZIhvcNAQkBFhJwYXZlbEBrdXN0by5jb20ucnWC
AQAwDQYJKoZIhvcNAQEEBQADgYEAij9dYdOr0pSwDi8M9yusXdVAXADzKOIahrcw
MxgnVF+6pyned/l71+hdScvqi/jNoMLLhkL/+szhfsUpTP35/sPBEakseja8hLRQ
zniR48K6Xlaa1MNw21cn5DZWwML3nQ57Apy3BruLCy06aVNritVD041zJ1YIqxVu
D5mUrK8=
-----END CERTIFICATE-----
