Certificate:
    Data:
        Version: 3 (0x2)
        Serial Number: 70 (0x46)
        Signature Algorithm: md5WithRSAEncryption
        Issuer: C=RU, ST=NA, L=TOGLIATTI, O=INZA-LTD-AIST, CN=server/emailAddress=pavel@kusto.com.ru
        Validity
            Not Before: Feb 28 13:05:49 2011 GMT
            Not After : Feb 25 13:05:49 2021 GMT
        Subject: C=RU, ST=NA, O=INZA-LTD-AIST, CN=pelican_shluz/emailAddress=pavel@kusto.com.ru
        Subject Public Key Info:
            Public Key Algorithm: rsaEncryption
            RSA Public Key: (1024 bit)
                Modulus (1024 bit):
                    00:c4:8f:69:cb:a2:00:61:01:db:60:e2:c2:99:b7:
                    02:57:1b:2b:8b:0d:d8:db:34:f3:98:d5:ee:c3:4c:
                    e0:e8:75:94:fb:e7:a9:42:fa:a9:9b:4e:e2:e8:bd:
                    96:ce:88:f6:89:70:d9:e5:95:9a:cb:92:a4:c0:55:
                    13:e4:77:c0:cf:80:d3:9e:68:e4:cd:0c:49:1b:5c:
                    47:3f:96:b3:f4:e2:67:da:d9:c3:89:82:3b:5c:f4:
                    fb:5d:84:a3:de:d1:26:87:83:c4:df:f4:50:f4:03:
                    b1:92:c4:13:4b:4d:b4:e2:f1:4f:d7:76:ed:38:25:
                    02:72:c2:d4:cd:d6:56:21:25
                Exponent: 65537 (0x10001)
        X509v3 extensions:
            X509v3 Basic Constraints: 
                CA:FALSE
            Netscape Comment: 
                OpenSSL Generated Certificate
            X509v3 Subject Key Identifier: 
                4B:94:DF:72:94:80:69:55:6B:2A:1C:4E:72:41:E2:0D:89:06:A5:66
            X509v3 Authority Key Identifier: 
                keyid:F6:7C:E6:FB:14:B7:F6:C1:5E:03:99:12:AA:ED:40:E4:44:12:76:38
                DirName:/C=RU/ST=NA/L=TOGLIATTI/O=INZA-LTD-AIST/CN=server/emailAddress=pavel@kusto.com.ru
                serial:00

    Signature Algorithm: md5WithRSAEncryption
        61:34:be:65:2c:a1:1b:76:79:b3:34:72:5e:b8:16:56:95:1e:
        a4:97:fa:7e:89:0d:f2:b3:15:bd:69:78:c9:7f:2a:a2:83:cd:
        4d:79:8f:e2:c0:12:1c:52:5b:4b:6d:47:8f:08:d5:bb:d5:33:
        16:0d:9e:a3:27:63:cc:fa:8c:81:72:45:88:07:e5:44:45:07:
        ef:a3:97:c6:6d:89:19:52:95:fd:8d:50:fd:37:76:50:56:67:
        e0:a2:76:ff:4c:85:25:ed:0b:54:42:f7:dd:ee:e4:22:3c:fa:
        46:cb:b8:ac:09:0a:6d:4e:8d:64:25:50:c7:35:21:9a:80:e2:
        53:29
-----BEGIN CERTIFICATE-----
MIIDYTCCAsqgAwIBAgIBRjANBgkqhkiG9w0BAQQFADB6MQswCQYDVQQGEwJSVTEL
MAkGA1UECBMCTkExEjAQBgNVBAcTCVRPR0xJQVRUSTEWMBQGA1UEChMNSU5aQS1M
VEQtQUlTVDEPMA0GA1UEAxMGc2VydmVyMSEwHwYJKoZIhvcNAQkBFhJwYXZlbEBr
dXN0by5jb20ucnUwHhcNMTEwMjI4MTMwNTQ5WhcNMjEwMjI1MTMwNTQ5WjBtMQsw
CQYDVQQGEwJSVTELMAkGA1UECBMCTkExFjAUBgNVBAoTDUlOWkEtTFRELUFJU1Qx
FjAUBgNVBAMUDXBlbGljYW5fc2hsdXoxITAfBgkqhkiG9w0BCQEWEnBhdmVsQGt1
c3RvLmNvbS5ydTCBnzANBgkqhkiG9w0BAQEFAAOBjQAwgYkCgYEAxI9py6IAYQHb
YOLCmbcCVxsriw3Y2zTzmNXuw0zg6HWU++epQvqpm07i6L2Wzoj2iXDZ5ZWay5Kk
wFUT5HfAz4DTnmjkzQxJG1xHP5az9OJn2tnDiYI7XPT7XYSj3tEmh4PE3/RQ9AOx
ksQTS0204vFP13btOCUCcsLUzdZWISUCAwEAAaOCAQIwgf8wCQYDVR0TBAIwADAs
BglghkgBhvhCAQ0EHxYdT3BlblNTTCBHZW5lcmF0ZWQgQ2VydGlmaWNhdGUwHQYD
VR0OBBYEFEuU33KUgGlVayocTnJB4g2JBqVmMIGkBgNVHSMEgZwwgZmAFPZ85vsU
t/bBXgOZEqrtQOREEnY4oX6kfDB6MQswCQYDVQQGEwJSVTELMAkGA1UECBMCTkEx
EjAQBgNVBAcTCVRPR0xJQVRUSTEWMBQGA1UEChMNSU5aQS1MVEQtQUlTVDEPMA0G
A1UEAxMGc2VydmVyMSEwHwYJKoZIhvcNAQkBFhJwYXZlbEBrdXN0by5jb20ucnWC
AQAwDQYJKoZIhvcNAQEEBQADgYEAYTS+ZSyhG3Z5szRyXrgWVpUepJf6fokN8rMV
vWl4yX8qooPNTXmP4sASHFJbS21HjwjVu9UzFg2eoydjzPqMgXJFiAflREUH76OX
xm2JGVKV/Y1Q/Td2UFZn4KJ2/0yFJe0LVEL33e7kIjz6Rsu4rAkKbU6NZCVQxzUh
moDiUyk=
-----END CERTIFICATE-----
