Certificate:
    Data:
        Version: 3 (0x2)
        Serial Number: 72 (0x48)
        Signature Algorithm: md5WithRSAEncryption
        Issuer: C=RU, ST=NA, L=TOGLIATTI, O=INZA-LTD-AIST, CN=server/emailAddress=pavel@kusto.com.ru
        Validity
            Not Before: Mar 24 14:28:29 2011 GMT
            Not After : Mar 21 14:28:29 2021 GMT
        Subject: C=RU, ST=NA, O=INZA-LTD-AIST, CN=pelican8_4kv/emailAddress=pavel@kusto.com.ru
        Subject Public Key Info:
            Public Key Algorithm: rsaEncryption
            RSA Public Key: (1024 bit)
                Modulus (1024 bit):
                    00:d9:33:dd:0d:7c:31:6e:f6:dc:98:fa:9d:7d:05:
                    3a:7e:ac:62:bd:15:5c:50:bb:fb:8a:81:5a:e5:72:
                    da:ab:fd:ec:4b:d1:0e:42:ec:1a:cd:ab:ab:ab:99:
                    ca:59:8d:98:de:29:df:7f:21:74:7a:a2:73:e2:2a:
                    9b:af:b2:b9:87:d0:7f:df:a8:79:b4:23:61:03:9a:
                    87:b5:a2:37:13:ee:f9:d9:8b:02:dc:9d:28:e4:3a:
                    30:a4:f1:61:d3:4c:f1:1a:d9:d7:e5:12:cc:49:cf:
                    2c:3e:b4:e3:44:c0:5e:09:bf:1a:28:67:05:28:1b:
                    58:e0:8c:f9:8d:2b:9c:d6:01
                Exponent: 65537 (0x10001)
        X509v3 extensions:
            X509v3 Basic Constraints: 
                CA:FALSE
            Netscape Comment: 
                OpenSSL Generated Certificate
            X509v3 Subject Key Identifier: 
                D9:94:CE:9D:2E:0D:42:EE:4B:A8:8C:5B:8E:DD:5F:96:57:35:36:52
            X509v3 Authority Key Identifier: 
                keyid:F6:7C:E6:FB:14:B7:F6:C1:5E:03:99:12:AA:ED:40:E4:44:12:76:38
                DirName:/C=RU/ST=NA/L=TOGLIATTI/O=INZA-LTD-AIST/CN=server/emailAddress=pavel@kusto.com.ru
                serial:00

    Signature Algorithm: md5WithRSAEncryption
        75:f6:b3:cd:97:87:fa:d2:f8:5c:12:ef:46:8f:90:64:53:b4:
        75:1e:b5:f5:bc:ae:d5:91:6d:75:c4:7e:f7:8d:0a:d7:5a:2e:
        ad:5c:dc:b5:b7:ed:fc:12:ba:2a:6f:34:b8:5a:d0:8d:ff:6b:
        f9:00:11:7a:93:8b:4c:9c:dd:6b:01:b9:7f:02:2a:36:46:3c:
        71:37:47:d9:8c:ec:48:2c:60:67:27:1c:a6:54:3f:e2:20:8f:
        e8:34:e0:fc:34:a2:10:e3:db:ec:43:bc:a4:58:0c:14:b8:8f:
        ca:3d:b0:64:0c:60:a4:9b:1e:9c:3d:31:fd:4f:d7:cf:f4:70:
        ee:a1
-----BEGIN CERTIFICATE-----
MIIDYDCCAsmgAwIBAgIBSDANBgkqhkiG9w0BAQQFADB6MQswCQYDVQQGEwJSVTEL
MAkGA1UECBMCTkExEjAQBgNVBAcTCVRPR0xJQVRUSTEWMBQGA1UEChMNSU5aQS1M
VEQtQUlTVDEPMA0GA1UEAxMGc2VydmVyMSEwHwYJKoZIhvcNAQkBFhJwYXZlbEBr
dXN0by5jb20ucnUwHhcNMTEwMzI0MTQyODI5WhcNMjEwMzIxMTQyODI5WjBsMQsw
CQYDVQQGEwJSVTELMAkGA1UECBMCTkExFjAUBgNVBAoTDUlOWkEtTFRELUFJU1Qx
FTATBgNVBAMUDHBlbGljYW44XzRrdjEhMB8GCSqGSIb3DQEJARYScGF2ZWxAa3Vz
dG8uY29tLnJ1MIGfMA0GCSqGSIb3DQEBAQUAA4GNADCBiQKBgQDZM90NfDFu9tyY
+p19BTp+rGK9FVxQu/uKgVrlctqr/exL0Q5C7BrNq6urmcpZjZjeKd9/IXR6onPi
KpuvsrmH0H/fqHm0I2EDmoe1ojcT7vnZiwLcnSjkOjCk8WHTTPEa2dflEsxJzyw+
tONEwF4JvxooZwUoG1jgjPmNK5zWAQIDAQABo4IBAjCB/zAJBgNVHRMEAjAAMCwG
CWCGSAGG+EIBDQQfFh1PcGVuU1NMIEdlbmVyYXRlZCBDZXJ0aWZpY2F0ZTAdBgNV
HQ4EFgQU2ZTOnS4NQu5LqIxbjt1fllc1NlIwgaQGA1UdIwSBnDCBmYAU9nzm+xS3
9sFeA5kSqu1A5EQSdjihfqR8MHoxCzAJBgNVBAYTAlJVMQswCQYDVQQIEwJOQTES
MBAGA1UEBxMJVE9HTElBVFRJMRYwFAYDVQQKEw1JTlpBLUxURC1BSVNUMQ8wDQYD
VQQDEwZzZXJ2ZXIxITAfBgkqhkiG9w0BCQEWEnBhdmVsQGt1c3RvLmNvbS5ydYIB
ADANBgkqhkiG9w0BAQQFAAOBgQB19rPNl4f60vhcEu9Gj5BkU7R1HrX1vK7VkW11
xH73jQrXWi6tXNy1t+38EroqbzS4WtCN/2v5ABF6k4tMnN1rAbl/Aio2RjxxN0fZ
jOxILGBnJxymVD/iII/oNOD8NKIQ49vsQ7ykWAwUuI/KPbBkDGCkmx6cPTH9T9fP
9HDuoQ==
-----END CERTIFICATE-----
