Certificate:
    Data:
        Version: 3 (0x2)
        Serial Number: 76 (0x4c)
        Signature Algorithm: md5WithRSAEncryption
        Issuer: C=RU, ST=NA, L=TOGLIATTI, O=INZA-LTD-AIST, CN=server/emailAddress=pavel@kusto.com.ru
        Validity
            Not Before: Apr  6 07:58:54 2011 GMT
            Not After : Apr  3 07:58:54 2021 GMT
        Subject: C=RU, ST=NA, O=INZA-LTD-AIST, CN=pel_mur3/emailAddress=pavel@kusto.com.ru
        Subject Public Key Info:
            Public Key Algorithm: rsaEncryption
            RSA Public Key: (1024 bit)
                Modulus (1024 bit):
                    00:c9:ee:79:9e:44:96:f7:55:fc:41:5d:08:dc:a2:
                    9a:02:54:24:cc:cb:ec:8d:70:a9:19:27:25:b3:da:
                    bc:f9:c1:45:d8:2b:08:db:ce:51:37:a6:0f:23:94:
                    21:e2:e5:cf:99:d0:22:ff:40:b8:f0:75:10:11:3c:
                    68:c8:39:2f:98:7e:17:de:84:0c:f9:63:d1:22:14:
                    d2:f3:e7:9f:8d:48:c5:8d:0f:1b:14:3b:8f:25:8c:
                    35:ea:b4:a4:36:ad:e3:ab:05:17:6b:88:74:a7:8f:
                    fb:a2:46:9f:cc:ab:56:c8:fc:e4:bd:81:dc:5d:c3:
                    9b:7b:47:a4:88:9e:6f:7c:d5
                Exponent: 65537 (0x10001)
        X509v3 extensions:
            X509v3 Basic Constraints: 
                CA:FALSE
            Netscape Comment: 
                OpenSSL Generated Certificate
            X509v3 Subject Key Identifier: 
                81:6D:30:C6:21:24:77:3E:FF:EF:D3:88:DE:0C:D2:F8:61:DB:9A:E7
            X509v3 Authority Key Identifier: 
                keyid:F6:7C:E6:FB:14:B7:F6:C1:5E:03:99:12:AA:ED:40:E4:44:12:76:38
                DirName:/C=RU/ST=NA/L=TOGLIATTI/O=INZA-LTD-AIST/CN=server/emailAddress=pavel@kusto.com.ru
                serial:00

    Signature Algorithm: md5WithRSAEncryption
        9d:56:4c:55:67:4a:99:b3:ce:40:a5:80:63:a3:1b:67:3e:61:
        54:2c:58:9c:4d:2a:7a:a1:2a:0b:52:2b:f8:60:5a:da:c6:d4:
        9a:08:81:ea:98:4c:58:e3:f8:1f:e3:5b:49:e9:27:f7:14:d7:
        a2:dc:66:45:13:80:60:d7:35:8f:78:23:3c:35:72:90:e2:f9:
        26:09:25:97:5f:02:a0:11:95:9c:93:ef:c6:f3:88:95:91:a3:
        3c:d1:47:ff:e9:99:07:80:5e:c6:55:5f:45:02:b8:1b:b5:c3:
        66:ba:94:8e:80:8d:fd:79:c1:1d:0a:9d:34:73:26:f3:ce:d8:
        7f:5e
-----BEGIN CERTIFICATE-----
MIIDXDCCAsWgAwIBAgIBTDANBgkqhkiG9w0BAQQFADB6MQswCQYDVQQGEwJSVTEL
MAkGA1UECBMCTkExEjAQBgNVBAcTCVRPR0xJQVRUSTEWMBQGA1UEChMNSU5aQS1M
VEQtQUlTVDEPMA0GA1UEAxMGc2VydmVyMSEwHwYJKoZIhvcNAQkBFhJwYXZlbEBr
dXN0by5jb20ucnUwHhcNMTEwNDA2MDc1ODU0WhcNMjEwNDAzMDc1ODU0WjBoMQsw
CQYDVQQGEwJSVTELMAkGA1UECBMCTkExFjAUBgNVBAoTDUlOWkEtTFRELUFJU1Qx
ETAPBgNVBAMUCHBlbF9tdXIzMSEwHwYJKoZIhvcNAQkBFhJwYXZlbEBrdXN0by5j
b20ucnUwgZ8wDQYJKoZIhvcNAQEBBQADgY0AMIGJAoGBAMnueZ5ElvdV/EFdCNyi
mgJUJMzL7I1wqRknJbPavPnBRdgrCNvOUTemDyOUIeLlz5nQIv9AuPB1EBE8aMg5
L5h+F96EDPlj0SIU0vPnn41IxY0PGxQ7jyWMNeq0pDat46sFF2uIdKeP+6JGn8yr
Vsj85L2B3F3Dm3tHpIieb3zVAgMBAAGjggECMIH/MAkGA1UdEwQCMAAwLAYJYIZI
AYb4QgENBB8WHU9wZW5TU0wgR2VuZXJhdGVkIENlcnRpZmljYXRlMB0GA1UdDgQW
BBSBbTDGISR3Pv/v04jeDNL4Ydua5zCBpAYDVR0jBIGcMIGZgBT2fOb7FLf2wV4D
mRKq7UDkRBJ2OKF+pHwwejELMAkGA1UEBhMCUlUxCzAJBgNVBAgTAk5BMRIwEAYD
VQQHEwlUT0dMSUFUVEkxFjAUBgNVBAoTDUlOWkEtTFRELUFJU1QxDzANBgNVBAMT
BnNlcnZlcjEhMB8GCSqGSIb3DQEJARYScGF2ZWxAa3VzdG8uY29tLnJ1ggEAMA0G
CSqGSIb3DQEBBAUAA4GBAJ1WTFVnSpmzzkClgGOjG2c+YVQsWJxNKnqhKgtSK/hg
WtrG1JoIgeqYTFjj+B/jW0npJ/cU16LcZkUTgGDXNY94Izw1cpDi+SYJJZdfAqAR
lZyT78bziJWRozzRR//pmQeAXsZVX0UCuBu1w2a6lI6Ajf15wR0KnTRzJvPO2H9e
-----END CERTIFICATE-----
