Certificate:
    Data:
        Version: 3 (0x2)
        Serial Number: 79 (0x4f)
        Signature Algorithm: md5WithRSAEncryption
        Issuer: C=RU, ST=NA, L=TOGLIATTI, O=INZA-LTD-AIST, CN=server/emailAddress=pavel@kusto.com.ru
        Validity
            Not Before: May 11 09:56:05 2011 GMT
            Not After : May  8 09:56:05 2021 GMT
        Subject: C=RU, ST=NA, O=INZA-LTD-AIST, CN=lenina/emailAddress=pavel@kusto.com.ru
        Subject Public Key Info:
            Public Key Algorithm: rsaEncryption
            RSA Public Key: (1024 bit)
                Modulus (1024 bit):
                    00:cd:0a:1a:7b:9d:ef:8f:31:a6:47:95:a2:67:1b:
                    67:14:63:91:1f:af:67:b3:25:73:f8:be:08:0a:cc:
                    f7:7e:04:6e:1e:91:2f:3e:2d:ea:0e:b2:32:9e:f0:
                    d3:cc:14:83:7f:e7:b6:6c:77:ff:10:58:c4:c7:80:
                    1b:91:78:92:fa:33:12:b7:e1:49:23:f3:b8:a3:07:
                    d5:a0:cd:23:13:0d:c4:f5:ce:2d:7a:4e:9e:23:18:
                    b2:b1:39:80:66:7b:b8:49:9a:9a:da:f4:31:27:97:
                    8d:ef:8c:2e:1c:5e:6a:50:d9:9b:1a:06:6d:89:09:
                    26:45:17:cf:00:a9:59:b2:03
                Exponent: 65537 (0x10001)
        X509v3 extensions:
            X509v3 Basic Constraints: 
                CA:FALSE
            Netscape Comment: 
                OpenSSL Generated Certificate
            X509v3 Subject Key Identifier: 
                9F:A6:E6:5A:FC:9C:D0:71:D0:1B:8D:19:24:EC:9B:F7:FA:C5:79:63
            X509v3 Authority Key Identifier: 
                keyid:F6:7C:E6:FB:14:B7:F6:C1:5E:03:99:12:AA:ED:40:E4:44:12:76:38
                DirName:/C=RU/ST=NA/L=TOGLIATTI/O=INZA-LTD-AIST/CN=server/emailAddress=pavel@kusto.com.ru
                serial:00

    Signature Algorithm: md5WithRSAEncryption
        50:4b:96:ea:62:27:e2:91:45:dc:ef:b0:d0:61:57:07:ce:37:
        4f:48:ba:1a:c2:b5:9c:3c:ae:53:45:96:cf:fc:f4:e6:b5:d0:
        09:46:be:2e:7c:1f:8d:8c:3c:d4:39:8a:3a:17:4d:75:0e:86:
        fb:95:a1:44:c9:8c:55:e2:83:22:a7:84:32:3c:b0:15:14:b7:
        88:82:21:55:8a:f2:64:17:73:5f:69:40:38:48:1e:3e:8e:31:
        cd:8c:f8:cf:c5:4e:4d:fb:2c:ba:cd:42:27:b9:1c:0e:c1:6f:
        6a:10:51:04:c8:b7:79:35:f6:bb:9e:f3:3c:67:37:6e:0f:99:
        ea:b5
-----BEGIN CERTIFICATE-----
MIIDWjCCAsOgAwIBAgIBTzANBgkqhkiG9w0BAQQFADB6MQswCQYDVQQGEwJSVTEL
MAkGA1UECBMCTkExEjAQBgNVBAcTCVRPR0xJQVRUSTEWMBQGA1UEChMNSU5aQS1M
VEQtQUlTVDEPMA0GA1UEAxMGc2VydmVyMSEwHwYJKoZIhvcNAQkBFhJwYXZlbEBr
dXN0by5jb20ucnUwHhcNMTEwNTExMDk1NjA1WhcNMjEwNTA4MDk1NjA1WjBmMQsw
CQYDVQQGEwJSVTELMAkGA1UECBMCTkExFjAUBgNVBAoTDUlOWkEtTFRELUFJU1Qx
DzANBgNVBAMTBmxlbmluYTEhMB8GCSqGSIb3DQEJARYScGF2ZWxAa3VzdG8uY29t
LnJ1MIGfMA0GCSqGSIb3DQEBAQUAA4GNADCBiQKBgQDNChp7ne+PMaZHlaJnG2cU
Y5Efr2ezJXP4vggKzPd+BG4ekS8+LeoOsjKe8NPMFIN/57Zsd/8QWMTHgBuReJL6
MxK34Ukj87ijB9WgzSMTDcT1zi16Tp4jGLKxOYBme7hJmpra9DEnl43vjC4cXmpQ
2ZsaBm2JCSZFF88AqVmyAwIDAQABo4IBAjCB/zAJBgNVHRMEAjAAMCwGCWCGSAGG
+EIBDQQfFh1PcGVuU1NMIEdlbmVyYXRlZCBDZXJ0aWZpY2F0ZTAdBgNVHQ4EFgQU
n6bmWvyc0HHQG40ZJOyb9/rFeWMwgaQGA1UdIwSBnDCBmYAU9nzm+xS39sFeA5kS
qu1A5EQSdjihfqR8MHoxCzAJBgNVBAYTAlJVMQswCQYDVQQIEwJOQTESMBAGA1UE
BxMJVE9HTElBVFRJMRYwFAYDVQQKEw1JTlpBLUxURC1BSVNUMQ8wDQYDVQQDEwZz
ZXJ2ZXIxITAfBgkqhkiG9w0BCQEWEnBhdmVsQGt1c3RvLmNvbS5ydYIBADANBgkq
hkiG9w0BAQQFAAOBgQBQS5bqYifikUXc77DQYVcHzjdPSLoawrWcPK5TRZbP/PTm
tdAJRr4ufB+NjDzUOYo6F011Dob7laFEyYxV4oMip4QyPLAVFLeIgiFVivJkF3Nf
aUA4SB4+jjHNjPjPxU5N+yy6zUInuRwOwW9qEFEEyLd5Nfa7nvM8ZzduD5nqtQ==
-----END CERTIFICATE-----
