Certificate:
    Data:
        Version: 3 (0x2)
        Serial Number: 80 (0x50)
        Signature Algorithm: md5WithRSAEncryption
        Issuer: C=RU, ST=NA, L=TOGLIATTI, O=INZA-LTD-AIST, CN=server/emailAddress=pavel@kusto.com.ru
        Validity
            Not Before: Jun  1 06:27:31 2011 GMT
            Not After : May 29 06:27:31 2021 GMT
        Subject: C=RU, ST=NA, O=INZA-LTD-AIST, CN=gudkov/emailAddress=pavel@kusto.com.ru
        Subject Public Key Info:
            Public Key Algorithm: rsaEncryption
            RSA Public Key: (1024 bit)
                Modulus (1024 bit):
                    00:b2:c8:3f:5f:1d:84:2a:bc:5a:78:e1:3d:77:e4:
                    12:60:38:c2:29:7e:ce:a7:99:71:d2:6e:7b:8b:3b:
                    97:49:66:96:20:d1:87:03:82:c9:a4:e9:9a:ed:3e:
                    4e:00:a4:1a:06:01:3e:d4:1e:73:4e:5d:f4:a0:0f:
                    76:5e:dd:af:09:c9:d1:40:b6:5c:ac:c4:70:8c:88:
                    17:e9:28:bb:b0:8a:88:23:86:88:de:97:45:68:8b:
                    1c:d6:45:e8:ea:23:25:83:af:c9:88:06:9f:f5:8b:
                    cb:71:49:ed:d4:53:23:3e:a9:c3:6f:ab:16:0b:61:
                    7f:e9:73:a4:89:d2:01:59:03
                Exponent: 65537 (0x10001)
        X509v3 extensions:
            X509v3 Basic Constraints: 
                CA:FALSE
            Netscape Comment: 
                OpenSSL Generated Certificate
            X509v3 Subject Key Identifier: 
                1C:D3:16:79:2A:94:4E:19:E5:33:7B:9D:C1:2E:DF:6A:71:22:9C:D1
            X509v3 Authority Key Identifier: 
                keyid:F6:7C:E6:FB:14:B7:F6:C1:5E:03:99:12:AA:ED:40:E4:44:12:76:38
                DirName:/C=RU/ST=NA/L=TOGLIATTI/O=INZA-LTD-AIST/CN=server/emailAddress=pavel@kusto.com.ru
                serial:00

    Signature Algorithm: md5WithRSAEncryption
        0f:3b:67:19:cd:94:a0:92:c0:b1:68:37:42:20:ee:7c:72:4b:
        46:fc:54:87:2a:1c:e9:27:8b:c4:af:62:b4:14:55:a4:b2:1e:
        dd:72:05:9b:36:87:e8:c1:8e:01:e7:9b:8b:41:8f:f6:9b:8e:
        b2:f7:43:a4:49:11:d1:b5:0d:53:c7:04:ba:27:a4:90:c5:4d:
        70:63:23:ab:b6:da:a8:e8:aa:32:32:8c:16:c3:97:2a:a8:e0:
        0f:ff:8f:d9:5c:bb:96:36:bb:7a:e7:34:49:5b:12:19:78:bc:
        45:be:9b:95:08:71:a8:5c:79:82:ec:7b:a6:a7:a7:7a:98:aa:
        b0:2c
-----BEGIN CERTIFICATE-----
MIIDWjCCAsOgAwIBAgIBUDANBgkqhkiG9w0BAQQFADB6MQswCQYDVQQGEwJSVTEL
MAkGA1UECBMCTkExEjAQBgNVBAcTCVRPR0xJQVRUSTEWMBQGA1UEChMNSU5aQS1M
VEQtQUlTVDEPMA0GA1UEAxMGc2VydmVyMSEwHwYJKoZIhvcNAQkBFhJwYXZlbEBr
dXN0by5jb20ucnUwHhcNMTEwNjAxMDYyNzMxWhcNMjEwNTI5MDYyNzMxWjBmMQsw
CQYDVQQGEwJSVTELMAkGA1UECBMCTkExFjAUBgNVBAoTDUlOWkEtTFRELUFJU1Qx
DzANBgNVBAMTBmd1ZGtvdjEhMB8GCSqGSIb3DQEJARYScGF2ZWxAa3VzdG8uY29t
LnJ1MIGfMA0GCSqGSIb3DQEBAQUAA4GNADCBiQKBgQCyyD9fHYQqvFp44T135BJg
OMIpfs6nmXHSbnuLO5dJZpYg0YcDgsmk6ZrtPk4ApBoGAT7UHnNOXfSgD3Ze3a8J
ydFAtlysxHCMiBfpKLuwiogjhojel0VoixzWRejqIyWDr8mIBp/1i8txSe3UUyM+
qcNvqxYLYX/pc6SJ0gFZAwIDAQABo4IBAjCB/zAJBgNVHRMEAjAAMCwGCWCGSAGG
+EIBDQQfFh1PcGVuU1NMIEdlbmVyYXRlZCBDZXJ0aWZpY2F0ZTAdBgNVHQ4EFgQU
HNMWeSqUThnlM3udwS7fanEinNEwgaQGA1UdIwSBnDCBmYAU9nzm+xS39sFeA5kS
qu1A5EQSdjihfqR8MHoxCzAJBgNVBAYTAlJVMQswCQYDVQQIEwJOQTESMBAGA1UE
BxMJVE9HTElBVFRJMRYwFAYDVQQKEw1JTlpBLUxURC1BSVNUMQ8wDQYDVQQDEwZz
ZXJ2ZXIxITAfBgkqhkiG9w0BCQEWEnBhdmVsQGt1c3RvLmNvbS5ydYIBADANBgkq
hkiG9w0BAQQFAAOBgQAPO2cZzZSgksCxaDdCIO58cktG/FSHKhzpJ4vEr2K0FFWk
sh7dcgWbNofowY4B55uLQY/2m46y90OkSRHRtQ1TxwS6J6SQxU1wYyOrttqo6Koy
MowWw5cqqOAP/4/ZXLuWNrt65zRJWxIZeLxFvpuVCHGoXHmC7Hump6d6mKqwLA==
-----END CERTIFICATE-----
