Certificate:
    Data:
        Version: 3 (0x2)
        Serial Number: 90 (0x5a)
        Signature Algorithm: md5WithRSAEncryption
        Issuer: C=RU, ST=NA, L=TOGLIATTI, O=INZA-LTD-AIST, CN=server/emailAddress=pavel@kusto.com.ru
        Validity
            Not Before: Aug 26 09:51:11 2011 GMT
            Not After : Aug 23 09:51:11 2021 GMT
        Subject: C=RU, ST=NA, O=INZA-LTD-AIST, CN=p7_2/emailAddress=pavel@kusto.com.ru
        Subject Public Key Info:
            Public Key Algorithm: rsaEncryption
            RSA Public Key: (1024 bit)
                Modulus (1024 bit):
                    00:ca:6f:a5:71:ca:1e:67:27:da:77:67:4b:c7:c5:
                    61:94:4b:e2:e3:be:90:80:e2:c0:52:1b:dd:0c:7f:
                    8e:a7:f7:e5:60:59:18:fd:a8:5a:27:20:2c:1e:7a:
                    c4:c2:3b:dc:08:f0:93:1d:45:50:b4:4d:ed:6b:8d:
                    d6:97:62:45:9d:fe:9a:7e:53:e9:e8:6e:92:fb:71:
                    c8:38:a6:ff:3e:d5:78:c3:36:d5:60:a2:fa:47:0e:
                    94:80:6c:15:04:c4:d7:8c:99:75:49:05:4f:fd:44:
                    18:2d:f7:d3:e7:90:a2:3e:78:03:06:63:e3:24:36:
                    fc:4f:8e:ec:22:d6:b0:72:29
                Exponent: 65537 (0x10001)
        X509v3 extensions:
            X509v3 Basic Constraints: 
                CA:FALSE
            Netscape Comment: 
                OpenSSL Generated Certificate
            X509v3 Subject Key Identifier: 
                38:86:59:97:AF:06:C3:16:E2:6D:E5:93:38:29:84:A1:7C:88:D4:4B
            X509v3 Authority Key Identifier: 
                keyid:F6:7C:E6:FB:14:B7:F6:C1:5E:03:99:12:AA:ED:40:E4:44:12:76:38
                DirName:/C=RU/ST=NA/L=TOGLIATTI/O=INZA-LTD-AIST/CN=server/emailAddress=pavel@kusto.com.ru
                serial:00

    Signature Algorithm: md5WithRSAEncryption
        ab:6f:29:d1:a5:71:4c:e7:1d:c9:0e:f7:b7:10:15:95:6a:18:
        eb:79:3e:08:31:f7:08:1c:70:10:b6:50:eb:06:82:cc:dc:1b:
        f6:55:60:b3:53:d0:de:ec:8f:2e:8c:c2:ed:32:fb:ec:8e:b1:
        0b:76:9c:85:6f:52:5c:e2:d7:ec:50:48:33:7c:a1:dc:74:c2:
        33:24:db:a3:ab:b1:d3:45:96:e7:67:e2:af:62:9a:d6:a5:11:
        b2:e9:e6:0f:78:e3:c6:68:49:a1:c2:ac:3d:d9:8b:d0:03:b5:
        2d:b4:18:05:a1:e6:67:26:f1:79:1f:66:d5:3e:cf:d2:88:34:
        1a:a1
-----BEGIN CERTIFICATE-----
MIIDWDCCAsGgAwIBAgIBWjANBgkqhkiG9w0BAQQFADB6MQswCQYDVQQGEwJSVTEL
MAkGA1UECBMCTkExEjAQBgNVBAcTCVRPR0xJQVRUSTEWMBQGA1UEChMNSU5aQS1M
VEQtQUlTVDEPMA0GA1UEAxMGc2VydmVyMSEwHwYJKoZIhvcNAQkBFhJwYXZlbEBr
dXN0by5jb20ucnUwHhcNMTEwODI2MDk1MTExWhcNMjEwODIzMDk1MTExWjBkMQsw
CQYDVQQGEwJSVTELMAkGA1UECBMCTkExFjAUBgNVBAoTDUlOWkEtTFRELUFJU1Qx
DTALBgNVBAMUBHA3XzIxITAfBgkqhkiG9w0BCQEWEnBhdmVsQGt1c3RvLmNvbS5y
dTCBnzANBgkqhkiG9w0BAQEFAAOBjQAwgYkCgYEAym+lccoeZyfad2dLx8VhlEvi
476QgOLAUhvdDH+Op/flYFkY/ahaJyAsHnrEwjvcCPCTHUVQtE3ta43Wl2JFnf6a
flPp6G6S+3HIOKb/PtV4wzbVYKL6Rw6UgGwVBMTXjJl1SQVP/UQYLffT55CiPngD
BmPjJDb8T47sItawcikCAwEAAaOCAQIwgf8wCQYDVR0TBAIwADAsBglghkgBhvhC
AQ0EHxYdT3BlblNTTCBHZW5lcmF0ZWQgQ2VydGlmaWNhdGUwHQYDVR0OBBYEFDiG
WZevBsMW4m3lkzgphKF8iNRLMIGkBgNVHSMEgZwwgZmAFPZ85vsUt/bBXgOZEqrt
QOREEnY4oX6kfDB6MQswCQYDVQQGEwJSVTELMAkGA1UECBMCTkExEjAQBgNVBAcT
CVRPR0xJQVRUSTEWMBQGA1UEChMNSU5aQS1MVEQtQUlTVDEPMA0GA1UEAxMGc2Vy
dmVyMSEwHwYJKoZIhvcNAQkBFhJwYXZlbEBrdXN0by5jb20ucnWCAQAwDQYJKoZI
hvcNAQEEBQADgYEAq28p0aVxTOcdyQ73txAVlWoY63k+CDH3CBxwELZQ6waCzNwb
9lVgs1PQ3uyPLozC7TL77I6xC3achW9SXOLX7FBIM3yh3HTCMyTbo6ux00WW52fi
r2Ka1qURsunmD3jjxmhJocKsPdmL0AO1LbQYBaHmZybxeR9m1T7P0og0GqE=
-----END CERTIFICATE-----
