Certificate:
    Data:
        Version: 3 (0x2)
        Serial Number: 93 (0x5d)
        Signature Algorithm: md5WithRSAEncryption
        Issuer: C=RU, ST=NA, L=TOGLIATTI, O=INZA-LTD-AIST, CN=server/emailAddress=pavel@kusto.com.ru
        Validity
            Not Before: Oct  4 07:12:59 2011 GMT
            Not After : Oct  1 07:12:59 2021 GMT
        Subject: C=RU, ST=NA, O=INZA-LTD-AIST, CN=pel_km/emailAddress=pavel@kusto.com.ru
        Subject Public Key Info:
            Public Key Algorithm: rsaEncryption
            RSA Public Key: (1024 bit)
                Modulus (1024 bit):
                    00:b0:94:7a:9e:ae:65:de:d8:14:4b:81:e2:0a:d5:
                    de:8d:fe:28:6e:64:17:9e:7d:12:6d:80:57:b3:73:
                    9e:3b:31:1a:60:0b:c0:1a:56:f1:62:1c:4a:59:a0:
                    d2:1b:b5:e2:20:8d:a1:de:52:15:09:2a:ab:76:30:
                    50:60:f4:22:6e:b3:b9:71:13:56:7d:06:96:c3:7c:
                    2b:03:c6:6d:cd:6d:07:3e:db:1f:f2:03:2e:2c:ae:
                    b6:be:60:c9:74:16:5d:b4:47:9d:ee:a9:08:41:10:
                    de:cd:17:38:1e:a2:c6:37:8c:f6:74:cb:44:09:b2:
                    bb:e4:fc:df:79:26:de:d0:67
                Exponent: 65537 (0x10001)
        X509v3 extensions:
            X509v3 Basic Constraints: 
                CA:FALSE
            Netscape Comment: 
                OpenSSL Generated Certificate
            X509v3 Subject Key Identifier: 
                10:C6:7D:67:BE:A6:15:37:DB:B5:16:16:DE:7C:C4:8D:10:8F:E5:89
            X509v3 Authority Key Identifier: 
                keyid:F6:7C:E6:FB:14:B7:F6:C1:5E:03:99:12:AA:ED:40:E4:44:12:76:38
                DirName:/C=RU/ST=NA/L=TOGLIATTI/O=INZA-LTD-AIST/CN=server/emailAddress=pavel@kusto.com.ru
                serial:00

    Signature Algorithm: md5WithRSAEncryption
        9b:d9:3f:53:d9:84:a4:0c:b6:9a:d0:37:09:7d:bc:54:99:82:
        c4:b2:83:39:72:2f:80:7f:32:4a:ff:11:ae:13:b2:78:e3:57:
        59:f8:c5:41:67:7f:56:85:c9:c8:e0:95:8d:26:7f:c7:31:70:
        e1:ae:eb:7d:70:d9:ff:1e:ec:63:f2:a2:bb:ff:fb:4a:b0:22:
        e0:c4:d5:a7:23:3d:b4:d6:c0:6e:2f:e0:60:8a:f6:0a:72:d2:
        40:b8:06:5c:38:1a:63:f9:20:bc:4e:ba:47:a3:d2:39:2f:14:
        fc:0f:9a:91:1a:ee:76:52:30:20:31:04:6a:52:ca:15:33:f4:
        f6:67
-----BEGIN CERTIFICATE-----
MIIDWjCCAsOgAwIBAgIBXTANBgkqhkiG9w0BAQQFADB6MQswCQYDVQQGEwJSVTEL
MAkGA1UECBMCTkExEjAQBgNVBAcTCVRPR0xJQVRUSTEWMBQGA1UEChMNSU5aQS1M
VEQtQUlTVDEPMA0GA1UEAxMGc2VydmVyMSEwHwYJKoZIhvcNAQkBFhJwYXZlbEBr
dXN0by5jb20ucnUwHhcNMTExMDA0MDcxMjU5WhcNMjExMDAxMDcxMjU5WjBmMQsw
CQYDVQQGEwJSVTELMAkGA1UECBMCTkExFjAUBgNVBAoTDUlOWkEtTFRELUFJU1Qx
DzANBgNVBAMUBnBlbF9rbTEhMB8GCSqGSIb3DQEJARYScGF2ZWxAa3VzdG8uY29t
LnJ1MIGfMA0GCSqGSIb3DQEBAQUAA4GNADCBiQKBgQCwlHqermXe2BRLgeIK1d6N
/ihuZBeefRJtgFezc547MRpgC8AaVvFiHEpZoNIbteIgjaHeUhUJKqt2MFBg9CJu
s7lxE1Z9BpbDfCsDxm3NbQc+2x/yAy4srra+YMl0Fl20R53uqQhBEN7NFzgeosY3
jPZ0y0QJsrvk/N95Jt7QZwIDAQABo4IBAjCB/zAJBgNVHRMEAjAAMCwGCWCGSAGG
+EIBDQQfFh1PcGVuU1NMIEdlbmVyYXRlZCBDZXJ0aWZpY2F0ZTAdBgNVHQ4EFgQU
EMZ9Z76mFTfbtRYW3nzEjRCP5YkwgaQGA1UdIwSBnDCBmYAU9nzm+xS39sFeA5kS
qu1A5EQSdjihfqR8MHoxCzAJBgNVBAYTAlJVMQswCQYDVQQIEwJOQTESMBAGA1UE
BxMJVE9HTElBVFRJMRYwFAYDVQQKEw1JTlpBLUxURC1BSVNUMQ8wDQYDVQQDEwZz
ZXJ2ZXIxITAfBgkqhkiG9w0BCQEWEnBhdmVsQGt1c3RvLmNvbS5ydYIBADANBgkq
hkiG9w0BAQQFAAOBgQCb2T9T2YSkDLaa0DcJfbxUmYLEsoM5ci+AfzJK/xGuE7J4
41dZ+MVBZ39WhcnI4JWNJn/HMXDhrut9cNn/Huxj8qK7//tKsCLgxNWnIz201sBu
L+BgivYKctJAuAZcOBpj+SC8TrpHo9I5LxT8D5qRGu52UjAgMQRqUsoVM/T2Zw==
-----END CERTIFICATE-----
