Certificate:
    Data:
        Version: 3 (0x2)
        Serial Number: 96 (0x60)
        Signature Algorithm: md5WithRSAEncryption
        Issuer: C=RU, ST=NA, L=TOGLIATTI, O=INZA-LTD-AIST, CN=server/emailAddress=pavel@kusto.com.ru
        Validity
            Not Before: Dec  6 07:30:51 2011 GMT
            Not After : Dec  3 07:30:51 2021 GMT
        Subject: C=RU, ST=NA, O=INZA-LTD-AIST, CN=pel20_4/emailAddress=pavel@kusto.com.ru
        Subject Public Key Info:
            Public Key Algorithm: rsaEncryption
            RSA Public Key: (1024 bit)
                Modulus (1024 bit):
                    00:e5:25:7f:0d:37:db:fc:cf:27:1f:07:0f:7a:fb:
                    54:6a:ef:f5:94:50:25:3a:0d:76:ee:c6:41:bc:d2:
                    77:05:35:8d:22:18:b4:44:f3:ab:02:c2:8b:bf:85:
                    9e:bf:32:9b:ef:f6:9e:12:dc:9f:19:8d:d1:45:3d:
                    54:ef:95:96:76:e5:f8:50:ed:a5:7f:68:1d:46:35:
                    9d:69:d4:e3:44:73:e4:a5:e1:fc:a7:03:f2:e4:fb:
                    a1:2f:cb:3f:44:ae:c5:94:2b:ac:0c:71:5d:c6:82:
                    a1:1d:f2:06:22:c0:5b:2c:22:22:8e:eb:5e:15:ae:
                    6b:92:53:8c:5b:5f:64:23:51
                Exponent: 65537 (0x10001)
        X509v3 extensions:
            X509v3 Basic Constraints: 
                CA:FALSE
            Netscape Comment: 
                OpenSSL Generated Certificate
            X509v3 Subject Key Identifier: 
                9E:F5:FC:55:1D:53:95:64:0C:12:86:07:AD:E4:2D:62:20:05:75:C6
            X509v3 Authority Key Identifier: 
                keyid:F6:7C:E6:FB:14:B7:F6:C1:5E:03:99:12:AA:ED:40:E4:44:12:76:38
                DirName:/C=RU/ST=NA/L=TOGLIATTI/O=INZA-LTD-AIST/CN=server/emailAddress=pavel@kusto.com.ru
                serial:00

    Signature Algorithm: md5WithRSAEncryption
        54:21:ec:ed:8e:07:88:cd:66:ad:c9:9e:8c:05:39:7f:9d:75:
        30:4b:3c:6f:cb:09:dc:7f:b1:a7:32:18:f4:6b:c5:51:84:b3:
        d2:26:6d:2f:46:4c:43:e8:56:3e:a9:69:66:ec:7f:48:4e:8b:
        aa:d6:6a:2e:64:e7:40:a6:c0:69:21:b3:ff:44:6f:e2:3d:e0:
        54:2c:65:73:d7:da:4e:ad:0b:11:c4:33:67:ac:38:83:56:8d:
        dd:4a:8e:94:a9:12:7b:b9:29:1d:57:75:3e:17:8a:60:2c:c0:
        21:6a:f8:1f:ca:41:9b:af:eb:32:f0:6d:7f:22:44:0b:02:5a:
        0e:a8
-----BEGIN CERTIFICATE-----
MIIDWzCCAsSgAwIBAgIBYDANBgkqhkiG9w0BAQQFADB6MQswCQYDVQQGEwJSVTEL
MAkGA1UECBMCTkExEjAQBgNVBAcTCVRPR0xJQVRUSTEWMBQGA1UEChMNSU5aQS1M
VEQtQUlTVDEPMA0GA1UEAxMGc2VydmVyMSEwHwYJKoZIhvcNAQkBFhJwYXZlbEBr
dXN0by5jb20ucnUwHhcNMTExMjA2MDczMDUxWhcNMjExMjAzMDczMDUxWjBnMQsw
CQYDVQQGEwJSVTELMAkGA1UECBMCTkExFjAUBgNVBAoTDUlOWkEtTFRELUFJU1Qx
EDAOBgNVBAMUB3BlbDIwXzQxITAfBgkqhkiG9w0BCQEWEnBhdmVsQGt1c3RvLmNv
bS5ydTCBnzANBgkqhkiG9w0BAQEFAAOBjQAwgYkCgYEA5SV/DTfb/M8nHwcPevtU
au/1lFAlOg127sZBvNJ3BTWNIhi0RPOrAsKLv4WevzKb7/aeEtyfGY3RRT1U75WW
duX4UO2lf2gdRjWdadTjRHPkpeH8pwPy5PuhL8s/RK7FlCusDHFdxoKhHfIGIsBb
LCIijuteFa5rklOMW19kI1ECAwEAAaOCAQIwgf8wCQYDVR0TBAIwADAsBglghkgB
hvhCAQ0EHxYdT3BlblNTTCBHZW5lcmF0ZWQgQ2VydGlmaWNhdGUwHQYDVR0OBBYE
FJ71/FUdU5VkDBKGB63kLWIgBXXGMIGkBgNVHSMEgZwwgZmAFPZ85vsUt/bBXgOZ
EqrtQOREEnY4oX6kfDB6MQswCQYDVQQGEwJSVTELMAkGA1UECBMCTkExEjAQBgNV
BAcTCVRPR0xJQVRUSTEWMBQGA1UEChMNSU5aQS1MVEQtQUlTVDEPMA0GA1UEAxMG
c2VydmVyMSEwHwYJKoZIhvcNAQkBFhJwYXZlbEBrdXN0by5jb20ucnWCAQAwDQYJ
KoZIhvcNAQEEBQADgYEAVCHs7Y4HiM1mrcmejAU5f511MEs8b8sJ3H+xpzIY9GvF
UYSz0iZtL0ZMQ+hWPqlpZux/SE6LqtZqLmTnQKbAaSGz/0Rv4j3gVCxlc9faTq0L
EcQzZ6w4g1aN3UqOlKkSe7kpHVd1PheKYCzAIWr4H8pBm6/rMvBtfyJECwJaDqg=
-----END CERTIFICATE-----
