Certificate:
    Data:
        Version: 3 (0x2)
        Serial Number: 102 (0x66)
        Signature Algorithm: md5WithRSAEncryption
        Issuer: C=RU, ST=NA, L=TOGLIATTI, O=INZA-LTD-AIST, CN=server/emailAddress=pavel@kusto.com.ru
        Validity
            Not Before: Mar 12 06:05:45 2012 GMT
            Not After : Mar 10 06:05:45 2022 GMT
        Subject: C=RU, ST=NA, O=INZA-LTD-AIST, CN=p_levt/emailAddress=pavel@kusto.com.ru
        Subject Public Key Info:
            Public Key Algorithm: rsaEncryption
            RSA Public Key: (1024 bit)
                Modulus (1024 bit):
                    00:dd:82:6a:e2:fb:81:69:fc:4d:b4:6d:e1:00:fe:
                    7e:4f:8c:1e:36:e9:89:32:81:01:73:23:10:d6:17:
                    4f:f3:da:28:0c:07:ea:db:39:23:09:ea:79:09:32:
                    23:68:0c:49:fc:71:8a:db:5f:f6:f6:52:fb:78:43:
                    4d:6c:b7:c1:8d:e4:2c:9e:00:a1:d8:2a:58:56:d8:
                    0c:1f:7d:1c:9d:f2:21:b3:65:c0:b0:4c:b9:39:9f:
                    9d:89:be:64:e5:9d:04:34:8f:26:23:92:04:4d:b1:
                    33:93:87:2c:9e:63:47:cb:4b:f9:44:ae:d0:fb:92:
                    a6:1e:7a:ec:ec:e7:9d:3a:27
                Exponent: 65537 (0x10001)
        X509v3 extensions:
            X509v3 Basic Constraints: 
                CA:FALSE
            Netscape Comment: 
                OpenSSL Generated Certificate
            X509v3 Subject Key Identifier: 
                43:EB:11:9D:FF:EC:A2:CA:22:4F:EA:A9:A1:66:A6:CC:ED:13:BE:CE
            X509v3 Authority Key Identifier: 
                keyid:F6:7C:E6:FB:14:B7:F6:C1:5E:03:99:12:AA:ED:40:E4:44:12:76:38
                DirName:/C=RU/ST=NA/L=TOGLIATTI/O=INZA-LTD-AIST/CN=server/emailAddress=pavel@kusto.com.ru
                serial:00

    Signature Algorithm: md5WithRSAEncryption
        a1:75:61:9c:a4:67:07:48:84:31:41:28:f4:f4:50:51:43:d1:
        07:40:ca:5b:f5:39:15:50:30:bb:b1:7e:09:f2:6a:22:92:5d:
        c2:11:bb:f6:1b:29:09:7d:cf:ae:ef:eb:11:1f:37:a8:7d:ec:
        7a:17:82:82:7c:72:d2:54:be:f6:bf:85:c2:f8:cd:84:b6:3f:
        9c:f3:22:64:c8:42:75:2e:a0:c9:c5:e4:ad:54:cd:56:51:bd:
        77:2f:6e:67:9b:19:22:ef:16:6d:18:fd:c8:db:23:ca:46:9d:
        53:56:51:17:2d:23:48:64:31:b4:18:29:a7:d5:f3:ed:91:18:
        b7:dd
-----BEGIN CERTIFICATE-----
MIIDWjCCAsOgAwIBAgIBZjANBgkqhkiG9w0BAQQFADB6MQswCQYDVQQGEwJSVTEL
MAkGA1UECBMCTkExEjAQBgNVBAcTCVRPR0xJQVRUSTEWMBQGA1UEChMNSU5aQS1M
VEQtQUlTVDEPMA0GA1UEAxMGc2VydmVyMSEwHwYJKoZIhvcNAQkBFhJwYXZlbEBr
dXN0by5jb20ucnUwHhcNMTIwMzEyMDYwNTQ1WhcNMjIwMzEwMDYwNTQ1WjBmMQsw
CQYDVQQGEwJSVTELMAkGA1UECBMCTkExFjAUBgNVBAoTDUlOWkEtTFRELUFJU1Qx
DzANBgNVBAMUBnBfbGV2dDEhMB8GCSqGSIb3DQEJARYScGF2ZWxAa3VzdG8uY29t
LnJ1MIGfMA0GCSqGSIb3DQEBAQUAA4GNADCBiQKBgQDdgmri+4Fp/E20beEA/n5P
jB426YkygQFzIxDWF0/z2igMB+rbOSMJ6nkJMiNoDEn8cYrbX/b2Uvt4Q01st8GN
5CyeAKHYKlhW2AwffRyd8iGzZcCwTLk5n52JvmTlnQQ0jyYjkgRNsTOThyyeY0fL
S/lErtD7kqYeeuzs5506JwIDAQABo4IBAjCB/zAJBgNVHRMEAjAAMCwGCWCGSAGG
+EIBDQQfFh1PcGVuU1NMIEdlbmVyYXRlZCBDZXJ0aWZpY2F0ZTAdBgNVHQ4EFgQU
Q+sRnf/sosoiT+qpoWamzO0Tvs4wgaQGA1UdIwSBnDCBmYAU9nzm+xS39sFeA5kS
qu1A5EQSdjihfqR8MHoxCzAJBgNVBAYTAlJVMQswCQYDVQQIEwJOQTESMBAGA1UE
BxMJVE9HTElBVFRJMRYwFAYDVQQKEw1JTlpBLUxURC1BSVNUMQ8wDQYDVQQDEwZz
ZXJ2ZXIxITAfBgkqhkiG9w0BCQEWEnBhdmVsQGt1c3RvLmNvbS5ydYIBADANBgkq
hkiG9w0BAQQFAAOBgQChdWGcpGcHSIQxQSj09FBRQ9EHQMpb9TkVUDC7sX4J8moi
kl3CEbv2GykJfc+u7+sRHzeofex6F4KCfHLSVL72v4XC+M2Etj+c8yJkyEJ1LqDJ
xeStVM1WUb13L25nmxki7xZtGP3I2yPKRp1TVlEXLSNIZDG0GCmn1fPtkRi33Q==
-----END CERTIFICATE-----
