Certificate:
    Data:
        Version: 3 (0x2)
        Serial Number: 105 (0x69)
        Signature Algorithm: md5WithRSAEncryption
        Issuer: C=RU, ST=NA, L=TOGLIATTI, O=INZA-LTD-AIST, CN=server/emailAddress=pavel@kusto.com.ru
        Validity
            Not Before: Mar 27 11:59:16 2012 GMT
            Not After : Mar 25 11:59:16 2022 GMT
        Subject: C=RU, ST=NA, O=INZA-LTD-AIST, CN=p11_4/emailAddress=pavel@kusto.com.ru
        Subject Public Key Info:
            Public Key Algorithm: rsaEncryption
            RSA Public Key: (1024 bit)
                Modulus (1024 bit):
                    00:bb:fe:a8:ef:9b:2a:e3:a8:e9:4e:7c:08:df:a1:
                    e2:98:de:a6:0b:dd:85:fa:86:04:d9:31:13:32:15:
                    ce:d5:54:70:fa:70:86:1a:c0:10:ba:66:ef:ed:43:
                    60:f2:26:f3:1a:be:e3:61:87:23:cf:8f:b7:b4:9f:
                    01:9f:a0:d6:49:45:29:9b:0b:6a:7d:bf:45:4b:34:
                    d2:47:9d:56:1c:c1:04:7d:0e:36:5c:3a:0a:c9:0a:
                    26:be:db:5b:c7:47:7c:fb:b6:42:59:ce:84:67:87:
                    cd:ae:5b:62:db:8b:3a:bd:02:75:38:31:66:8d:6e:
                    ff:62:bc:87:42:e4:41:3c:11
                Exponent: 65537 (0x10001)
        X509v3 extensions:
            X509v3 Basic Constraints: 
                CA:FALSE
            Netscape Comment: 
                OpenSSL Generated Certificate
            X509v3 Subject Key Identifier: 
                06:48:D5:3D:9E:8D:DD:68:5B:15:84:46:8F:6A:0C:1B:C9:D6:6B:E7
            X509v3 Authority Key Identifier: 
                keyid:F6:7C:E6:FB:14:B7:F6:C1:5E:03:99:12:AA:ED:40:E4:44:12:76:38
                DirName:/C=RU/ST=NA/L=TOGLIATTI/O=INZA-LTD-AIST/CN=server/emailAddress=pavel@kusto.com.ru
                serial:00

    Signature Algorithm: md5WithRSAEncryption
        d3:72:5a:2c:3e:8f:30:74:5b:1d:df:69:55:b7:44:5d:a1:11:
        f8:10:ce:32:a4:c0:42:83:bd:bf:b9:35:e6:5b:79:e0:f5:e3:
        67:24:5f:6a:31:a2:91:0a:0f:c4:f5:6b:99:3d:3f:bd:f9:0b:
        1b:4e:bb:39:43:00:48:3a:3f:c9:e6:e4:6b:32:04:b9:4a:2f:
        28:0d:2e:73:00:f9:a1:20:60:8d:0f:0b:d5:cd:f8:ea:d6:63:
        d6:b9:86:7e:ba:e8:f0:76:48:ea:ab:e4:0d:22:c1:95:70:8a:
        d5:56:da:98:6d:46:9f:40:9e:86:b1:a3:a1:94:f5:38:0d:05:
        34:14
-----BEGIN CERTIFICATE-----
MIIDWTCCAsKgAwIBAgIBaTANBgkqhkiG9w0BAQQFADB6MQswCQYDVQQGEwJSVTEL
MAkGA1UECBMCTkExEjAQBgNVBAcTCVRPR0xJQVRUSTEWMBQGA1UEChMNSU5aQS1M
VEQtQUlTVDEPMA0GA1UEAxMGc2VydmVyMSEwHwYJKoZIhvcNAQkBFhJwYXZlbEBr
dXN0by5jb20ucnUwHhcNMTIwMzI3MTE1OTE2WhcNMjIwMzI1MTE1OTE2WjBlMQsw
CQYDVQQGEwJSVTELMAkGA1UECBMCTkExFjAUBgNVBAoTDUlOWkEtTFRELUFJU1Qx
DjAMBgNVBAMUBXAxMV80MSEwHwYJKoZIhvcNAQkBFhJwYXZlbEBrdXN0by5jb20u
cnUwgZ8wDQYJKoZIhvcNAQEBBQADgY0AMIGJAoGBALv+qO+bKuOo6U58CN+h4pje
pgvdhfqGBNkxEzIVztVUcPpwhhrAELpm7+1DYPIm8xq+42GHI8+Pt7SfAZ+g1klF
KZsLan2/RUs00kedVhzBBH0ONlw6CskKJr7bW8dHfPu2QlnOhGeHza5bYtuLOr0C
dTgxZo1u/2K8h0LkQTwRAgMBAAGjggECMIH/MAkGA1UdEwQCMAAwLAYJYIZIAYb4
QgENBB8WHU9wZW5TU0wgR2VuZXJhdGVkIENlcnRpZmljYXRlMB0GA1UdDgQWBBQG
SNU9no3daFsVhEaPagwbydZr5zCBpAYDVR0jBIGcMIGZgBT2fOb7FLf2wV4DmRKq
7UDkRBJ2OKF+pHwwejELMAkGA1UEBhMCUlUxCzAJBgNVBAgTAk5BMRIwEAYDVQQH
EwlUT0dMSUFUVEkxFjAUBgNVBAoTDUlOWkEtTFRELUFJU1QxDzANBgNVBAMTBnNl
cnZlcjEhMB8GCSqGSIb3DQEJARYScGF2ZWxAa3VzdG8uY29tLnJ1ggEAMA0GCSqG
SIb3DQEBBAUAA4GBANNyWiw+jzB0Wx3faVW3RF2hEfgQzjKkwEKDvb+5NeZbeeD1
42ckX2oxopEKD8T1a5k9P735CxtOuzlDAEg6P8nm5GsyBLlKLygNLnMA+aEgYI0P
C9XN+OrWY9a5hn666PB2SOqr5A0iwZVwitVW2phtRp9Anoaxo6GU9TgNBTQU
-----END CERTIFICATE-----
