Certificate:
    Data:
        Version: 3 (0x2)
        Serial Number: 106 (0x6a)
        Signature Algorithm: md5WithRSAEncryption
        Issuer: C=RU, ST=NA, L=TOGLIATTI, O=INZA-LTD-AIST, CN=server/emailAddress=pavel@kusto.com.ru
        Validity
            Not Before: Mar 27 11:59:39 2012 GMT
            Not After : Mar 25 11:59:39 2022 GMT
        Subject: C=RU, ST=NA, O=INZA-LTD-AIST, CN=p_yaros/emailAddress=pavel@kusto.com.ru
        Subject Public Key Info:
            Public Key Algorithm: rsaEncryption
            RSA Public Key: (1024 bit)
                Modulus (1024 bit):
                    00:9d:05:e0:88:52:51:79:9f:1e:7d:46:75:56:6e:
                    21:19:9d:58:b7:e8:79:8e:09:9d:00:bc:03:b0:a7:
                    19:cc:82:ec:63:be:43:2c:4a:f7:91:8e:72:21:98:
                    ea:72:00:a5:c5:74:8b:75:d3:bd:fc:87:06:08:30:
                    0f:a6:30:2e:b4:0f:f3:0b:a0:a6:01:65:13:d6:43:
                    f4:3a:14:87:98:af:c5:19:8f:04:33:29:51:46:cd:
                    01:55:d2:16:d2:82:02:2b:c8:d4:da:97:af:34:1b:
                    a8:25:b5:c1:36:2f:5a:32:11:46:c7:37:9a:5b:f8:
                    e9:ff:e7:8c:d9:c2:1a:35:2b
                Exponent: 65537 (0x10001)
        X509v3 extensions:
            X509v3 Basic Constraints: 
                CA:FALSE
            Netscape Comment: 
                OpenSSL Generated Certificate
            X509v3 Subject Key Identifier: 
                56:1E:4A:8C:5A:1C:50:9E:FA:8C:5F:6E:45:B1:91:27:00:0B:97:78
            X509v3 Authority Key Identifier: 
                keyid:F6:7C:E6:FB:14:B7:F6:C1:5E:03:99:12:AA:ED:40:E4:44:12:76:38
                DirName:/C=RU/ST=NA/L=TOGLIATTI/O=INZA-LTD-AIST/CN=server/emailAddress=pavel@kusto.com.ru
                serial:00

    Signature Algorithm: md5WithRSAEncryption
        30:da:d8:95:ee:c5:92:37:9b:f1:d6:a1:2d:f1:4e:00:7c:e8:
        6e:bf:a9:93:be:b9:1b:32:a2:9a:9e:d6:ce:c0:70:8c:b3:9e:
        28:ab:9f:29:87:5a:de:74:81:66:b3:c0:69:28:af:ab:88:ea:
        57:27:21:c0:af:3b:72:da:af:89:48:d9:e3:d3:b9:ae:d5:e6:
        ac:e5:08:84:bb:e1:b0:88:bb:60:8e:11:7e:ad:55:28:29:ad:
        3b:0b:d3:f8:10:6d:ac:86:86:a1:e9:be:44:d0:0c:b6:1a:4e:
        a0:90:f6:a6:2b:d1:e7:dc:29:c6:aa:57:57:26:80:c3:0c:bc:
        ed:38
-----BEGIN CERTIFICATE-----
MIIDWzCCAsSgAwIBAgIBajANBgkqhkiG9w0BAQQFADB6MQswCQYDVQQGEwJSVTEL
MAkGA1UECBMCTkExEjAQBgNVBAcTCVRPR0xJQVRUSTEWMBQGA1UEChMNSU5aQS1M
VEQtQUlTVDEPMA0GA1UEAxMGc2VydmVyMSEwHwYJKoZIhvcNAQkBFhJwYXZlbEBr
dXN0by5jb20ucnUwHhcNMTIwMzI3MTE1OTM5WhcNMjIwMzI1MTE1OTM5WjBnMQsw
CQYDVQQGEwJSVTELMAkGA1UECBMCTkExFjAUBgNVBAoTDUlOWkEtTFRELUFJU1Qx
EDAOBgNVBAMUB3BfeWFyb3MxITAfBgkqhkiG9w0BCQEWEnBhdmVsQGt1c3RvLmNv
bS5ydTCBnzANBgkqhkiG9w0BAQEFAAOBjQAwgYkCgYEAnQXgiFJReZ8efUZ1Vm4h
GZ1Yt+h5jgmdALwDsKcZzILsY75DLEr3kY5yIZjqcgClxXSLddO9/IcGCDAPpjAu
tA/zC6CmAWUT1kP0OhSHmK/FGY8EMylRRs0BVdIW0oICK8jU2pevNBuoJbXBNi9a
MhFGxzeaW/jp/+eM2cIaNSsCAwEAAaOCAQIwgf8wCQYDVR0TBAIwADAsBglghkgB
hvhCAQ0EHxYdT3BlblNTTCBHZW5lcmF0ZWQgQ2VydGlmaWNhdGUwHQYDVR0OBBYE
FFYeSoxaHFCe+oxfbkWxkScAC5d4MIGkBgNVHSMEgZwwgZmAFPZ85vsUt/bBXgOZ
EqrtQOREEnY4oX6kfDB6MQswCQYDVQQGEwJSVTELMAkGA1UECBMCTkExEjAQBgNV
BAcTCVRPR0xJQVRUSTEWMBQGA1UEChMNSU5aQS1MVEQtQUlTVDEPMA0GA1UEAxMG
c2VydmVyMSEwHwYJKoZIhvcNAQkBFhJwYXZlbEBrdXN0by5jb20ucnWCAQAwDQYJ
KoZIhvcNAQEEBQADgYEAMNrYle7Fkjeb8dahLfFOAHzobr+pk765GzKimp7WzsBw
jLOeKKufKYda3nSBZrPAaSivq4jqVychwK87ctqviUjZ49O5rtXmrOUIhLvhsIi7
YI4Rfq1VKCmtOwvT+BBtrIaGoem+RNAMthpOoJD2pivR59wpxqpXVyaAwwy87Tg=
-----END CERTIFICATE-----
