Certificate:
    Data:
        Version: 3 (0x2)
        Serial Number: 113 (0x71)
        Signature Algorithm: md5WithRSAEncryption
        Issuer: C=RU, ST=NA, L=TOGLIATTI, O=INZA-LTD-AIST, CN=server/emailAddress=pavel@kusto.com.ru
        Validity
            Not Before: Aug 10 12:50:51 2012 GMT
            Not After : Aug  8 12:50:51 2022 GMT
        Subject: C=RU, ST=NA, O=INZA-LTD-AIST, CN=kuznetcova/emailAddress=pavel@kusto.com.ru
        Subject Public Key Info:
            Public Key Algorithm: rsaEncryption
            RSA Public Key: (1024 bit)
                Modulus (1024 bit):
                    00:cc:9d:e7:cf:f9:6a:f5:af:ab:e6:37:41:d7:d4:
                    46:ea:d1:50:ec:89:92:d8:86:0d:6d:bf:93:80:28:
                    3f:57:d2:84:aa:c2:2a:e2:ff:78:b4:08:0e:d8:f5:
                    76:4b:e5:ca:88:a1:83:5a:57:1c:c2:b8:ac:50:74:
                    d1:e7:7a:ff:6b:91:22:57:97:e4:b7:e5:ee:b4:7a:
                    13:bf:ec:5a:a3:d0:08:70:17:af:cf:e5:b6:0b:55:
                    56:96:25:f4:c1:58:95:66:c2:a5:a7:f8:49:3f:33:
                    13:1d:6b:ca:79:b0:97:5c:0a:11:99:ed:4c:24:51:
                    a2:bc:ca:98:d2:05:ad:8d:e3
                Exponent: 65537 (0x10001)
        X509v3 extensions:
            X509v3 Basic Constraints: 
                CA:FALSE
            Netscape Comment: 
                OpenSSL Generated Certificate
            X509v3 Subject Key Identifier: 
                AB:BE:E7:41:60:86:16:E6:BC:11:55:F3:02:5E:8C:9A:BE:83:2F:97
            X509v3 Authority Key Identifier: 
                keyid:F6:7C:E6:FB:14:B7:F6:C1:5E:03:99:12:AA:ED:40:E4:44:12:76:38
                DirName:/C=RU/ST=NA/L=TOGLIATTI/O=INZA-LTD-AIST/CN=server/emailAddress=pavel@kusto.com.ru
                serial:00

    Signature Algorithm: md5WithRSAEncryption
        3c:00:dc:90:f2:cb:8d:af:0e:47:eb:c1:b3:6a:05:73:81:51:
        54:9a:a9:61:6f:e8:00:94:aa:3b:69:66:1c:32:cb:1c:eb:a3:
        44:9b:19:2d:1b:6b:70:38:57:21:31:a2:73:3c:47:6d:77:89:
        68:83:d0:a1:39:b5:f2:3a:14:7a:dd:65:8d:41:3f:2e:fa:3e:
        01:75:65:a2:66:e2:08:cc:e5:78:79:46:2f:f9:9d:c3:ee:b5:
        02:3d:aa:45:12:1f:4f:75:e7:98:d3:61:86:bd:1e:7f:71:04:
        74:ac:99:45:2b:11:42:a9:c0:db:b7:46:12:1f:cb:dd:de:12:
        c4:97
-----BEGIN CERTIFICATE-----
MIIDXjCCAsegAwIBAgIBcTANBgkqhkiG9w0BAQQFADB6MQswCQYDVQQGEwJSVTEL
MAkGA1UECBMCTkExEjAQBgNVBAcTCVRPR0xJQVRUSTEWMBQGA1UEChMNSU5aQS1M
VEQtQUlTVDEPMA0GA1UEAxMGc2VydmVyMSEwHwYJKoZIhvcNAQkBFhJwYXZlbEBr
dXN0by5jb20ucnUwHhcNMTIwODEwMTI1MDUxWhcNMjIwODA4MTI1MDUxWjBqMQsw
CQYDVQQGEwJSVTELMAkGA1UECBMCTkExFjAUBgNVBAoTDUlOWkEtTFRELUFJU1Qx
EzARBgNVBAMTCmt1em5ldGNvdmExITAfBgkqhkiG9w0BCQEWEnBhdmVsQGt1c3Rv
LmNvbS5ydTCBnzANBgkqhkiG9w0BAQEFAAOBjQAwgYkCgYEAzJ3nz/lq9a+r5jdB
19RG6tFQ7ImS2IYNbb+TgCg/V9KEqsIq4v94tAgO2PV2S+XKiKGDWlccwrisUHTR
53r/a5EiV5fkt+XutHoTv+xao9AIcBevz+W2C1VWliX0wViVZsKlp/hJPzMTHWvK
ebCXXAoRme1MJFGivMqY0gWtjeMCAwEAAaOCAQIwgf8wCQYDVR0TBAIwADAsBglg
hkgBhvhCAQ0EHxYdT3BlblNTTCBHZW5lcmF0ZWQgQ2VydGlmaWNhdGUwHQYDVR0O
BBYEFKu+50FghhbmvBFV8wJejJq+gy+XMIGkBgNVHSMEgZwwgZmAFPZ85vsUt/bB
XgOZEqrtQOREEnY4oX6kfDB6MQswCQYDVQQGEwJSVTELMAkGA1UECBMCTkExEjAQ
BgNVBAcTCVRPR0xJQVRUSTEWMBQGA1UEChMNSU5aQS1MVEQtQUlTVDEPMA0GA1UE
AxMGc2VydmVyMSEwHwYJKoZIhvcNAQkBFhJwYXZlbEBrdXN0by5jb20ucnWCAQAw
DQYJKoZIhvcNAQEEBQADgYEAPADckPLLja8OR+vBs2oFc4FRVJqpYW/oAJSqO2lm
HDLLHOujRJsZLRtrcDhXITGiczxHbXeJaIPQoTm18joUet1ljUE/Lvo+AXVlombi
CMzleHlGL/mdw+61Aj2qRRIfT3XnmNNhhr0ef3EEdKyZRSsRQqnA27dGEh/L3d4S
xJc=
-----END CERTIFICATE-----
