Certificate:
    Data:
        Version: 3 (0x2)
        Serial Number: 118 (0x76)
        Signature Algorithm: md5WithRSAEncryption
        Issuer: C=RU, ST=NA, L=TOGLIATTI, O=INZA-LTD-AIST, CN=server/emailAddress=pavel@kusto.com.ru
        Validity
            Not Before: Sep 10 10:35:43 2012 GMT
            Not After : Sep  8 10:35:43 2022 GMT
        Subject: C=RU, ST=NA, O=INZA-LTD-AIST, CN=p12_4/emailAddress=pavel@kusto.com.ru
        Subject Public Key Info:
            Public Key Algorithm: rsaEncryption
            RSA Public Key: (1024 bit)
                Modulus (1024 bit):
                    00:b3:a2:b9:df:f3:9f:96:29:3c:d8:dd:52:c0:e8:
                    46:4d:b7:58:f5:97:d1:65:11:d5:5e:ea:8d:e8:af:
                    6d:ef:f9:c7:5d:53:77:2b:dd:93:0b:2a:8e:45:d0:
                    f1:2a:79:cc:f5:d0:00:fe:07:13:3b:2e:dc:4a:48:
                    07:ce:f8:bd:b8:cf:4b:90:d6:87:af:1e:55:eb:b4:
                    e4:48:23:9b:62:d7:10:2c:6b:03:f2:f5:29:3f:6c:
                    7e:e3:75:32:50:bd:24:f1:92:68:f1:47:0b:5a:ec:
                    da:1b:13:0b:66:eb:5c:34:0b:b9:15:c0:af:89:59:
                    f2:f1:53:70:f8:d5:06:24:b7
                Exponent: 65537 (0x10001)
        X509v3 extensions:
            X509v3 Basic Constraints: 
                CA:FALSE
            Netscape Comment: 
                OpenSSL Generated Certificate
            X509v3 Subject Key Identifier: 
                0C:3D:8A:CC:1A:0E:E7:1D:F7:3C:65:1E:D8:27:05:48:CC:8C:A9:65
            X509v3 Authority Key Identifier: 
                keyid:F6:7C:E6:FB:14:B7:F6:C1:5E:03:99:12:AA:ED:40:E4:44:12:76:38
                DirName:/C=RU/ST=NA/L=TOGLIATTI/O=INZA-LTD-AIST/CN=server/emailAddress=pavel@kusto.com.ru
                serial:00

    Signature Algorithm: md5WithRSAEncryption
        af:3d:8b:a7:0c:30:d3:0f:3f:55:9a:28:3a:0b:a4:36:61:09:
        2b:95:5e:50:51:d6:88:34:1f:cc:d8:2c:07:bf:32:2b:7b:c9:
        bf:3a:5f:20:e7:7e:91:d5:76:bb:ae:24:91:ac:b7:d4:e6:35:
        b2:40:51:92:4d:ae:0d:f9:4b:eb:6b:75:34:4c:ba:21:5f:8e:
        d4:ee:9d:99:5d:b9:7f:5d:d6:87:e1:39:b8:76:aa:b3:91:0e:
        9e:de:61:be:55:18:f9:8a:7d:ab:4b:2e:b7:e1:dc:a8:e6:ef:
        1b:eb:97:73:0e:0a:28:b3:b9:41:82:cc:9a:4b:75:1d:d0:64:
        82:83
-----BEGIN CERTIFICATE-----
MIIDWTCCAsKgAwIBAgIBdjANBgkqhkiG9w0BAQQFADB6MQswCQYDVQQGEwJSVTEL
MAkGA1UECBMCTkExEjAQBgNVBAcTCVRPR0xJQVRUSTEWMBQGA1UEChMNSU5aQS1M
VEQtQUlTVDEPMA0GA1UEAxMGc2VydmVyMSEwHwYJKoZIhvcNAQkBFhJwYXZlbEBr
dXN0by5jb20ucnUwHhcNMTIwOTEwMTAzNTQzWhcNMjIwOTA4MTAzNTQzWjBlMQsw
CQYDVQQGEwJSVTELMAkGA1UECBMCTkExFjAUBgNVBAoTDUlOWkEtTFRELUFJU1Qx
DjAMBgNVBAMUBXAxMl80MSEwHwYJKoZIhvcNAQkBFhJwYXZlbEBrdXN0by5jb20u
cnUwgZ8wDQYJKoZIhvcNAQEBBQADgY0AMIGJAoGBALOiud/zn5YpPNjdUsDoRk23
WPWX0WUR1V7qjeivbe/5x11TdyvdkwsqjkXQ8Sp5zPXQAP4HEzsu3EpIB874vbjP
S5DWh68eVeu05Egjm2LXECxrA/L1KT9sfuN1MlC9JPGSaPFHC1rs2hsTC2brXDQL
uRXAr4lZ8vFTcPjVBiS3AgMBAAGjggECMIH/MAkGA1UdEwQCMAAwLAYJYIZIAYb4
QgENBB8WHU9wZW5TU0wgR2VuZXJhdGVkIENlcnRpZmljYXRlMB0GA1UdDgQWBBQM
PYrMGg7nHfc8ZR7YJwVIzIypZTCBpAYDVR0jBIGcMIGZgBT2fOb7FLf2wV4DmRKq
7UDkRBJ2OKF+pHwwejELMAkGA1UEBhMCUlUxCzAJBgNVBAgTAk5BMRIwEAYDVQQH
EwlUT0dMSUFUVEkxFjAUBgNVBAoTDUlOWkEtTFRELUFJU1QxDzANBgNVBAMTBnNl
cnZlcjEhMB8GCSqGSIb3DQEJARYScGF2ZWxAa3VzdG8uY29tLnJ1ggEAMA0GCSqG
SIb3DQEBBAUAA4GBAK89i6cMMNMPP1WaKDoLpDZhCSuVXlBR1og0H8zYLAe/Mit7
yb86XyDnfpHVdruuJJGst9TmNbJAUZJNrg35S+trdTRMuiFfjtTunZlduX9d1ofh
Obh2qrORDp7eYb5VGPmKfatLLrfh3Kjm7xvrl3MOCiizuUGCzJpLdR3QZIKD
-----END CERTIFICATE-----
