Certificate:
    Data:
        Version: 3 (0x2)
        Serial Number: 120 (0x78)
        Signature Algorithm: md5WithRSAEncryption
        Issuer: C=RU, ST=NA, L=TOGLIATTI, O=INZA-LTD-AIST, CN=server/emailAddress=pavel@kusto.com.ru
        Validity
            Not Before: Sep 20 06:44:43 2012 GMT
            Not After : Sep 18 06:44:43 2022 GMT
        Subject: C=RU, ST=NA, O=INZA-LTD-AIST, CN=p_leningrad/emailAddress=pavel@kusto.com.ru
        Subject Public Key Info:
            Public Key Algorithm: rsaEncryption
            RSA Public Key: (1024 bit)
                Modulus (1024 bit):
                    00:e9:a6:21:b8:97:0e:1a:49:6c:37:39:14:d1:79:
                    ba:72:dd:de:04:01:de:8c:71:3c:56:dc:a2:89:24:
                    0d:03:19:2e:f3:59:d6:f3:70:c9:ab:8f:37:28:a7:
                    ac:61:f9:1d:40:48:8c:be:16:6a:60:a7:96:05:08:
                    dc:46:1e:8d:56:54:9e:68:e2:0c:af:9e:7f:98:a7:
                    d2:27:1e:84:25:1b:40:72:7e:fb:fc:13:d1:49:d5:
                    be:50:2b:c5:98:f2:c1:6f:f2:29:79:17:65:5b:af:
                    9a:37:1d:b3:6e:4f:05:f3:0e:ce:81:32:f7:e7:54:
                    f3:77:a5:a6:05:dc:8f:4e:83
                Exponent: 65537 (0x10001)
        X509v3 extensions:
            X509v3 Basic Constraints: 
                CA:FALSE
            Netscape Comment: 
                OpenSSL Generated Certificate
            X509v3 Subject Key Identifier: 
                9D:C3:79:FD:4D:C4:3A:97:50:79:A6:1C:FE:96:06:76:13:A2:89:AA
            X509v3 Authority Key Identifier: 
                keyid:F6:7C:E6:FB:14:B7:F6:C1:5E:03:99:12:AA:ED:40:E4:44:12:76:38
                DirName:/C=RU/ST=NA/L=TOGLIATTI/O=INZA-LTD-AIST/CN=server/emailAddress=pavel@kusto.com.ru
                serial:00

    Signature Algorithm: md5WithRSAEncryption
        4f:78:88:28:1a:a3:8a:84:04:3a:5d:8a:0c:a4:b1:8f:ab:91:
        41:35:e0:65:3d:8f:9b:6c:36:9e:47:be:4a:a4:d9:7a:80:7a:
        84:3a:37:03:47:1a:30:a9:ba:bd:f2:29:34:e6:9a:28:38:5d:
        5d:de:ac:5d:11:8e:7f:07:88:c0:68:30:99:b0:08:fa:f3:1f:
        64:13:00:42:31:63:4e:3d:fd:ad:9f:81:9e:78:5c:82:ab:55:
        12:b6:08:4a:25:1d:ec:40:36:17:97:d1:b8:9c:55:b2:d0:63:
        29:2e:c0:35:cf:c7:df:95:5e:4f:21:19:a2:a2:95:c6:10:df:
        fb:75
-----BEGIN CERTIFICATE-----
MIIDXzCCAsigAwIBAgIBeDANBgkqhkiG9w0BAQQFADB6MQswCQYDVQQGEwJSVTEL
MAkGA1UECBMCTkExEjAQBgNVBAcTCVRPR0xJQVRUSTEWMBQGA1UEChMNSU5aQS1M
VEQtQUlTVDEPMA0GA1UEAxMGc2VydmVyMSEwHwYJKoZIhvcNAQkBFhJwYXZlbEBr
dXN0by5jb20ucnUwHhcNMTIwOTIwMDY0NDQzWhcNMjIwOTE4MDY0NDQzWjBrMQsw
CQYDVQQGEwJSVTELMAkGA1UECBMCTkExFjAUBgNVBAoTDUlOWkEtTFRELUFJU1Qx
FDASBgNVBAMUC3BfbGVuaW5ncmFkMSEwHwYJKoZIhvcNAQkBFhJwYXZlbEBrdXN0
by5jb20ucnUwgZ8wDQYJKoZIhvcNAQEBBQADgY0AMIGJAoGBAOmmIbiXDhpJbDc5
FNF5unLd3gQB3oxxPFbcookkDQMZLvNZ1vNwyauPNyinrGH5HUBIjL4WamCnlgUI
3EYejVZUnmjiDK+ef5in0icehCUbQHJ++/wT0UnVvlArxZjywW/yKXkXZVuvmjcd
s25PBfMOzoEy9+dU83elpgXcj06DAgMBAAGjggECMIH/MAkGA1UdEwQCMAAwLAYJ
YIZIAYb4QgENBB8WHU9wZW5TU0wgR2VuZXJhdGVkIENlcnRpZmljYXRlMB0GA1Ud
DgQWBBSdw3n9TcQ6l1B5phz+lgZ2E6KJqjCBpAYDVR0jBIGcMIGZgBT2fOb7FLf2
wV4DmRKq7UDkRBJ2OKF+pHwwejELMAkGA1UEBhMCUlUxCzAJBgNVBAgTAk5BMRIw
EAYDVQQHEwlUT0dMSUFUVEkxFjAUBgNVBAoTDUlOWkEtTFRELUFJU1QxDzANBgNV
BAMTBnNlcnZlcjEhMB8GCSqGSIb3DQEJARYScGF2ZWxAa3VzdG8uY29tLnJ1ggEA
MA0GCSqGSIb3DQEBBAUAA4GBAE94iCgao4qEBDpdigyksY+rkUE14GU9j5tsNp5H
vkqk2XqAeoQ6NwNHGjCpur3yKTTmmig4XV3erF0Rjn8HiMBoMJmwCPrzH2QTAEIx
Y049/a2fgZ54XIKrVRK2CEolHexANheX0bicVbLQYykuwDXPx9+VXk8hGaKilcYQ
3/t1
-----END CERTIFICATE-----
