Certificate:
    Data:
        Version: 3 (0x2)
        Serial Number: 121 (0x79)
        Signature Algorithm: md5WithRSAEncryption
        Issuer: C=RU, ST=NA, L=TOGLIATTI, O=INZA-LTD-AIST, CN=server/emailAddress=pavel@kusto.com.ru
        Validity
            Not Before: Sep 21 06:30:20 2012 GMT
            Not After : Sep 19 06:30:20 2022 GMT
        Subject: C=RU, ST=NA, O=INZA-LTD-AIST, CN=p17_2/emailAddress=pavel@kusto.com.ru
        Subject Public Key Info:
            Public Key Algorithm: rsaEncryption
            RSA Public Key: (1024 bit)
                Modulus (1024 bit):
                    00:b4:60:71:09:94:26:34:de:7f:a9:62:76:4f:01:
                    9b:14:f7:a2:75:88:a7:58:bf:be:92:87:a5:a8:fa:
                    52:41:92:b0:c9:85:86:11:72:07:97:80:4a:93:89:
                    ef:27:59:d2:cf:01:8f:e5:be:3e:c4:65:5c:7b:e7:
                    92:ba:e3:a5:fc:55:36:fd:08:f0:32:2c:9d:41:57:
                    b4:42:35:f3:24:ab:f4:aa:1c:35:9b:b2:0d:88:fc:
                    87:c7:c0:93:8c:dd:ff:9f:c5:f4:ca:e8:25:bc:5e:
                    50:5f:52:dd:57:c8:90:03:13:74:58:05:69:d9:6d:
                    93:a6:81:eb:99:20:db:f8:4f
                Exponent: 65537 (0x10001)
        X509v3 extensions:
            X509v3 Basic Constraints: 
                CA:FALSE
            Netscape Comment: 
                OpenSSL Generated Certificate
            X509v3 Subject Key Identifier: 
                67:D7:C6:22:20:EB:01:A2:60:E9:C7:14:2D:59:90:56:D4:7C:EA:E3
            X509v3 Authority Key Identifier: 
                keyid:F6:7C:E6:FB:14:B7:F6:C1:5E:03:99:12:AA:ED:40:E4:44:12:76:38
                DirName:/C=RU/ST=NA/L=TOGLIATTI/O=INZA-LTD-AIST/CN=server/emailAddress=pavel@kusto.com.ru
                serial:00

    Signature Algorithm: md5WithRSAEncryption
        00:29:bb:62:c5:ee:35:b8:c4:4b:8f:6c:34:0b:0b:21:a6:44:
        bf:fb:67:cb:95:c2:4c:b5:60:dc:4f:92:c9:2b:e0:ff:fb:e0:
        42:f2:95:fe:35:1e:da:9e:e8:d0:bf:15:87:6a:c9:23:6b:66:
        ff:33:2e:be:30:04:fb:29:f7:51:c6:28:64:45:6e:fc:ea:4f:
        ac:ac:a1:b7:28:2f:1e:7c:6d:c6:f8:cd:f4:8d:25:cb:67:41:
        c6:31:61:0a:14:ff:72:7c:8a:f1:5e:a3:e9:c4:62:df:02:bf:
        d5:66:6d:c0:e8:18:4c:08:07:e9:1e:3c:61:1e:ea:8a:88:df:
        ac:45
-----BEGIN CERTIFICATE-----
MIIDWTCCAsKgAwIBAgIBeTANBgkqhkiG9w0BAQQFADB6MQswCQYDVQQGEwJSVTEL
MAkGA1UECBMCTkExEjAQBgNVBAcTCVRPR0xJQVRUSTEWMBQGA1UEChMNSU5aQS1M
VEQtQUlTVDEPMA0GA1UEAxMGc2VydmVyMSEwHwYJKoZIhvcNAQkBFhJwYXZlbEBr
dXN0by5jb20ucnUwHhcNMTIwOTIxMDYzMDIwWhcNMjIwOTE5MDYzMDIwWjBlMQsw
CQYDVQQGEwJSVTELMAkGA1UECBMCTkExFjAUBgNVBAoTDUlOWkEtTFRELUFJU1Qx
DjAMBgNVBAMUBXAxN18yMSEwHwYJKoZIhvcNAQkBFhJwYXZlbEBrdXN0by5jb20u
cnUwgZ8wDQYJKoZIhvcNAQEBBQADgY0AMIGJAoGBALRgcQmUJjTef6lidk8BmxT3
onWIp1i/vpKHpaj6UkGSsMmFhhFyB5eASpOJ7ydZ0s8Bj+W+PsRlXHvnkrrjpfxV
Nv0I8DIsnUFXtEI18ySr9KocNZuyDYj8h8fAk4zd/5/F9MroJbxeUF9S3VfIkAMT
dFgFadltk6aB65kg2/hPAgMBAAGjggECMIH/MAkGA1UdEwQCMAAwLAYJYIZIAYb4
QgENBB8WHU9wZW5TU0wgR2VuZXJhdGVkIENlcnRpZmljYXRlMB0GA1UdDgQWBBRn
18YiIOsBomDpxxQtWZBW1Hzq4zCBpAYDVR0jBIGcMIGZgBT2fOb7FLf2wV4DmRKq
7UDkRBJ2OKF+pHwwejELMAkGA1UEBhMCUlUxCzAJBgNVBAgTAk5BMRIwEAYDVQQH
EwlUT0dMSUFUVEkxFjAUBgNVBAoTDUlOWkEtTFRELUFJU1QxDzANBgNVBAMTBnNl
cnZlcjEhMB8GCSqGSIb3DQEJARYScGF2ZWxAa3VzdG8uY29tLnJ1ggEAMA0GCSqG
SIb3DQEBBAUAA4GBAAApu2LF7jW4xEuPbDQLCyGmRL/7Z8uVwky1YNxPkskr4P/7
4ELylf41Htqe6NC/FYdqySNrZv8zLr4wBPsp91HGKGRFbvzqT6ysobcoLx58bcb4
zfSNJctnQcYxYQoU/3J8ivFeo+nEYt8Cv9VmbcDoGEwIB+kePGEe6oqI36xF
-----END CERTIFICATE-----
