Certificate:
    Data:
        Version: 3 (0x2)
        Serial Number: 126 (0x7e)
        Signature Algorithm: md5WithRSAEncryption
        Issuer: C=RU, ST=NA, L=TOGLIATTI, O=INZA-LTD-AIST, CN=server/emailAddress=pavel@kusto.com.ru
        Validity
            Not Before: Oct  1 10:16:08 2012 GMT
            Not After : Sep 29 10:16:08 2022 GMT
        Subject: C=RU, ST=NA, O=INZA-LTD-AIST, CN=p8_3/emailAddress=pavel@kusto.com.ru
        Subject Public Key Info:
            Public Key Algorithm: rsaEncryption
            RSA Public Key: (1024 bit)
                Modulus (1024 bit):
                    00:ce:db:b8:94:7c:50:a3:05:e2:22:f1:1a:9d:5b:
                    59:22:6c:66:7d:db:ad:d2:e6:f6:2d:42:61:0f:99:
                    ca:54:8d:e2:7a:bd:b1:28:e8:c1:31:f0:cc:b9:11:
                    2f:25:8c:7c:a7:07:f3:9a:2e:8c:42:e5:55:dc:b5:
                    50:13:59:0d:b0:e9:5c:4e:e0:42:d6:fa:e9:fd:ad:
                    62:ec:14:ba:33:db:b2:d2:b5:52:70:ec:f9:9b:73:
                    4f:cb:ba:39:a9:61:54:dd:6f:cb:4f:b9:61:e2:fe:
                    7b:dd:b0:10:05:64:9f:2a:a6:06:0d:9f:7e:6e:fa:
                    5e:92:c2:d4:59:24:c0:43:41
                Exponent: 65537 (0x10001)
        X509v3 extensions:
            X509v3 Basic Constraints: 
                CA:FALSE
            Netscape Comment: 
                OpenSSL Generated Certificate
            X509v3 Subject Key Identifier: 
                55:FC:ED:69:AE:72:F8:8D:8A:BF:1F:DD:36:C5:B0:D5:5D:F8:1F:02
            X509v3 Authority Key Identifier: 
                keyid:F6:7C:E6:FB:14:B7:F6:C1:5E:03:99:12:AA:ED:40:E4:44:12:76:38
                DirName:/C=RU/ST=NA/L=TOGLIATTI/O=INZA-LTD-AIST/CN=server/emailAddress=pavel@kusto.com.ru
                serial:00

    Signature Algorithm: md5WithRSAEncryption
        6e:9d:69:be:c8:bf:63:b7:61:c0:74:e5:ae:d0:54:dd:ba:1d:
        52:6c:aa:05:eb:40:2a:bf:04:32:18:50:71:ad:e7:ce:5b:a2:
        37:5f:8e:f0:f6:9c:63:f1:55:56:a4:66:7c:7b:03:3a:8f:2b:
        e5:2d:fa:12:0e:bc:4a:65:0b:bb:8d:d1:0c:8b:5a:79:81:9c:
        a2:6a:0e:a5:71:f0:e9:ce:a5:d9:37:ce:dc:95:0e:dd:06:eb:
        5c:38:a4:ac:34:fc:da:05:18:7d:71:b5:2c:34:c7:11:d8:ee:
        74:51:70:4c:57:c2:92:60:b9:40:ef:5a:67:40:66:d8:6f:b6:
        99:8e
-----BEGIN CERTIFICATE-----
MIIDWDCCAsGgAwIBAgIBfjANBgkqhkiG9w0BAQQFADB6MQswCQYDVQQGEwJSVTEL
MAkGA1UECBMCTkExEjAQBgNVBAcTCVRPR0xJQVRUSTEWMBQGA1UEChMNSU5aQS1M
VEQtQUlTVDEPMA0GA1UEAxMGc2VydmVyMSEwHwYJKoZIhvcNAQkBFhJwYXZlbEBr
dXN0by5jb20ucnUwHhcNMTIxMDAxMTAxNjA4WhcNMjIwOTI5MTAxNjA4WjBkMQsw
CQYDVQQGEwJSVTELMAkGA1UECBMCTkExFjAUBgNVBAoTDUlOWkEtTFRELUFJU1Qx
DTALBgNVBAMUBHA4XzMxITAfBgkqhkiG9w0BCQEWEnBhdmVsQGt1c3RvLmNvbS5y
dTCBnzANBgkqhkiG9w0BAQEFAAOBjQAwgYkCgYEAztu4lHxQowXiIvEanVtZImxm
fdut0ub2LUJhD5nKVI3ier2xKOjBMfDMuREvJYx8pwfzmi6MQuVV3LVQE1kNsOlc
TuBC1vrp/a1i7BS6M9uy0rVScOz5m3NPy7o5qWFU3W/LT7lh4v573bAQBWSfKqYG
DZ9+bvpeksLUWSTAQ0ECAwEAAaOCAQIwgf8wCQYDVR0TBAIwADAsBglghkgBhvhC
AQ0EHxYdT3BlblNTTCBHZW5lcmF0ZWQgQ2VydGlmaWNhdGUwHQYDVR0OBBYEFFX8
7WmucviNir8f3TbFsNVd+B8CMIGkBgNVHSMEgZwwgZmAFPZ85vsUt/bBXgOZEqrt
QOREEnY4oX6kfDB6MQswCQYDVQQGEwJSVTELMAkGA1UECBMCTkExEjAQBgNVBAcT
CVRPR0xJQVRUSTEWMBQGA1UEChMNSU5aQS1MVEQtQUlTVDEPMA0GA1UEAxMGc2Vy
dmVyMSEwHwYJKoZIhvcNAQkBFhJwYXZlbEBrdXN0by5jb20ucnWCAQAwDQYJKoZI
hvcNAQEEBQADgYEAbp1pvsi/Y7dhwHTlrtBU3bodUmyqBetAKr8EMhhQca3nzlui
N1+O8PacY/FVVqRmfHsDOo8r5S36Eg68SmULu43RDItaeYGcomoOpXHw6c6l2TfO
3JUO3QbrXDikrDT82gUYfXG1LDTHEdjudFFwTFfCkmC5QO9aZ0Bm2G+2mY4=
-----END CERTIFICATE-----
