Certificate:
    Data:
        Version: 3 (0x2)
        Serial Number: 129 (0x81)
        Signature Algorithm: md5WithRSAEncryption
        Issuer: C=RU, ST=NA, L=TOGLIATTI, O=INZA-LTD-AIST, CN=server/emailAddress=pavel@kusto.com.ru
        Validity
            Not Before: Oct 10 12:06:52 2012 GMT
            Not After : Oct  8 12:06:52 2022 GMT
        Subject: C=RU, ST=NA, O=INZA-LTD-AIST, CN=sklad/emailAddress=pavel@kusto.com.ru
        Subject Public Key Info:
            Public Key Algorithm: rsaEncryption
            RSA Public Key: (1024 bit)
                Modulus (1024 bit):
                    00:da:46:99:37:b0:9d:f8:f6:6f:49:da:9b:8e:b9:
                    ec:24:ed:3f:6f:47:9d:17:39:bb:a4:9c:26:1e:be:
                    84:1a:02:9a:f3:e2:6a:bf:22:83:44:ce:61:a6:e1:
                    4b:20:a5:fd:f2:ae:3c:0c:f2:af:26:af:a2:11:00:
                    11:d1:2b:9a:4b:1a:80:f4:49:4e:18:25:7f:a0:f4:
                    f5:fb:cd:95:94:cb:de:be:7c:88:b9:95:d0:91:24:
                    5c:77:bd:2f:4e:ae:2c:01:10:4a:50:ef:6d:09:c1:
                    2a:fb:3d:7e:d0:2e:92:46:9d:b3:f9:04:74:ab:83:
                    4d:66:52:04:65:19:d9:fc:4f
                Exponent: 65537 (0x10001)
        X509v3 extensions:
            X509v3 Basic Constraints: 
                CA:FALSE
            Netscape Comment: 
                OpenSSL Generated Certificate
            X509v3 Subject Key Identifier: 
                07:8C:6F:0C:3F:2A:C9:7A:57:46:AD:3F:2B:86:6A:67:21:A3:EB:4D
            X509v3 Authority Key Identifier: 
                keyid:F6:7C:E6:FB:14:B7:F6:C1:5E:03:99:12:AA:ED:40:E4:44:12:76:38
                DirName:/C=RU/ST=NA/L=TOGLIATTI/O=INZA-LTD-AIST/CN=server/emailAddress=pavel@kusto.com.ru
                serial:00

    Signature Algorithm: md5WithRSAEncryption
        ae:23:3a:dd:ea:4a:ff:8e:a3:c0:1b:8d:fe:31:6f:e5:06:b4:
        13:07:62:16:b8:bd:52:e2:95:d8:90:af:97:f0:f1:f0:d0:0b:
        20:03:ba:fa:b1:69:44:6f:0f:35:97:07:10:15:84:ff:e1:c4:
        06:35:6a:e9:62:ab:0f:10:3b:ac:d4:92:e9:01:18:44:45:de:
        80:c3:27:25:91:27:aa:75:3c:2c:d9:5c:38:7e:d6:4d:bd:4d:
        26:6a:01:6e:9d:d8:d3:54:fa:30:ff:c4:87:2e:d8:c3:83:8d:
        1f:f9:42:0b:c2:43:b0:e9:fe:85:34:84:8e:3f:34:a8:89:33:
        29:10
-----BEGIN CERTIFICATE-----
MIIDWjCCAsOgAwIBAgICAIEwDQYJKoZIhvcNAQEEBQAwejELMAkGA1UEBhMCUlUx
CzAJBgNVBAgTAk5BMRIwEAYDVQQHEwlUT0dMSUFUVEkxFjAUBgNVBAoTDUlOWkEt
TFRELUFJU1QxDzANBgNVBAMTBnNlcnZlcjEhMB8GCSqGSIb3DQEJARYScGF2ZWxA
a3VzdG8uY29tLnJ1MB4XDTEyMTAxMDEyMDY1MloXDTIyMTAwODEyMDY1MlowZTEL
MAkGA1UEBhMCUlUxCzAJBgNVBAgTAk5BMRYwFAYDVQQKEw1JTlpBLUxURC1BSVNU
MQ4wDAYDVQQDEwVza2xhZDEhMB8GCSqGSIb3DQEJARYScGF2ZWxAa3VzdG8uY29t
LnJ1MIGfMA0GCSqGSIb3DQEBAQUAA4GNADCBiQKBgQDaRpk3sJ349m9J2puOuewk
7T9vR50XObuknCYevoQaAprz4mq/IoNEzmGm4Usgpf3yrjwM8q8mr6IRABHRK5pL
GoD0SU4YJX+g9PX7zZWUy96+fIi5ldCRJFx3vS9OriwBEEpQ720JwSr7PX7QLpJG
nbP5BHSrg01mUgRlGdn8TwIDAQABo4IBAjCB/zAJBgNVHRMEAjAAMCwGCWCGSAGG
+EIBDQQfFh1PcGVuU1NMIEdlbmVyYXRlZCBDZXJ0aWZpY2F0ZTAdBgNVHQ4EFgQU
B4xvDD8qyXpXRq0/K4ZqZyGj600wgaQGA1UdIwSBnDCBmYAU9nzm+xS39sFeA5kS
qu1A5EQSdjihfqR8MHoxCzAJBgNVBAYTAlJVMQswCQYDVQQIEwJOQTESMBAGA1UE
BxMJVE9HTElBVFRJMRYwFAYDVQQKEw1JTlpBLUxURC1BSVNUMQ8wDQYDVQQDEwZz
ZXJ2ZXIxITAfBgkqhkiG9w0BCQEWEnBhdmVsQGt1c3RvLmNvbS5ydYIBADANBgkq
hkiG9w0BAQQFAAOBgQCuIzrd6kr/jqPAG43+MW/lBrQTB2IWuL1S4pXYkK+X8PHw
0AsgA7r6sWlEbw81lwcQFYT/4cQGNWrpYqsPEDus1JLpARhERd6AwyclkSeqdTws
2Vw4ftZNvU0magFundjTVPow/8SHLtjDg40f+UILwkOw6f6FNISOPzSoiTMpEA==
-----END CERTIFICATE-----
