Certificate:
    Data:
        Version: 3 (0x2)
        Serial Number: 131 (0x83)
        Signature Algorithm: md5WithRSAEncryption
        Issuer: C=RU, ST=NA, L=TOGLIATTI, O=INZA-LTD-AIST, CN=server/emailAddress=pavel@kusto.com.ru
        Validity
            Not Before: Nov 14 05:50:31 2012 GMT
            Not After : Nov 12 05:50:31 2022 GMT
        Subject: C=RU, ST=NA, O=INZA-LTD-AIST, CN=p_viselki/emailAddress=pavel@kusto.com.ru
        Subject Public Key Info:
            Public Key Algorithm: rsaEncryption
            RSA Public Key: (1024 bit)
                Modulus (1024 bit):
                    00:9b:5d:6e:d4:de:37:54:e0:e0:86:08:2a:e8:27:
                    a7:f9:d1:d5:5e:55:c3:f5:63:eb:13:2d:83:2f:cd:
                    33:e3:85:f6:ad:22:87:f3:78:33:ef:d1:84:9c:bb:
                    2a:7e:f9:0e:ea:74:9b:0a:7a:6d:f0:05:af:47:36:
                    46:fb:32:cc:bb:3f:01:9d:9a:35:b1:aa:af:f6:af:
                    e7:18:4f:37:b0:3f:92:bd:1c:b8:cd:cc:e3:f5:e1:
                    44:22:a2:fd:02:ee:fc:fd:bf:5f:03:0f:ba:71:39:
                    01:35:3e:48:97:0d:22:47:56:e1:7e:c6:6b:3c:ba:
                    96:66:7f:ad:14:90:84:71:55
                Exponent: 65537 (0x10001)
        X509v3 extensions:
            X509v3 Basic Constraints: 
                CA:FALSE
            Netscape Comment: 
                OpenSSL Generated Certificate
            X509v3 Subject Key Identifier: 
                84:0C:57:7F:6A:DD:0C:C7:80:DC:D8:2A:7C:A4:BD:3B:7E:83:4E:A5
            X509v3 Authority Key Identifier: 
                keyid:F6:7C:E6:FB:14:B7:F6:C1:5E:03:99:12:AA:ED:40:E4:44:12:76:38
                DirName:/C=RU/ST=NA/L=TOGLIATTI/O=INZA-LTD-AIST/CN=server/emailAddress=pavel@kusto.com.ru
                serial:00

    Signature Algorithm: md5WithRSAEncryption
        a4:bd:63:50:3b:83:7b:d7:c1:25:27:84:e9:6c:cd:db:d6:df:
        20:b0:f8:8a:e2:12:8d:f8:32:de:62:0a:ce:14:a2:05:81:17:
        4b:ac:c8:b7:48:e7:41:e2:5e:06:b3:e8:62:15:08:f5:40:31:
        1e:57:ca:fa:63:71:15:b0:b7:9d:2b:f3:99:b9:3c:4b:d8:d4:
        76:54:89:05:0e:79:73:a2:40:bd:35:80:4f:1f:ba:e2:12:8e:
        ed:95:a5:8e:43:f8:08:56:a0:49:c5:7d:46:1a:1a:6e:32:4d:
        69:d6:d4:98:36:61:ea:b1:62:ec:7b:33:fa:cc:18:90:64:b4:
        55:71
-----BEGIN CERTIFICATE-----
MIIDXjCCAsegAwIBAgICAIMwDQYJKoZIhvcNAQEEBQAwejELMAkGA1UEBhMCUlUx
CzAJBgNVBAgTAk5BMRIwEAYDVQQHEwlUT0dMSUFUVEkxFjAUBgNVBAoTDUlOWkEt
TFRELUFJU1QxDzANBgNVBAMTBnNlcnZlcjEhMB8GCSqGSIb3DQEJARYScGF2ZWxA
a3VzdG8uY29tLnJ1MB4XDTEyMTExNDA1NTAzMVoXDTIyMTExMjA1NTAzMVowaTEL
MAkGA1UEBhMCUlUxCzAJBgNVBAgTAk5BMRYwFAYDVQQKEw1JTlpBLUxURC1BSVNU
MRIwEAYDVQQDFAlwX3Zpc2Vsa2kxITAfBgkqhkiG9w0BCQEWEnBhdmVsQGt1c3Rv
LmNvbS5ydTCBnzANBgkqhkiG9w0BAQEFAAOBjQAwgYkCgYEAm11u1N43VODghggq
6Cen+dHVXlXD9WPrEy2DL80z44X2rSKH83gz79GEnLsqfvkO6nSbCnpt8AWvRzZG
+zLMuz8BnZo1saqv9q/nGE83sD+SvRy4zczj9eFEIqL9Au78/b9fAw+6cTkBNT5I
lw0iR1bhfsZrPLqWZn+tFJCEcVUCAwEAAaOCAQIwgf8wCQYDVR0TBAIwADAsBglg
hkgBhvhCAQ0EHxYdT3BlblNTTCBHZW5lcmF0ZWQgQ2VydGlmaWNhdGUwHQYDVR0O
BBYEFIQMV39q3QzHgNzYKnykvTt+g06lMIGkBgNVHSMEgZwwgZmAFPZ85vsUt/bB
XgOZEqrtQOREEnY4oX6kfDB6MQswCQYDVQQGEwJSVTELMAkGA1UECBMCTkExEjAQ
BgNVBAcTCVRPR0xJQVRUSTEWMBQGA1UEChMNSU5aQS1MVEQtQUlTVDEPMA0GA1UE
AxMGc2VydmVyMSEwHwYJKoZIhvcNAQkBFhJwYXZlbEBrdXN0by5jb20ucnWCAQAw
DQYJKoZIhvcNAQEEBQADgYEApL1jUDuDe9fBJSeE6WzN29bfILD4iuISjfgy3mIK
zhSiBYEXS6zIt0jnQeJeBrPoYhUI9UAxHlfK+mNxFbC3nSvzmbk8S9jUdlSJBQ55
c6JAvTWATx+64hKO7ZWljkP4CFagScV9RhoabjJNadbUmDZh6rFi7Hsz+swYkGS0
VXE=
-----END CERTIFICATE-----
