Certificate:
    Data:
        Version: 3 (0x2)
        Serial Number: 135 (0x87)
        Signature Algorithm: md5WithRSAEncryption
        Issuer: C=RU, ST=NA, L=TOGLIATTI, O=INZA-LTD-AIST, CN=server/emailAddress=pavel@kusto.com.ru
        Validity
            Not Before: Dec 25 11:07:57 2012 GMT
            Not After : Dec 23 11:07:57 2022 GMT
        Subject: C=RU, ST=NA, O=INZA-LTD-AIST, CN=gms/emailAddress=pavel@kusto.com.ru
        Subject Public Key Info:
            Public Key Algorithm: rsaEncryption
            RSA Public Key: (1024 bit)
                Modulus (1024 bit):
                    00:c2:00:fa:f4:b3:40:7b:3f:75:76:a7:42:66:b0:
                    48:91:78:84:bb:dc:0c:34:9e:d4:38:ca:6a:de:17:
                    53:a9:d9:9d:8c:f7:2f:53:93:c2:54:c2:c4:c0:ce:
                    88:83:0a:78:73:6e:30:01:2d:7f:7f:ca:36:a2:4d:
                    e1:6c:e9:4b:a0:3f:7b:df:0e:ad:75:4e:44:a9:0d:
                    b4:8d:8e:8b:51:a3:d7:b0:a0:ab:02:fd:91:4b:39:
                    1e:11:a9:68:da:60:08:70:c9:6f:b3:a4:de:82:21:
                    ee:9e:f4:7b:5e:a9:0f:c0:88:41:18:bf:84:f2:01:
                    a2:61:d0:a7:9b:35:eb:b4:f1
                Exponent: 65537 (0x10001)
        X509v3 extensions:
            X509v3 Basic Constraints: 
                CA:FALSE
            Netscape Comment: 
                OpenSSL Generated Certificate
            X509v3 Subject Key Identifier: 
                C1:73:9E:92:DF:C7:A0:79:46:5F:78:A5:CD:43:56:58:41:32:D7:FB
            X509v3 Authority Key Identifier: 
                keyid:F6:7C:E6:FB:14:B7:F6:C1:5E:03:99:12:AA:ED:40:E4:44:12:76:38
                DirName:/C=RU/ST=NA/L=TOGLIATTI/O=INZA-LTD-AIST/CN=server/emailAddress=pavel@kusto.com.ru
                serial:00

    Signature Algorithm: md5WithRSAEncryption
        77:2d:03:a7:4f:8b:81:b7:de:7c:ab:41:99:d4:c4:fb:f5:cb:
        5c:1b:6f:ca:e6:b2:5d:77:f4:24:bd:49:8d:28:4c:f1:13:3c:
        a8:d0:28:9f:28:cf:52:e7:e4:1a:dd:7c:71:9c:a1:c3:c0:8d:
        43:92:19:81:61:d3:ec:f0:0c:f9:e4:52:e4:02:98:e0:ec:de:
        be:54:18:c6:d7:7f:0c:2d:d3:14:f3:fb:b6:36:fd:7a:45:49:
        c0:b6:95:54:28:21:83:c4:6b:df:42:4b:4f:c4:48:ec:07:cf:
        ed:7a:2f:09:43:a6:6f:9d:69:98:e4:e5:4f:cc:86:45:f8:a1:
        3f:72
-----BEGIN CERTIFICATE-----
MIIDWDCCAsGgAwIBAgICAIcwDQYJKoZIhvcNAQEEBQAwejELMAkGA1UEBhMCUlUx
CzAJBgNVBAgTAk5BMRIwEAYDVQQHEwlUT0dMSUFUVEkxFjAUBgNVBAoTDUlOWkEt
TFRELUFJU1QxDzANBgNVBAMTBnNlcnZlcjEhMB8GCSqGSIb3DQEJARYScGF2ZWxA
a3VzdG8uY29tLnJ1MB4XDTEyMTIyNTExMDc1N1oXDTIyMTIyMzExMDc1N1owYzEL
MAkGA1UEBhMCUlUxCzAJBgNVBAgTAk5BMRYwFAYDVQQKEw1JTlpBLUxURC1BSVNU
MQwwCgYDVQQDEwNnbXMxITAfBgkqhkiG9w0BCQEWEnBhdmVsQGt1c3RvLmNvbS5y
dTCBnzANBgkqhkiG9w0BAQEFAAOBjQAwgYkCgYEAwgD69LNAez91dqdCZrBIkXiE
u9wMNJ7UOMpq3hdTqdmdjPcvU5PCVMLEwM6Igwp4c24wAS1/f8o2ok3hbOlLoD97
3w6tdU5EqQ20jY6LUaPXsKCrAv2RSzkeEalo2mAIcMlvs6TegiHunvR7XqkPwIhB
GL+E8gGiYdCnmzXrtPECAwEAAaOCAQIwgf8wCQYDVR0TBAIwADAsBglghkgBhvhC
AQ0EHxYdT3BlblNTTCBHZW5lcmF0ZWQgQ2VydGlmaWNhdGUwHQYDVR0OBBYEFMFz
npLfx6B5Rl94pc1DVlhBMtf7MIGkBgNVHSMEgZwwgZmAFPZ85vsUt/bBXgOZEqrt
QOREEnY4oX6kfDB6MQswCQYDVQQGEwJSVTELMAkGA1UECBMCTkExEjAQBgNVBAcT
CVRPR0xJQVRUSTEWMBQGA1UEChMNSU5aQS1MVEQtQUlTVDEPMA0GA1UEAxMGc2Vy
dmVyMSEwHwYJKoZIhvcNAQkBFhJwYXZlbEBrdXN0by5jb20ucnWCAQAwDQYJKoZI
hvcNAQEEBQADgYEAdy0Dp0+LgbfefKtBmdTE+/XLXBtvyuayXXf0JL1JjShM8RM8
qNAonyjPUufkGt18cZyhw8CNQ5IZgWHT7PAM+eRS5AKY4OzevlQYxtd/DC3TFPP7
tjb9ekVJwLaVVCghg8Rr30JLT8RI7AfP7XovCUOmb51pmOTlT8yGRfihP3I=
-----END CERTIFICATE-----
