Certificate:
    Data:
        Version: 3 (0x2)
        Serial Number: 137 (0x89)
        Signature Algorithm: md5WithRSAEncryption
        Issuer: C=RU, ST=NA, L=TOGLIATTI, O=INZA-LTD-AIST, CN=server/emailAddress=pavel@kusto.com.ru
        Validity
            Not Before: Feb 12 07:12:47 2013 GMT
            Not After : Feb 10 07:12:47 2023 GMT
        Subject: C=RU, ST=NA, O=INZA-LTD-AIST, CN=pelican4_2/emailAddress=pavel@kusto.com.ru
        Subject Public Key Info:
            Public Key Algorithm: rsaEncryption
            RSA Public Key: (1024 bit)
                Modulus (1024 bit):
                    00:c0:25:b7:52:ac:78:5d:1c:85:ff:74:78:a5:4e:
                    09:d5:77:02:2e:96:96:1c:9b:83:c7:8e:06:e5:6d:
                    16:5f:fc:da:6a:97:d3:1f:46:7e:37:e8:58:2e:fd:
                    8b:a7:01:d1:cb:43:c7:de:d4:ad:4c:be:ad:d4:4a:
                    1a:b1:a2:a7:53:6c:cc:f9:8f:61:e7:22:90:78:ab:
                    e8:55:79:88:58:ab:2e:58:a1:45:3c:31:60:16:cc:
                    a4:9d:47:14:f1:1a:c2:ea:c0:52:07:2b:17:f8:96:
                    6a:48:07:4b:9c:db:9c:5e:24:96:a5:22:fd:a7:84:
                    dd:ed:07:49:00:63:81:b7:bd
                Exponent: 65537 (0x10001)
        X509v3 extensions:
            X509v3 Basic Constraints: 
                CA:FALSE
            Netscape Comment: 
                OpenSSL Generated Certificate
            X509v3 Subject Key Identifier: 
                88:B5:33:6A:FA:38:4D:6D:B1:F4:C8:C8:57:7C:A3:10:33:D8:4E:73
            X509v3 Authority Key Identifier: 
                keyid:F6:7C:E6:FB:14:B7:F6:C1:5E:03:99:12:AA:ED:40:E4:44:12:76:38
                DirName:/C=RU/ST=NA/L=TOGLIATTI/O=INZA-LTD-AIST/CN=server/emailAddress=pavel@kusto.com.ru
                serial:00

    Signature Algorithm: md5WithRSAEncryption
        56:c8:66:d4:0f:86:f4:ec:e9:89:60:34:b3:a6:ce:ab:c8:48:
        f1:00:8a:7c:08:58:01:e2:9f:d3:42:ae:4b:bd:38:4a:17:4d:
        e9:9d:89:a6:f5:9d:6b:7d:34:52:50:85:54:de:5e:70:17:3b:
        fe:ac:d1:eb:3f:63:a6:27:5e:b6:cf:d6:91:91:d4:5d:fc:09:
        eb:8e:95:3b:97:a9:da:a1:e6:d3:cb:dd:09:51:b9:56:1c:42:
        60:68:2f:76:f2:f9:01:11:62:c4:2b:42:78:e6:fc:da:33:fd:
        ca:69:58:7a:3a:77:7a:7f:18:64:95:04:5f:29:f9:fb:ae:07:
        02:34
-----BEGIN CERTIFICATE-----
MIIDXzCCAsigAwIBAgICAIkwDQYJKoZIhvcNAQEEBQAwejELMAkGA1UEBhMCUlUx
CzAJBgNVBAgTAk5BMRIwEAYDVQQHEwlUT0dMSUFUVEkxFjAUBgNVBAoTDUlOWkEt
TFRELUFJU1QxDzANBgNVBAMTBnNlcnZlcjEhMB8GCSqGSIb3DQEJARYScGF2ZWxA
a3VzdG8uY29tLnJ1MB4XDTEzMDIxMjA3MTI0N1oXDTIzMDIxMDA3MTI0N1owajEL
MAkGA1UEBhMCUlUxCzAJBgNVBAgTAk5BMRYwFAYDVQQKEw1JTlpBLUxURC1BSVNU
MRMwEQYDVQQDFApwZWxpY2FuNF8yMSEwHwYJKoZIhvcNAQkBFhJwYXZlbEBrdXN0
by5jb20ucnUwgZ8wDQYJKoZIhvcNAQEBBQADgY0AMIGJAoGBAMAlt1KseF0chf90
eKVOCdV3Ai6Wlhybg8eOBuVtFl/82mqX0x9GfjfoWC79i6cB0ctDx97UrUy+rdRK
GrGip1NszPmPYecikHir6FV5iFirLlihRTwxYBbMpJ1HFPEawurAUgcrF/iWakgH
S5zbnF4klqUi/aeE3e0HSQBjgbe9AgMBAAGjggECMIH/MAkGA1UdEwQCMAAwLAYJ
YIZIAYb4QgENBB8WHU9wZW5TU0wgR2VuZXJhdGVkIENlcnRpZmljYXRlMB0GA1Ud
DgQWBBSItTNq+jhNbbH0yMhXfKMQM9hOczCBpAYDVR0jBIGcMIGZgBT2fOb7FLf2
wV4DmRKq7UDkRBJ2OKF+pHwwejELMAkGA1UEBhMCUlUxCzAJBgNVBAgTAk5BMRIw
EAYDVQQHEwlUT0dMSUFUVEkxFjAUBgNVBAoTDUlOWkEtTFRELUFJU1QxDzANBgNV
BAMTBnNlcnZlcjEhMB8GCSqGSIb3DQEJARYScGF2ZWxAa3VzdG8uY29tLnJ1ggEA
MA0GCSqGSIb3DQEBBAUAA4GBAFbIZtQPhvTs6YlgNLOmzqvISPEAinwIWAHin9NC
rku9OEoXTemdiab1nWt9NFJQhVTeXnAXO/6s0es/Y6YnXrbP1pGR1F38CeuOlTuX
qdqh5tPL3QlRuVYcQmBoL3by+QERYsQrQnjm/Noz/cppWHo6d3p/GGSVBF8p+fuu
BwI0
-----END CERTIFICATE-----
