Certificate:
    Data:
        Version: 3 (0x2)
        Serial Number: 142 (0x8e)
        Signature Algorithm: md5WithRSAEncryption
        Issuer: C=RU, ST=NA, L=TOGLIATTI, O=INZA-LTD-AIST, CN=server/emailAddress=pavel@kusto.com.ru
        Validity
            Not Before: Sep 12 06:27:06 2013 GMT
            Not After : Sep 10 06:27:06 2023 GMT
        Subject: C=RU, ST=NA, O=INZA-LTD-AIST, CN=gvilava/emailAddress=pavel@kusto.com.ru
        Subject Public Key Info:
            Public Key Algorithm: rsaEncryption
            RSA Public Key: (1024 bit)
                Modulus (1024 bit):
                    00:fe:12:7d:ac:a1:6e:c8:bb:ef:c3:4b:67:4a:4a:
                    6a:1d:92:b3:a6:2e:c0:af:8c:d0:3f:9c:e8:33:17:
                    9b:0e:53:df:23:fc:28:34:d1:12:a0:20:67:a3:0e:
                    2d:64:95:70:27:f2:24:1b:79:27:67:f1:4b:31:63:
                    10:17:85:db:43:a8:10:83:ad:55:9a:bc:5c:0f:cd:
                    7b:65:26:53:4c:5a:58:7b:44:82:eb:4b:73:cf:3a:
                    0f:dc:3a:de:78:31:2c:11:dd:a7:d9:69:fd:73:51:
                    5c:ca:f1:85:ed:78:cc:51:ff:7b:60:f0:aa:ce:af:
                    83:fe:21:2e:ea:c0:33:56:03
                Exponent: 65537 (0x10001)
        X509v3 extensions:
            X509v3 Basic Constraints: 
                CA:FALSE
            Netscape Comment: 
                OpenSSL Generated Certificate
            X509v3 Subject Key Identifier: 
                A1:BC:F2:54:BF:AB:C9:C0:8B:9A:30:57:4A:A0:D4:79:0B:00:F4:5A
            X509v3 Authority Key Identifier: 
                keyid:F6:7C:E6:FB:14:B7:F6:C1:5E:03:99:12:AA:ED:40:E4:44:12:76:38
                DirName:/C=RU/ST=NA/L=TOGLIATTI/O=INZA-LTD-AIST/CN=server/emailAddress=pavel@kusto.com.ru
                serial:00

    Signature Algorithm: md5WithRSAEncryption
        50:ae:ba:68:39:ab:07:e3:33:9c:c0:92:c3:4d:18:9c:8f:18:
        d3:5b:fb:3d:85:15:79:dc:52:8a:fc:1b:c2:05:a4:6a:92:80:
        9a:3a:b8:95:c2:d1:da:40:6b:8f:ab:28:4d:3a:8d:b1:9a:94:
        ef:5d:23:89:4c:dc:d7:f3:09:10:e2:e7:bf:5b:d4:cc:7c:e0:
        0e:f5:f6:c1:26:4e:02:7d:33:ae:74:f6:94:f4:de:61:07:6c:
        4f:d6:3b:dc:f0:17:6a:c2:51:cc:c0:40:ce:03:d5:2d:93:ec:
        2a:0f:78:7a:9a:a1:e3:08:3d:81:fc:bb:d9:ff:81:2f:5d:dc:
        7d:2c
-----BEGIN CERTIFICATE-----
MIIDXDCCAsWgAwIBAgICAI4wDQYJKoZIhvcNAQEEBQAwejELMAkGA1UEBhMCUlUx
CzAJBgNVBAgTAk5BMRIwEAYDVQQHEwlUT0dMSUFUVEkxFjAUBgNVBAoTDUlOWkEt
TFRELUFJU1QxDzANBgNVBAMTBnNlcnZlcjEhMB8GCSqGSIb3DQEJARYScGF2ZWxA
a3VzdG8uY29tLnJ1MB4XDTEzMDkxMjA2MjcwNloXDTIzMDkxMDA2MjcwNlowZzEL
MAkGA1UEBhMCUlUxCzAJBgNVBAgTAk5BMRYwFAYDVQQKEw1JTlpBLUxURC1BSVNU
MRAwDgYDVQQDEwdndmlsYXZhMSEwHwYJKoZIhvcNAQkBFhJwYXZlbEBrdXN0by5j
b20ucnUwgZ8wDQYJKoZIhvcNAQEBBQADgY0AMIGJAoGBAP4Sfayhbsi778NLZ0pK
ah2Ss6YuwK+M0D+c6DMXmw5T3yP8KDTREqAgZ6MOLWSVcCfyJBt5J2fxSzFjEBeF
20OoEIOtVZq8XA/Ne2UmU0xaWHtEgutLc886D9w63ngxLBHdp9lp/XNRXMrxhe14
zFH/e2Dwqs6vg/4hLurAM1YDAgMBAAGjggECMIH/MAkGA1UdEwQCMAAwLAYJYIZI
AYb4QgENBB8WHU9wZW5TU0wgR2VuZXJhdGVkIENlcnRpZmljYXRlMB0GA1UdDgQW
BBShvPJUv6vJwIuaMFdKoNR5CwD0WjCBpAYDVR0jBIGcMIGZgBT2fOb7FLf2wV4D
mRKq7UDkRBJ2OKF+pHwwejELMAkGA1UEBhMCUlUxCzAJBgNVBAgTAk5BMRIwEAYD
VQQHEwlUT0dMSUFUVEkxFjAUBgNVBAoTDUlOWkEtTFRELUFJU1QxDzANBgNVBAMT
BnNlcnZlcjEhMB8GCSqGSIb3DQEJARYScGF2ZWxAa3VzdG8uY29tLnJ1ggEAMA0G
CSqGSIb3DQEBBAUAA4GBAFCuumg5qwfjM5zAksNNGJyPGNNb+z2FFXncUor8G8IF
pGqSgJo6uJXC0dpAa4+rKE06jbGalO9dI4lM3NfzCRDi579b1Mx84A719sEmTgJ9
M6509pT03mEHbE/WO9zwF2rCUczAQM4D1S2T7CoPeHqaoeMIPYH8u9n/gS9d3H0s
-----END CERTIFICATE-----
