Certificate:
    Data:
        Version: 3 (0x2)
        Serial Number: 151 (0x97)
    Signature Algorithm: md5WithRSAEncryption
        Issuer: C=RU, ST=NA, L=TOGLIATTI, O=INZA-LTD-AIST, CN=server/emailAddress=pavel@kusto.com.ru
        Validity
            Not Before: Feb 17 07:45:47 2014 GMT
            Not After : Feb 15 07:45:47 2024 GMT
        Subject: C=RU, ST=NA, O=INZA-LTD-AIST, CN=p_vasilevka/emailAddress=pavel@kusto.com.ru
        Subject Public Key Info:
            Public Key Algorithm: rsaEncryption
                Public-Key: (1024 bit)
                Modulus:
                    00:de:c8:c8:0a:5a:9c:9e:89:42:0d:20:b3:0e:60:
                    ff:45:98:7b:3f:82:0a:41:e7:75:bf:0a:a2:cd:e9:
                    a7:8b:3d:48:70:7f:60:ef:db:24:89:1a:c9:fc:4c:
                    2a:49:20:4b:6d:e1:01:97:69:f4:0a:4e:c3:d4:63:
                    35:a8:c9:d8:2e:b7:46:33:94:df:c9:b4:2d:0e:fe:
                    6b:5c:76:c2:9a:28:52:9c:a8:ea:5a:14:92:33:06:
                    ea:c0:9a:c0:a9:1e:e0:2c:9f:d4:14:e7:09:03:ae:
                    22:54:e4:8c:4b:18:fe:4c:0b:71:99:d5:2c:81:e4:
                    4a:11:1a:de:ec:22:e9:b8:f9
                Exponent: 65537 (0x10001)
        X509v3 extensions:
            X509v3 Basic Constraints: 
                CA:FALSE
            Netscape Comment: 
                OpenSSL Generated Certificate
            X509v3 Subject Key Identifier: 
                DA:ED:F4:7E:1E:31:26:D7:81:3E:CD:78:D3:74:0A:64:65:B7:DB:45
            X509v3 Authority Key Identifier: 
                keyid:F6:7C:E6:FB:14:B7:F6:C1:5E:03:99:12:AA:ED:40:E4:44:12:76:38
                DirName:/C=RU/ST=NA/L=TOGLIATTI/O=INZA-LTD-AIST/CN=server/emailAddress=pavel@kusto.com.ru
                serial:00

    Signature Algorithm: md5WithRSAEncryption
         4e:f0:5e:44:c9:69:3d:5b:d6:ba:6b:e4:20:6e:cd:da:d8:7a:
         34:2e:28:33:5d:92:f4:37:35:42:a5:09:6d:27:01:14:04:69:
         3d:c5:6c:a7:82:65:12:b3:80:df:c2:ed:39:88:f8:52:1b:ef:
         d5:8f:ab:34:68:d4:de:5b:97:bd:20:45:06:7a:0b:38:a8:ce:
         31:be:a7:5f:3b:e0:01:bb:01:fb:51:ef:db:7b:36:b9:1f:07:
         b4:8b:2d:d8:fc:40:4f:43:83:75:c1:09:37:e8:ed:02:c1:43:
         ba:b8:ff:97:cc:79:a3:cc:6c:19:34:10:14:7f:0f:29:7c:ca:
         64:9f
-----BEGIN CERTIFICATE-----
MIIDYDCCAsmgAwIBAgICAJcwDQYJKoZIhvcNAQEEBQAwejELMAkGA1UEBhMCUlUx
CzAJBgNVBAgTAk5BMRIwEAYDVQQHEwlUT0dMSUFUVEkxFjAUBgNVBAoTDUlOWkEt
TFRELUFJU1QxDzANBgNVBAMTBnNlcnZlcjEhMB8GCSqGSIb3DQEJARYScGF2ZWxA
a3VzdG8uY29tLnJ1MB4XDTE0MDIxNzA3NDU0N1oXDTI0MDIxNTA3NDU0N1owazEL
MAkGA1UEBhMCUlUxCzAJBgNVBAgTAk5BMRYwFAYDVQQKEw1JTlpBLUxURC1BSVNU
MRQwEgYDVQQDFAtwX3Zhc2lsZXZrYTEhMB8GCSqGSIb3DQEJARYScGF2ZWxAa3Vz
dG8uY29tLnJ1MIGfMA0GCSqGSIb3DQEBAQUAA4GNADCBiQKBgQDeyMgKWpyeiUIN
ILMOYP9FmHs/ggpB53W/CqLN6aeLPUhwf2Dv2ySJGsn8TCpJIEtt4QGXafQKTsPU
YzWoydgut0YzlN/JtC0O/mtcdsKaKFKcqOpaFJIzBurAmsCpHuAsn9QU5wkDriJU
5IxLGP5MC3GZ1SyB5EoRGt7sIum4+QIDAQABo4IBAjCB/zAJBgNVHRMEAjAAMCwG
CWCGSAGG+EIBDQQfFh1PcGVuU1NMIEdlbmVyYXRlZCBDZXJ0aWZpY2F0ZTAdBgNV
HQ4EFgQU2u30fh4xJteBPs1403QKZGW320UwgaQGA1UdIwSBnDCBmYAU9nzm+xS3
9sFeA5kSqu1A5EQSdjihfqR8MHoxCzAJBgNVBAYTAlJVMQswCQYDVQQIEwJOQTES
MBAGA1UEBxMJVE9HTElBVFRJMRYwFAYDVQQKEw1JTlpBLUxURC1BSVNUMQ8wDQYD
VQQDEwZzZXJ2ZXIxITAfBgkqhkiG9w0BCQEWEnBhdmVsQGt1c3RvLmNvbS5ydYIB
ADANBgkqhkiG9w0BAQQFAAOBgQBO8F5EyWk9W9a6a+Qgbs3a2Ho0LigzXZL0NzVC
pQltJwEUBGk9xWyngmUSs4Dfwu05iPhSG+/Vj6s0aNTeW5e9IEUGegs4qM4xvqdf
O+ABuwH7Ue/beza5Hwe0iy3Y/EBPQ4N1wQk36O0CwUO6uP+XzHmjzGwZNBAUfw8p
fMpknw==
-----END CERTIFICATE-----
