Certificate:
    Data:
        Version: 3 (0x2)
        Serial Number: 157 (0x9d)
    Signature Algorithm: md5WithRSAEncryption
        Issuer: C=RU, ST=NA, L=TOGLIATTI, O=INZA-LTD-AIST, CN=server/emailAddress=pavel@kusto.com.ru
        Validity
            Not Before: Jul 23 05:35:50 2014 GMT
            Not After : Jul 20 05:35:50 2024 GMT
        Subject: C=RU, ST=NA, O=INZA-LTD-AIST, CN=panov/emailAddress=pavel@kusto.com.ru
        Subject Public Key Info:
            Public Key Algorithm: rsaEncryption
                Public-Key: (1024 bit)
                Modulus:
                    00:d4:3c:e3:31:4d:28:12:57:81:80:3e:ac:59:cd:
                    d6:ea:67:69:30:00:6e:ce:39:5c:58:9b:e3:bb:dd:
                    98:c2:15:9c:21:c1:d6:82:91:3e:55:57:a3:a1:7c:
                    df:cf:b6:6c:63:17:28:4a:92:22:ec:de:6a:4d:85:
                    98:41:a1:54:40:33:d6:fc:db:ee:55:22:8c:a8:e9:
                    5b:22:bb:38:5b:2e:1a:3d:88:be:a0:6b:74:30:1c:
                    a8:19:f1:8e:be:9a:5a:f5:d8:5e:2e:f6:74:1b:04:
                    74:d0:07:88:38:74:e5:3e:2a:18:dd:c8:1d:81:4a:
                    32:c6:39:6d:40:77:d3:23:f1
                Exponent: 65537 (0x10001)
        X509v3 extensions:
            X509v3 Basic Constraints: 
                CA:FALSE
            Netscape Comment: 
                OpenSSL Generated Certificate
            X509v3 Subject Key Identifier: 
                2B:5A:3F:C1:85:4B:C4:C2:6B:17:1B:4F:E3:5E:45:DA:9D:88:CA:75
            X509v3 Authority Key Identifier: 
                keyid:F6:7C:E6:FB:14:B7:F6:C1:5E:03:99:12:AA:ED:40:E4:44:12:76:38
                DirName:/C=RU/ST=NA/L=TOGLIATTI/O=INZA-LTD-AIST/CN=server/emailAddress=pavel@kusto.com.ru
                serial:00

    Signature Algorithm: md5WithRSAEncryption
         60:fe:62:d2:9b:27:48:eb:73:11:4f:68:f0:7f:0c:76:b8:87:
         ad:fd:a8:92:54:5d:ef:8e:a6:4a:9d:f8:57:b1:9a:79:06:6d:
         5d:dd:1e:71:04:5b:bf:bc:57:e2:a0:bd:e2:39:cb:9b:68:f9:
         ae:66:83:5f:f2:a0:15:75:77:ed:ad:e6:10:30:66:a3:84:18:
         f3:28:8d:6c:2b:59:02:4d:76:f4:39:6f:70:3f:aa:77:74:f2:
         56:14:1f:0e:de:b3:12:d6:f1:72:d0:96:ee:15:6f:d6:1c:dc:
         4b:c6:2d:94:4b:21:58:df:fb:e4:93:90:70:66:40:16:8d:af:
         9a:37
-----BEGIN CERTIFICATE-----
MIIDWjCCAsOgAwIBAgICAJ0wDQYJKoZIhvcNAQEEBQAwejELMAkGA1UEBhMCUlUx
CzAJBgNVBAgTAk5BMRIwEAYDVQQHEwlUT0dMSUFUVEkxFjAUBgNVBAoTDUlOWkEt
TFRELUFJU1QxDzANBgNVBAMTBnNlcnZlcjEhMB8GCSqGSIb3DQEJARYScGF2ZWxA
a3VzdG8uY29tLnJ1MB4XDTE0MDcyMzA1MzU1MFoXDTI0MDcyMDA1MzU1MFowZTEL
MAkGA1UEBhMCUlUxCzAJBgNVBAgTAk5BMRYwFAYDVQQKEw1JTlpBLUxURC1BSVNU
MQ4wDAYDVQQDEwVwYW5vdjEhMB8GCSqGSIb3DQEJARYScGF2ZWxAa3VzdG8uY29t
LnJ1MIGfMA0GCSqGSIb3DQEBAQUAA4GNADCBiQKBgQDUPOMxTSgSV4GAPqxZzdbq
Z2kwAG7OOVxYm+O73ZjCFZwhwdaCkT5VV6OhfN/PtmxjFyhKkiLs3mpNhZhBoVRA
M9b82+5VIoyo6VsiuzhbLho9iL6ga3QwHKgZ8Y6+mlr12F4u9nQbBHTQB4g4dOU+
KhjdyB2BSjLGOW1Ad9Mj8QIDAQABo4IBAjCB/zAJBgNVHRMEAjAAMCwGCWCGSAGG
+EIBDQQfFh1PcGVuU1NMIEdlbmVyYXRlZCBDZXJ0aWZpY2F0ZTAdBgNVHQ4EFgQU
K1o/wYVLxMJrFxtP415F2p2IynUwgaQGA1UdIwSBnDCBmYAU9nzm+xS39sFeA5kS
qu1A5EQSdjihfqR8MHoxCzAJBgNVBAYTAlJVMQswCQYDVQQIEwJOQTESMBAGA1UE
BxMJVE9HTElBVFRJMRYwFAYDVQQKEw1JTlpBLUxURC1BSVNUMQ8wDQYDVQQDEwZz
ZXJ2ZXIxITAfBgkqhkiG9w0BCQEWEnBhdmVsQGt1c3RvLmNvbS5ydYIBADANBgkq
hkiG9w0BAQQFAAOBgQBg/mLSmydI63MRT2jwfwx2uIet/aiSVF3vjqZKnfhXsZp5
Bm1d3R5xBFu/vFfioL3iOcubaPmuZoNf8qAVdXftreYQMGajhBjzKI1sK1kCTXb0
OW9wP6p3dPJWFB8O3rMS1vFy0JbuFW/WHNxLxi2USyFY3/vkk5BwZkAWja+aNw==
-----END CERTIFICATE-----
