Certificate:
    Data:
        Version: 3 (0x2)
        Serial Number: 165 (0xa5)
    Signature Algorithm: md5WithRSAEncryption
        Issuer: C=RU, ST=NA, L=TOGLIATTI, O=INZA-LTD-AIST, CN=server/emailAddress=pavel@kusto.com.ru
        Validity
            Not Before: Jan  9 13:03:43 2015 GMT
            Not After : Jan  6 13:03:43 2025 GMT
        Subject: C=RU, ST=NA, O=INZA-LTD-AIST, CN=p_zhiguli/emailAddress=pavel@kusto.com.ru
        Subject Public Key Info:
            Public Key Algorithm: rsaEncryption
                Public-Key: (1024 bit)
                Modulus:
                    00:b0:48:74:b8:da:19:0b:82:29:f6:62:e2:3b:e8:
                    73:af:40:95:da:41:6a:af:83:80:33:b1:4e:48:37:
                    19:71:b4:d4:24:b3:4d:59:c2:09:ad:34:f7:93:a6:
                    9a:01:b6:b1:dd:75:eb:11:db:b1:5a:94:af:0b:ac:
                    a4:b7:c4:05:81:a6:b3:2c:4f:0b:e9:80:8f:4b:83:
                    4d:cf:e0:7c:3d:44:e4:4c:94:de:dd:0e:fb:13:7b:
                    15:bb:95:cd:6b:41:44:09:e9:b7:f3:fc:0a:97:9d:
                    04:4e:70:44:f6:c3:52:25:04:85:0c:c5:bb:d2:02:
                    be:62:4f:9d:43:c9:ea:01:17
                Exponent: 65537 (0x10001)
        X509v3 extensions:
            X509v3 Basic Constraints: 
                CA:FALSE
            Netscape Comment: 
                OpenSSL Generated Certificate
            X509v3 Subject Key Identifier: 
                BB:ED:E8:02:5E:B4:1C:5C:05:99:FE:95:CF:A2:DE:9F:98:48:62:72
            X509v3 Authority Key Identifier: 
                keyid:F6:7C:E6:FB:14:B7:F6:C1:5E:03:99:12:AA:ED:40:E4:44:12:76:38
                DirName:/C=RU/ST=NA/L=TOGLIATTI/O=INZA-LTD-AIST/CN=server/emailAddress=pavel@kusto.com.ru
                serial:00

    Signature Algorithm: md5WithRSAEncryption
         a6:e3:2d:ec:cd:37:77:bb:16:c7:0f:af:f9:3f:a0:2a:5c:8e:
         3d:6c:fb:97:19:db:3b:24:5d:0d:95:d0:9e:a3:d6:e0:b1:12:
         76:66:74:e6:50:f9:11:c1:eb:ce:29:17:e5:1d:36:55:ac:69:
         b4:c5:95:be:50:df:dc:1f:2a:c2:48:17:97:bc:12:47:0c:87:
         65:31:26:f0:c6:7b:81:87:78:af:bd:cb:fb:83:ad:60:fc:94:
         d8:45:f2:99:2f:ed:3c:7a:f9:27:88:51:e4:09:7b:bc:dc:f2:
         e5:e0:a9:13:c1:a8:62:ee:af:79:85:9e:f3:57:d2:6b:a3:8b:
         2a:70
-----BEGIN CERTIFICATE-----
MIIDXjCCAsegAwIBAgICAKUwDQYJKoZIhvcNAQEEBQAwejELMAkGA1UEBhMCUlUx
CzAJBgNVBAgTAk5BMRIwEAYDVQQHEwlUT0dMSUFUVEkxFjAUBgNVBAoTDUlOWkEt
TFRELUFJU1QxDzANBgNVBAMTBnNlcnZlcjEhMB8GCSqGSIb3DQEJARYScGF2ZWxA
a3VzdG8uY29tLnJ1MB4XDTE1MDEwOTEzMDM0M1oXDTI1MDEwNjEzMDM0M1owaTEL
MAkGA1UEBhMCUlUxCzAJBgNVBAgTAk5BMRYwFAYDVQQKEw1JTlpBLUxURC1BSVNU
MRIwEAYDVQQDFAlwX3poaWd1bGkxITAfBgkqhkiG9w0BCQEWEnBhdmVsQGt1c3Rv
LmNvbS5ydTCBnzANBgkqhkiG9w0BAQEFAAOBjQAwgYkCgYEAsEh0uNoZC4Ip9mLi
O+hzr0CV2kFqr4OAM7FOSDcZcbTUJLNNWcIJrTT3k6aaAbax3XXrEduxWpSvC6yk
t8QFgaazLE8L6YCPS4NNz+B8PUTkTJTe3Q77E3sVu5XNa0FECem38/wKl50ETnBE
9sNSJQSFDMW70gK+Yk+dQ8nqARcCAwEAAaOCAQIwgf8wCQYDVR0TBAIwADAsBglg
hkgBhvhCAQ0EHxYdT3BlblNTTCBHZW5lcmF0ZWQgQ2VydGlmaWNhdGUwHQYDVR0O
BBYEFLvt6AJetBxcBZn+lc+i3p+YSGJyMIGkBgNVHSMEgZwwgZmAFPZ85vsUt/bB
XgOZEqrtQOREEnY4oX6kfDB6MQswCQYDVQQGEwJSVTELMAkGA1UECBMCTkExEjAQ
BgNVBAcTCVRPR0xJQVRUSTEWMBQGA1UEChMNSU5aQS1MVEQtQUlTVDEPMA0GA1UE
AxMGc2VydmVyMSEwHwYJKoZIhvcNAQkBFhJwYXZlbEBrdXN0by5jb20ucnWCAQAw
DQYJKoZIhvcNAQEEBQADgYEApuMt7M03d7sWxw+v+T+gKlyOPWz7lxnbOyRdDZXQ
nqPW4LESdmZ05lD5EcHrzikX5R02VaxptMWVvlDf3B8qwkgXl7wSRwyHZTEm8MZ7
gYd4r73L+4OtYPyU2EXymS/tPHr5J4hR5Al7vNzy5eCpE8GoYu6veYWe81fSa6OL
KnA=
-----END CERTIFICATE-----
