Certificate:
    Data:
        Version: 3 (0x2)
        Serial Number: 169 (0xa9)
    Signature Algorithm: md5WithRSAEncryption
        Issuer: C=RU, ST=NA, L=TOGLIATTI, O=INZA-LTD-AIST, CN=server/emailAddress=pavel@kusto.com.ru
        Validity
            Not Before: Feb 18 06:19:21 2015 GMT
            Not After : Feb 15 06:19:21 2025 GMT
        Subject: C=RU, ST=NA, O=INZA-LTD-AIST, CN=stroyka2/emailAddress=pavel@kusto.com.ru
        Subject Public Key Info:
            Public Key Algorithm: rsaEncryption
                Public-Key: (1024 bit)
                Modulus:
                    00:c1:cf:8c:97:73:f5:3a:39:eb:32:0c:2b:7b:c4:
                    1e:c2:fc:36:23:7f:6b:61:a9:ef:a1:1a:e4:ea:10:
                    23:67:5e:68:54:59:5d:de:3e:0b:10:a1:9a:d9:fa:
                    2f:0e:cf:44:89:7a:b5:09:b0:48:bc:4e:aa:8b:cb:
                    90:41:2b:6d:ad:38:8f:07:67:6c:4c:ef:1c:5a:36:
                    fb:ff:d6:78:e3:f2:a7:9c:db:8f:92:a4:b3:21:95:
                    9e:b7:43:26:db:bd:19:b7:d1:c9:d5:e9:16:2d:74:
                    4f:84:4e:33:0b:6b:95:4c:fd:3c:fe:21:06:34:8f:
                    43:b6:5b:6a:9d:61:9e:e9:f5
                Exponent: 65537 (0x10001)
        X509v3 extensions:
            X509v3 Basic Constraints: 
                CA:FALSE
            Netscape Comment: 
                OpenSSL Generated Certificate
            X509v3 Subject Key Identifier: 
                2A:2F:C9:69:F0:D7:53:2E:D3:37:4A:40:F1:73:72:FB:27:89:98:BE
            X509v3 Authority Key Identifier: 
                keyid:F6:7C:E6:FB:14:B7:F6:C1:5E:03:99:12:AA:ED:40:E4:44:12:76:38
                DirName:/C=RU/ST=NA/L=TOGLIATTI/O=INZA-LTD-AIST/CN=server/emailAddress=pavel@kusto.com.ru
                serial:00

    Signature Algorithm: md5WithRSAEncryption
         75:dd:90:b1:3f:83:a2:e2:b0:62:16:77:84:50:67:82:5d:27:
         d9:9e:4a:f5:e9:28:a1:4b:15:80:f8:c3:15:ce:5f:41:e2:7e:
         0b:1b:b7:b4:b8:c5:36:0e:e7:59:dd:62:92:f7:b6:15:c4:26:
         d1:18:33:cf:8f:5e:df:a8:ce:92:4e:6b:76:a5:42:1c:6a:68:
         ee:96:52:72:d2:cc:0d:0c:6c:4a:5c:70:25:ce:8d:af:24:36:
         5c:50:55:86:a1:d4:45:ca:a0:fd:54:95:eb:e5:7a:ab:d2:7c:
         55:f8:fe:5e:d8:e2:95:90:2b:d4:6a:99:55:58:4f:fc:e8:1e:
         b6:d4
-----BEGIN CERTIFICATE-----
MIIDXTCCAsagAwIBAgICAKkwDQYJKoZIhvcNAQEEBQAwejELMAkGA1UEBhMCUlUx
CzAJBgNVBAgTAk5BMRIwEAYDVQQHEwlUT0dMSUFUVEkxFjAUBgNVBAoTDUlOWkEt
TFRELUFJU1QxDzANBgNVBAMTBnNlcnZlcjEhMB8GCSqGSIb3DQEJARYScGF2ZWxA
a3VzdG8uY29tLnJ1MB4XDTE1MDIxODA2MTkyMVoXDTI1MDIxNTA2MTkyMVowaDEL
MAkGA1UEBhMCUlUxCzAJBgNVBAgTAk5BMRYwFAYDVQQKEw1JTlpBLUxURC1BSVNU
MREwDwYDVQQDEwhzdHJveWthMjEhMB8GCSqGSIb3DQEJARYScGF2ZWxAa3VzdG8u
Y29tLnJ1MIGfMA0GCSqGSIb3DQEBAQUAA4GNADCBiQKBgQDBz4yXc/U6OesyDCt7
xB7C/DYjf2thqe+hGuTqECNnXmhUWV3ePgsQoZrZ+i8Oz0SJerUJsEi8TqqLy5BB
K22tOI8HZ2xM7xxaNvv/1njj8qec24+SpLMhlZ63QybbvRm30cnV6RYtdE+ETjML
a5VM/Tz+IQY0j0O2W2qdYZ7p9QIDAQABo4IBAjCB/zAJBgNVHRMEAjAAMCwGCWCG
SAGG+EIBDQQfFh1PcGVuU1NMIEdlbmVyYXRlZCBDZXJ0aWZpY2F0ZTAdBgNVHQ4E
FgQUKi/JafDXUy7TN0pA8XNy+yeJmL4wgaQGA1UdIwSBnDCBmYAU9nzm+xS39sFe
A5kSqu1A5EQSdjihfqR8MHoxCzAJBgNVBAYTAlJVMQswCQYDVQQIEwJOQTESMBAG
A1UEBxMJVE9HTElBVFRJMRYwFAYDVQQKEw1JTlpBLUxURC1BSVNUMQ8wDQYDVQQD
EwZzZXJ2ZXIxITAfBgkqhkiG9w0BCQEWEnBhdmVsQGt1c3RvLmNvbS5ydYIBADAN
BgkqhkiG9w0BAQQFAAOBgQB13ZCxP4Oi4rBiFneEUGeCXSfZnkr16SihSxWA+MMV
zl9B4n4LG7e0uMU2DudZ3WKS97YVxCbRGDPPj17fqM6STmt2pUIcamjullJy0swN
DGxKXHAlzo2vJDZcUFWGodRFyqD9VJXr5Xqr0nxV+P5e2OKVkCvUaplVWE/86B62
1A==
-----END CERTIFICATE-----
