Certificate:
    Data:
        Version: 3 (0x2)
        Serial Number: 172 (0xac)
    Signature Algorithm: md5WithRSAEncryption
        Issuer: C=RU, ST=NA, L=TOGLIATTI, O=INZA-LTD-AIST, CN=server/emailAddress=pavel@kusto.com.ru
        Validity
            Not Before: Apr  9 07:20:01 2015 GMT
            Not After : Apr  6 07:20:01 2025 GMT
        Subject: C=RU, ST=NA, O=INZA-LTD-AIST, CN=p_matrosova/emailAddress=pavel@kusto.com.ru
        Subject Public Key Info:
            Public Key Algorithm: rsaEncryption
                Public-Key: (1024 bit)
                Modulus:
                    00:b4:31:10:da:d7:35:ef:8d:18:09:f0:66:cf:7e:
                    f3:7f:78:e8:34:16:da:d7:ad:12:c7:bb:8f:96:13:
                    49:d8:9c:f1:30:5d:55:58:76:4a:de:96:ee:9b:2e:
                    9d:1e:9f:9a:99:99:43:d4:ff:b5:da:d6:80:25:1a:
                    5d:b1:1a:24:52:21:00:fb:78:61:f5:f2:fc:3d:e7:
                    cc:69:ac:95:c2:2f:fd:20:b1:93:61:49:46:24:dc:
                    d3:fe:13:fc:42:dd:83:07:ec:41:11:04:13:f0:fa:
                    9b:6c:9b:6e:f7:f4:0e:03:98:31:3e:52:d5:1b:69:
                    d6:9f:39:cf:5f:1a:ae:cb:3b
                Exponent: 65537 (0x10001)
        X509v3 extensions:
            X509v3 Basic Constraints: 
                CA:FALSE
            Netscape Comment: 
                OpenSSL Generated Certificate
            X509v3 Subject Key Identifier: 
                69:0A:6F:57:36:0B:A2:A4:B0:56:1C:5A:60:99:B8:84:09:13:60:4A
            X509v3 Authority Key Identifier: 
                keyid:F6:7C:E6:FB:14:B7:F6:C1:5E:03:99:12:AA:ED:40:E4:44:12:76:38
                DirName:/C=RU/ST=NA/L=TOGLIATTI/O=INZA-LTD-AIST/CN=server/emailAddress=pavel@kusto.com.ru
                serial:00

    Signature Algorithm: md5WithRSAEncryption
         b1:e3:b9:3f:ee:65:38:4f:fe:e5:41:5f:e3:d1:74:2d:cb:5e:
         a6:36:64:5c:1d:5b:01:d4:49:4b:d9:11:fe:7a:51:68:dd:a7:
         b3:c5:11:a6:f2:7d:49:f4:77:04:13:11:2d:c6:13:72:2c:9a:
         0d:93:42:d3:28:e2:e2:1e:a3:33:0c:bd:d6:a5:9e:8b:97:7b:
         62:db:16:e5:3a:1e:84:54:0a:d6:67:02:34:1d:7d:b6:db:0d:
         fb:2f:4b:e3:db:21:f3:51:2e:35:02:b5:6e:4b:e2:c8:93:88:
         e4:c1:9f:7d:9c:82:1e:07:80:6a:23:67:db:7b:5f:6c:2e:5f:
         74:da
-----BEGIN CERTIFICATE-----
MIIDYDCCAsmgAwIBAgICAKwwDQYJKoZIhvcNAQEEBQAwejELMAkGA1UEBhMCUlUx
CzAJBgNVBAgTAk5BMRIwEAYDVQQHEwlUT0dMSUFUVEkxFjAUBgNVBAoTDUlOWkEt
TFRELUFJU1QxDzANBgNVBAMTBnNlcnZlcjEhMB8GCSqGSIb3DQEJARYScGF2ZWxA
a3VzdG8uY29tLnJ1MB4XDTE1MDQwOTA3MjAwMVoXDTI1MDQwNjA3MjAwMVowazEL
MAkGA1UEBhMCUlUxCzAJBgNVBAgTAk5BMRYwFAYDVQQKEw1JTlpBLUxURC1BSVNU
MRQwEgYDVQQDFAtwX21hdHJvc292YTEhMB8GCSqGSIb3DQEJARYScGF2ZWxAa3Vz
dG8uY29tLnJ1MIGfMA0GCSqGSIb3DQEBAQUAA4GNADCBiQKBgQC0MRDa1zXvjRgJ
8GbPfvN/eOg0FtrXrRLHu4+WE0nYnPEwXVVYdkrelu6bLp0en5qZmUPU/7Xa1oAl
Gl2xGiRSIQD7eGH18vw958xprJXCL/0gsZNhSUYk3NP+E/xC3YMH7EERBBPw+pts
m2739A4DmDE+UtUbadafOc9fGq7LOwIDAQABo4IBAjCB/zAJBgNVHRMEAjAAMCwG
CWCGSAGG+EIBDQQfFh1PcGVuU1NMIEdlbmVyYXRlZCBDZXJ0aWZpY2F0ZTAdBgNV
HQ4EFgQUaQpvVzYLoqSwVhxaYJm4hAkTYEowgaQGA1UdIwSBnDCBmYAU9nzm+xS3
9sFeA5kSqu1A5EQSdjihfqR8MHoxCzAJBgNVBAYTAlJVMQswCQYDVQQIEwJOQTES
MBAGA1UEBxMJVE9HTElBVFRJMRYwFAYDVQQKEw1JTlpBLUxURC1BSVNUMQ8wDQYD
VQQDEwZzZXJ2ZXIxITAfBgkqhkiG9w0BCQEWEnBhdmVsQGt1c3RvLmNvbS5ydYIB
ADANBgkqhkiG9w0BAQQFAAOBgQCx47k/7mU4T/7lQV/j0XQty16mNmRcHVsB1ElL
2RH+elFo3aezxRGm8n1J9HcEExEtxhNyLJoNk0LTKOLiHqMzDL3WpZ6Ll3ti2xbl
Oh6EVArWZwI0HX222w37L0vj2yHzUS41ArVuS+LIk4jkwZ99nIIeB4BqI2fbe19s
Ll902g==
-----END CERTIFICATE-----
