Certificate:
    Data:
        Version: 3 (0x2)
        Serial Number: 173 (0xad)
    Signature Algorithm: md5WithRSAEncryption
        Issuer: C=RU, ST=NA, L=TOGLIATTI, O=INZA-LTD-AIST, CN=server/emailAddress=pavel@kusto.com.ru
        Validity
            Not Before: Apr 10 10:57:31 2015 GMT
            Not After : Apr  7 10:57:31 2025 GMT
        Subject: C=RU, ST=NA, O=INZA-LTD-AIST, CN=p21/emailAddress=pavel@kusto.com.ru
        Subject Public Key Info:
            Public Key Algorithm: rsaEncryption
                Public-Key: (1024 bit)
                Modulus:
                    00:b5:15:cb:9c:a0:25:ea:38:3e:79:b6:cc:c0:10:
                    01:05:33:5a:c1:7d:67:ff:94:35:88:47:de:b2:17:
                    d5:9f:98:df:c3:a1:a3:d0:d3:1e:df:ed:ce:2e:93:
                    b6:a3:fb:15:37:ff:c7:28:51:68:93:f2:f0:8a:69:
                    5a:a9:80:ef:27:59:e9:d0:37:7c:aa:71:2d:ad:d3:
                    e9:d5:83:64:47:bd:73:01:d0:5b:21:95:94:7a:5d:
                    3d:eb:0c:d4:cb:ae:76:d8:d9:2e:f5:a4:26:2a:a7:
                    5f:8c:0d:d7:d7:4c:13:c3:73:9f:38:24:88:18:53:
                    b2:27:29:07:3e:1a:9d:dd:ab
                Exponent: 65537 (0x10001)
        X509v3 extensions:
            X509v3 Basic Constraints: 
                CA:FALSE
            Netscape Comment: 
                OpenSSL Generated Certificate
            X509v3 Subject Key Identifier: 
                07:40:C3:30:AB:76:33:77:2A:D1:03:AC:20:20:C0:80:B0:19:66:DC
            X509v3 Authority Key Identifier: 
                keyid:F6:7C:E6:FB:14:B7:F6:C1:5E:03:99:12:AA:ED:40:E4:44:12:76:38
                DirName:/C=RU/ST=NA/L=TOGLIATTI/O=INZA-LTD-AIST/CN=server/emailAddress=pavel@kusto.com.ru
                serial:00

    Signature Algorithm: md5WithRSAEncryption
         9f:c6:34:e9:95:56:ba:59:57:b4:fb:ab:f5:9c:e4:54:55:fb:
         0e:39:72:9f:5f:0f:5a:53:c4:f8:b8:9e:d3:44:9a:dc:dc:b2:
         9a:6a:98:7c:bc:33:d2:67:c2:37:c7:00:c1:8e:22:86:a2:d8:
         c0:ee:05:11:40:47:d5:a3:9e:12:63:e4:b7:f3:fd:7a:81:24:
         cf:28:35:e7:80:52:c1:6d:33:52:9a:f2:db:0a:6c:b8:b5:c2:
         3b:6d:84:b1:05:5c:d4:bd:6b:a6:ac:5c:ef:24:c9:19:1f:b2:
         ff:b4:5c:bb:9a:8b:35:d0:db:1c:a9:a6:aa:89:cb:24:a8:2f:
         1a:00
-----BEGIN CERTIFICATE-----
MIIDWDCCAsGgAwIBAgICAK0wDQYJKoZIhvcNAQEEBQAwejELMAkGA1UEBhMCUlUx
CzAJBgNVBAgTAk5BMRIwEAYDVQQHEwlUT0dMSUFUVEkxFjAUBgNVBAoTDUlOWkEt
TFRELUFJU1QxDzANBgNVBAMTBnNlcnZlcjEhMB8GCSqGSIb3DQEJARYScGF2ZWxA
a3VzdG8uY29tLnJ1MB4XDTE1MDQxMDEwNTczMVoXDTI1MDQwNzEwNTczMVowYzEL
MAkGA1UEBhMCUlUxCzAJBgNVBAgTAk5BMRYwFAYDVQQKEw1JTlpBLUxURC1BSVNU
MQwwCgYDVQQDEwNwMjExITAfBgkqhkiG9w0BCQEWEnBhdmVsQGt1c3RvLmNvbS5y
dTCBnzANBgkqhkiG9w0BAQEFAAOBjQAwgYkCgYEAtRXLnKAl6jg+ebbMwBABBTNa
wX1n/5Q1iEfeshfVn5jfw6Gj0NMe3+3OLpO2o/sVN//HKFFok/LwimlaqYDvJ1np
0Dd8qnEtrdPp1YNkR71zAdBbIZWUel096wzUy6522Nku9aQmKqdfjA3X10wTw3Of
OCSIGFOyJykHPhqd3asCAwEAAaOCAQIwgf8wCQYDVR0TBAIwADAsBglghkgBhvhC
AQ0EHxYdT3BlblNTTCBHZW5lcmF0ZWQgQ2VydGlmaWNhdGUwHQYDVR0OBBYEFAdA
wzCrdjN3KtEDrCAgwICwGWbcMIGkBgNVHSMEgZwwgZmAFPZ85vsUt/bBXgOZEqrt
QOREEnY4oX6kfDB6MQswCQYDVQQGEwJSVTELMAkGA1UECBMCTkExEjAQBgNVBAcT
CVRPR0xJQVRUSTEWMBQGA1UEChMNSU5aQS1MVEQtQUlTVDEPMA0GA1UEAxMGc2Vy
dmVyMSEwHwYJKoZIhvcNAQkBFhJwYXZlbEBrdXN0by5jb20ucnWCAQAwDQYJKoZI
hvcNAQEEBQADgYEAn8Y06ZVWullXtPur9ZzkVFX7Djlyn18PWlPE+Lie00Sa3Nyy
mmqYfLwz0mfCN8cAwY4ihqLYwO4FEUBH1aOeEmPkt/P9eoEkzyg154BSwW0zUpry
2wpsuLXCO22EsQVc1L1rpqxc7yTJGR+y/7Rcu5qLNdDbHKmmqonLJKgvGgA=
-----END CERTIFICATE-----
