Certificate:
    Data:
        Version: 3 (0x2)
        Serial Number: 174 (0xae)
    Signature Algorithm: md5WithRSAEncryption
        Issuer: C=RU, ST=NA, L=TOGLIATTI, O=INZA-LTD-AIST, CN=server/emailAddress=pavel@kusto.com.ru
        Validity
            Not Before: Apr 14 12:17:02 2015 GMT
            Not After : Apr 11 12:17:02 2025 GMT
        Subject: C=RU, ST=NA, O=INZA-LTD-AIST, CN=p_lenina2/emailAddress=pavel@kusto.com.ru
        Subject Public Key Info:
            Public Key Algorithm: rsaEncryption
                Public-Key: (1024 bit)
                Modulus:
                    00:d8:22:5e:ae:56:2a:cb:06:fd:36:5d:6e:27:88:
                    36:52:97:1c:f1:2b:24:39:73:12:e2:43:9d:72:fe:
                    2b:36:18:15:7d:e0:6b:de:bf:1e:3e:b9:df:b7:78:
                    a6:93:f1:c8:59:5e:4c:52:d4:fd:71:d7:cf:2d:57:
                    59:5e:f7:40:e9:e5:28:16:27:cc:19:c7:93:7f:61:
                    64:93:0c:f2:ec:cc:8f:14:13:f6:64:b3:16:22:57:
                    03:1b:a6:53:74:d1:cc:ba:d3:26:ad:39:60:60:85:
                    8a:55:54:08:f3:b0:e5:2e:18:34:5d:34:fb:4f:7b:
                    e0:98:36:12:3e:86:9c:d5:cb
                Exponent: 65537 (0x10001)
        X509v3 extensions:
            X509v3 Basic Constraints: 
                CA:FALSE
            Netscape Comment: 
                OpenSSL Generated Certificate
            X509v3 Subject Key Identifier: 
                CD:B7:4D:2B:68:00:DE:A4:61:E3:D1:BE:15:30:D7:D0:6A:72:5A:5B
            X509v3 Authority Key Identifier: 
                keyid:F6:7C:E6:FB:14:B7:F6:C1:5E:03:99:12:AA:ED:40:E4:44:12:76:38
                DirName:/C=RU/ST=NA/L=TOGLIATTI/O=INZA-LTD-AIST/CN=server/emailAddress=pavel@kusto.com.ru
                serial:00

    Signature Algorithm: md5WithRSAEncryption
         46:cc:d4:46:ec:69:cb:cf:44:1d:9b:4f:07:8f:30:c6:00:af:
         f9:6a:18:a5:91:13:33:42:ec:b3:c4:fa:b0:b5:d3:19:cb:d1:
         eb:f7:8d:73:8e:8d:55:d1:04:7e:9e:5f:47:58:83:51:2f:31:
         71:3c:ca:66:da:8b:26:86:7d:f1:86:15:06:6b:99:67:62:11:
         c5:79:54:19:69:03:e6:94:d3:ae:52:da:84:21:af:f8:a1:82:
         26:74:20:b9:6a:d7:79:fe:6d:b4:b3:33:8b:83:1d:e7:37:36:
         be:b4:da:e6:14:7e:c6:7a:9c:90:88:03:2b:d0:57:50:df:25:
         4c:44
-----BEGIN CERTIFICATE-----
MIIDXjCCAsegAwIBAgICAK4wDQYJKoZIhvcNAQEEBQAwejELMAkGA1UEBhMCUlUx
CzAJBgNVBAgTAk5BMRIwEAYDVQQHEwlUT0dMSUFUVEkxFjAUBgNVBAoTDUlOWkEt
TFRELUFJU1QxDzANBgNVBAMTBnNlcnZlcjEhMB8GCSqGSIb3DQEJARYScGF2ZWxA
a3VzdG8uY29tLnJ1MB4XDTE1MDQxNDEyMTcwMloXDTI1MDQxMTEyMTcwMlowaTEL
MAkGA1UEBhMCUlUxCzAJBgNVBAgTAk5BMRYwFAYDVQQKEw1JTlpBLUxURC1BSVNU
MRIwEAYDVQQDFAlwX2xlbmluYTIxITAfBgkqhkiG9w0BCQEWEnBhdmVsQGt1c3Rv
LmNvbS5ydTCBnzANBgkqhkiG9w0BAQEFAAOBjQAwgYkCgYEA2CJerlYqywb9Nl1u
J4g2Upcc8SskOXMS4kOdcv4rNhgVfeBr3r8ePrnft3imk/HIWV5MUtT9cdfPLVdZ
XvdA6eUoFifMGceTf2Fkkwzy7MyPFBP2ZLMWIlcDG6ZTdNHMutMmrTlgYIWKVVQI
87DlLhg0XTT7T3vgmDYSPoac1csCAwEAAaOCAQIwgf8wCQYDVR0TBAIwADAsBglg
hkgBhvhCAQ0EHxYdT3BlblNTTCBHZW5lcmF0ZWQgQ2VydGlmaWNhdGUwHQYDVR0O
BBYEFM23TStoAN6kYePRvhUw19BqclpbMIGkBgNVHSMEgZwwgZmAFPZ85vsUt/bB
XgOZEqrtQOREEnY4oX6kfDB6MQswCQYDVQQGEwJSVTELMAkGA1UECBMCTkExEjAQ
BgNVBAcTCVRPR0xJQVRUSTEWMBQGA1UEChMNSU5aQS1MVEQtQUlTVDEPMA0GA1UE
AxMGc2VydmVyMSEwHwYJKoZIhvcNAQkBFhJwYXZlbEBrdXN0by5jb20ucnWCAQAw
DQYJKoZIhvcNAQEEBQADgYEARszURuxpy89EHZtPB48wxgCv+WoYpZETM0Lss8T6
sLXTGcvR6/eNc46NVdEEfp5fR1iDUS8xcTzKZtqLJoZ98YYVBmuZZ2IRxXlUGWkD
5pTTrlLahCGv+KGCJnQguWrXef5ttLMzi4Md5zc2vrTa5hR+xnqckIgDK9BXUN8l
TEQ=
-----END CERTIFICATE-----
