Certificate:
    Data:
        Version: 3 (0x2)
        Serial Number: 112 (0x70)
        Signature Algorithm: md5WithRSAEncryption
        Issuer: C=RU, ST=NA, L=TOGLIATTI, O=INZA-LTD-AIST, CN=server/emailAddress=pavel@kusto.com.ru
        Validity
            Not Before: Jul 20 12:55:17 2012 GMT
            Not After : Jul 18 12:55:17 2022 GMT
        Subject: C=RU, ST=NA, O=INZA-LTD-AIST, CN=artur/emailAddress=pavel@kusto.com.ru
        Subject Public Key Info:
            Public Key Algorithm: rsaEncryption
            RSA Public Key: (1024 bit)
                Modulus (1024 bit):
                    00:c7:00:31:23:df:d0:90:59:cd:c0:32:80:85:66:
                    1c:74:7d:bd:5b:e0:47:85:8d:b9:e0:5f:c5:c4:e4:
                    fd:71:ed:73:b3:83:0b:9b:ae:2a:d1:72:36:82:59:
                    2a:f8:96:8b:a8:9b:08:25:02:13:97:84:f4:48:97:
                    6c:bf:25:d3:93:8a:5c:25:7c:db:1c:22:72:20:af:
                    12:fb:eb:c6:41:47:2c:a3:99:27:c5:f4:68:9e:17:
                    66:51:8a:7c:41:25:44:ac:8a:38:f3:35:a1:31:dd:
                    4f:6e:9f:72:c2:09:3f:b1:a9:71:d2:5b:55:ca:95:
                    df:52:dd:6e:09:c4:54:cd:bf
                Exponent: 65537 (0x10001)
        X509v3 extensions:
            X509v3 Basic Constraints: 
                CA:FALSE
            Netscape Comment: 
                OpenSSL Generated Certificate
            X509v3 Subject Key Identifier: 
                D3:14:B1:A1:39:8D:62:07:0D:EB:8E:B3:E9:D5:8D:C7:68:D0:2C:B3
            X509v3 Authority Key Identifier: 
                keyid:F6:7C:E6:FB:14:B7:F6:C1:5E:03:99:12:AA:ED:40:E4:44:12:76:38
                DirName:/C=RU/ST=NA/L=TOGLIATTI/O=INZA-LTD-AIST/CN=server/emailAddress=pavel@kusto.com.ru
                serial:00

    Signature Algorithm: md5WithRSAEncryption
        6e:f7:3b:bb:93:e6:13:52:b1:1d:42:a5:c0:5a:7d:11:3c:4f:
        5e:cf:80:74:98:65:2f:08:b3:76:0c:55:53:be:a0:77:db:73:
        b7:47:84:5b:f6:34:1c:30:45:29:eb:d0:f4:34:16:67:8b:a2:
        f9:44:c3:88:bf:c1:a5:c6:3a:a3:90:ca:6e:6a:54:3d:86:80:
        42:59:91:38:d6:c4:e5:12:62:df:e7:0e:a0:45:56:ca:29:84:
        42:c4:06:45:60:ac:f9:86:a6:99:a8:39:26:86:34:6e:81:ae:
        b4:12:ec:d6:30:95:9b:90:00:67:91:86:32:5e:8d:47:1c:48:
        fa:f7
-----BEGIN CERTIFICATE-----
MIIDWTCCAsKgAwIBAgIBcDANBgkqhkiG9w0BAQQFADB6MQswCQYDVQQGEwJSVTEL
MAkGA1UECBMCTkExEjAQBgNVBAcTCVRPR0xJQVRUSTEWMBQGA1UEChMNSU5aQS1M
VEQtQUlTVDEPMA0GA1UEAxMGc2VydmVyMSEwHwYJKoZIhvcNAQkBFhJwYXZlbEBr
dXN0by5jb20ucnUwHhcNMTIwNzIwMTI1NTE3WhcNMjIwNzE4MTI1NTE3WjBlMQsw
CQYDVQQGEwJSVTELMAkGA1UECBMCTkExFjAUBgNVBAoTDUlOWkEtTFRELUFJU1Qx
DjAMBgNVBAMTBWFydHVyMSEwHwYJKoZIhvcNAQkBFhJwYXZlbEBrdXN0by5jb20u
cnUwgZ8wDQYJKoZIhvcNAQEBBQADgY0AMIGJAoGBAMcAMSPf0JBZzcAygIVmHHR9
vVvgR4WNueBfxcTk/XHtc7ODC5uuKtFyNoJZKviWi6ibCCUCE5eE9EiXbL8l05OK
XCV82xwiciCvEvvrxkFHLKOZJ8X0aJ4XZlGKfEElRKyKOPM1oTHdT26fcsIJP7Gp
cdJbVcqV31LdbgnEVM2/AgMBAAGjggECMIH/MAkGA1UdEwQCMAAwLAYJYIZIAYb4
QgENBB8WHU9wZW5TU0wgR2VuZXJhdGVkIENlcnRpZmljYXRlMB0GA1UdDgQWBBTT
FLGhOY1iBw3rjrPp1Y3HaNAsszCBpAYDVR0jBIGcMIGZgBT2fOb7FLf2wV4DmRKq
7UDkRBJ2OKF+pHwwejELMAkGA1UEBhMCUlUxCzAJBgNVBAgTAk5BMRIwEAYDVQQH
EwlUT0dMSUFUVEkxFjAUBgNVBAoTDUlOWkEtTFRELUFJU1QxDzANBgNVBAMTBnNl
cnZlcjEhMB8GCSqGSIb3DQEJARYScGF2ZWxAa3VzdG8uY29tLnJ1ggEAMA0GCSqG
SIb3DQEBBAUAA4GBAG73O7uT5hNSsR1CpcBafRE8T17PgHSYZS8Is3YMVVO+oHfb
c7dHhFv2NBwwRSnr0PQ0FmeLovlEw4i/waXGOqOQym5qVD2GgEJZkTjWxOUSYt/n
DqBFVsophELEBkVgrPmGppmoOSaGNG6BrrQS7NYwlZuQAGeRhjJejUccSPr3
-----END CERTIFICATE-----
