Certificate:
    Data:
        Version: 3 (0x2)
        Serial Number: 178 (0xb2)
    Signature Algorithm: md5WithRSAEncryption
        Issuer: C=RU, ST=NA, L=TOGLIATTI, O=INZA-LTD-AIST, CN=server/emailAddress=pavel@kusto.com.ru
        Validity
            Not Before: Jun 22 12:38:55 2015 GMT
            Not After : Jun 19 12:38:55 2025 GMT
        Subject: C=RU, ST=NA, O=INZA-LTD-AIST, CN=p9_7/emailAddress=pavel@kusto.com.ru
        Subject Public Key Info:
            Public Key Algorithm: rsaEncryption
                Public-Key: (1024 bit)
                Modulus:
                    00:c6:d2:3f:11:0e:b8:55:79:07:ca:ca:25:b7:4a:
                    9d:9c:f8:0d:1a:ff:ed:26:5d:99:58:1e:bb:61:ce:
                    2e:7c:33:f1:b3:03:75:69:de:b9:a5:52:59:12:90:
                    1c:0d:b9:73:b3:43:fc:65:41:73:2b:5c:ac:7d:4e:
                    2b:55:cc:4f:91:fb:ce:77:ae:be:6f:c0:90:a4:e0:
                    b7:e9:da:4c:4e:c9:d7:20:57:8a:cc:22:c6:c4:86:
                    79:85:3b:64:35:fc:3f:fc:77:ca:6b:ef:35:e7:4e:
                    59:d8:12:ce:7b:d2:84:a7:5e:8c:81:37:a8:ef:e3:
                    fe:e5:38:bd:f3:c1:d7:2d:bd
                Exponent: 65537 (0x10001)
        X509v3 extensions:
            X509v3 Basic Constraints: 
                CA:FALSE
            Netscape Comment: 
                OpenSSL Generated Certificate
            X509v3 Subject Key Identifier: 
                B6:2C:8F:C1:67:1B:15:1A:08:70:7D:22:7B:FD:AF:43:49:83:9D:F4
            X509v3 Authority Key Identifier: 
                keyid:F6:7C:E6:FB:14:B7:F6:C1:5E:03:99:12:AA:ED:40:E4:44:12:76:38
                DirName:/C=RU/ST=NA/L=TOGLIATTI/O=INZA-LTD-AIST/CN=server/emailAddress=pavel@kusto.com.ru
                serial:00

    Signature Algorithm: md5WithRSAEncryption
         be:b3:bb:63:d4:d1:87:b1:23:71:0b:22:16:87:c0:c9:35:f1:
         a8:af:d8:5c:64:78:ff:fe:b7:56:d9:ba:62:a0:ec:58:49:23:
         a0:d7:0b:58:5c:16:34:2a:32:61:e3:61:65:4f:6a:fe:dd:86:
         7f:02:28:70:17:a6:e8:92:8c:bb:60:8a:7a:41:1a:4b:2d:b9:
         c7:32:89:66:a5:9f:e1:52:b7:8f:32:8e:0a:95:79:f2:e6:f0:
         d8:5b:4b:34:20:d9:14:05:85:7d:21:a8:0a:64:28:df:54:5f:
         81:06:71:83:7c:81:b7:7a:16:e7:be:1e:e0:6a:d6:99:53:a3:
         f1:51
-----BEGIN CERTIFICATE-----
MIIDWTCCAsKgAwIBAgICALIwDQYJKoZIhvcNAQEEBQAwejELMAkGA1UEBhMCUlUx
CzAJBgNVBAgTAk5BMRIwEAYDVQQHEwlUT0dMSUFUVEkxFjAUBgNVBAoTDUlOWkEt
TFRELUFJU1QxDzANBgNVBAMTBnNlcnZlcjEhMB8GCSqGSIb3DQEJARYScGF2ZWxA
a3VzdG8uY29tLnJ1MB4XDTE1MDYyMjEyMzg1NVoXDTI1MDYxOTEyMzg1NVowZDEL
MAkGA1UEBhMCUlUxCzAJBgNVBAgTAk5BMRYwFAYDVQQKEw1JTlpBLUxURC1BSVNU
MQ0wCwYDVQQDFARwOV83MSEwHwYJKoZIhvcNAQkBFhJwYXZlbEBrdXN0by5jb20u
cnUwgZ8wDQYJKoZIhvcNAQEBBQADgY0AMIGJAoGBAMbSPxEOuFV5B8rKJbdKnZz4
DRr/7SZdmVgeu2HOLnwz8bMDdWneuaVSWRKQHA25c7ND/GVBcytcrH1OK1XMT5H7
zneuvm/AkKTgt+naTE7J1yBXiswixsSGeYU7ZDX8P/x3ymvvNedOWdgSznvShKde
jIE3qO/j/uU4vfPB1y29AgMBAAGjggECMIH/MAkGA1UdEwQCMAAwLAYJYIZIAYb4
QgENBB8WHU9wZW5TU0wgR2VuZXJhdGVkIENlcnRpZmljYXRlMB0GA1UdDgQWBBS2
LI/BZxsVGghwfSJ7/a9DSYOd9DCBpAYDVR0jBIGcMIGZgBT2fOb7FLf2wV4DmRKq
7UDkRBJ2OKF+pHwwejELMAkGA1UEBhMCUlUxCzAJBgNVBAgTAk5BMRIwEAYDVQQH
EwlUT0dMSUFUVEkxFjAUBgNVBAoTDUlOWkEtTFRELUFJU1QxDzANBgNVBAMTBnNl
cnZlcjEhMB8GCSqGSIb3DQEJARYScGF2ZWxAa3VzdG8uY29tLnJ1ggEAMA0GCSqG
SIb3DQEBBAUAA4GBAL6zu2PU0YexI3ELIhaHwMk18aiv2FxkeP/+t1bZumKg7FhJ
I6DXC1hcFjQqMmHjYWVPav7dhn8CKHAXpuiSjLtginpBGkstuccyiWaln+FSt48y
jgqVefLm8NhbSzQg2RQFhX0hqApkKN9UX4EGcYN8gbd6Fue+HuBq1plTo/FR
-----END CERTIFICATE-----
