Certificate:
    Data:
        Version: 3 (0x2)
        Serial Number: 180 (0xb4)
    Signature Algorithm: md5WithRSAEncryption
        Issuer: C=RU, ST=NA, L=TOGLIATTI, O=INZA-LTD-AIST, CN=server/emailAddress=pavel@kusto.com.ru
        Validity
            Not Before: Jun 24 11:35:12 2015 GMT
            Not After : Jun 21 11:35:12 2025 GMT
        Subject: C=RU, ST=NA, O=INZA-LTD-AIST, CN=yagodnoe2/emailAddress=pavel@kusto.com.ru
        Subject Public Key Info:
            Public Key Algorithm: rsaEncryption
                Public-Key: (1024 bit)
                Modulus:
                    00:d6:5c:3d:0e:f2:2d:d6:af:25:6d:85:eb:4d:0f:
                    9d:fd:b4:ae:25:01:67:e7:e3:cb:8a:b4:87:65:d2:
                    ec:5b:a4:6f:17:e6:7c:1c:46:84:97:1d:cb:52:57:
                    f3:af:d9:ed:44:56:c1:ff:85:4e:05:17:94:d5:07:
                    5b:95:22:93:8f:c2:69:59:45:46:83:8c:fc:4a:40:
                    c3:99:8c:17:95:42:a6:22:0e:72:89:4d:75:50:9f:
                    4b:d8:95:88:a7:ad:40:27:5c:0d:79:a1:a4:30:c9:
                    16:0f:0d:62:84:42:bc:fa:0f:54:6e:c2:0c:84:94:
                    55:64:7a:2b:4a:8a:3d:a7:53
                Exponent: 65537 (0x10001)
        X509v3 extensions:
            X509v3 Basic Constraints: 
                CA:FALSE
            Netscape Comment: 
                OpenSSL Generated Certificate
            X509v3 Subject Key Identifier: 
                71:55:14:8C:E8:EE:9A:14:47:2B:30:10:33:89:98:DD:6E:03:A6:06
            X509v3 Authority Key Identifier: 
                keyid:F6:7C:E6:FB:14:B7:F6:C1:5E:03:99:12:AA:ED:40:E4:44:12:76:38
                DirName:/C=RU/ST=NA/L=TOGLIATTI/O=INZA-LTD-AIST/CN=server/emailAddress=pavel@kusto.com.ru
                serial:00

    Signature Algorithm: md5WithRSAEncryption
         aa:3c:85:e8:c0:a3:83:11:e3:8d:48:0e:62:14:66:6d:e9:7a:
         06:2d:26:42:a9:8a:51:b5:84:bc:51:c9:e9:02:18:c8:e5:9b:
         5b:87:ab:d2:a9:ef:6a:dd:ba:89:9c:cc:9d:0d:49:07:b4:24:
         d2:a3:1a:23:e9:c1:97:da:f1:ac:be:ae:69:f3:3d:63:d2:63:
         95:14:08:64:81:10:47:04:0c:4f:d3:12:7d:80:10:e2:48:86:
         43:63:08:35:3e:09:c3:dd:2c:d2:03:b0:59:35:b1:ea:1d:5f:
         96:2e:f5:b2:d2:75:26:e4:17:ad:a2:d8:40:03:65:52:c1:54:
         35:ba
-----BEGIN CERTIFICATE-----
MIIDXjCCAsegAwIBAgICALQwDQYJKoZIhvcNAQEEBQAwejELMAkGA1UEBhMCUlUx
CzAJBgNVBAgTAk5BMRIwEAYDVQQHEwlUT0dMSUFUVEkxFjAUBgNVBAoTDUlOWkEt
TFRELUFJU1QxDzANBgNVBAMTBnNlcnZlcjEhMB8GCSqGSIb3DQEJARYScGF2ZWxA
a3VzdG8uY29tLnJ1MB4XDTE1MDYyNDExMzUxMloXDTI1MDYyMTExMzUxMlowaTEL
MAkGA1UEBhMCUlUxCzAJBgNVBAgTAk5BMRYwFAYDVQQKEw1JTlpBLUxURC1BSVNU
MRIwEAYDVQQDEwl5YWdvZG5vZTIxITAfBgkqhkiG9w0BCQEWEnBhdmVsQGt1c3Rv
LmNvbS5ydTCBnzANBgkqhkiG9w0BAQEFAAOBjQAwgYkCgYEA1lw9DvIt1q8lbYXr
TQ+d/bSuJQFn5+PLirSHZdLsW6RvF+Z8HEaElx3LUlfzr9ntRFbB/4VOBReU1Qdb
lSKTj8JpWUVGg4z8SkDDmYwXlUKmIg5yiU11UJ9L2JWIp61AJ1wNeaGkMMkWDw1i
hEK8+g9UbsIMhJRVZHorSoo9p1MCAwEAAaOCAQIwgf8wCQYDVR0TBAIwADAsBglg
hkgBhvhCAQ0EHxYdT3BlblNTTCBHZW5lcmF0ZWQgQ2VydGlmaWNhdGUwHQYDVR0O
BBYEFHFVFIzo7poURyswEDOJmN1uA6YGMIGkBgNVHSMEgZwwgZmAFPZ85vsUt/bB
XgOZEqrtQOREEnY4oX6kfDB6MQswCQYDVQQGEwJSVTELMAkGA1UECBMCTkExEjAQ
BgNVBAcTCVRPR0xJQVRUSTEWMBQGA1UEChMNSU5aQS1MVEQtQUlTVDEPMA0GA1UE
AxMGc2VydmVyMSEwHwYJKoZIhvcNAQkBFhJwYXZlbEBrdXN0by5jb20ucnWCAQAw
DQYJKoZIhvcNAQEEBQADgYEAqjyF6MCjgxHjjUgOYhRmbel6Bi0mQqmKUbWEvFHJ
6QIYyOWbW4er0qnvat26iZzMnQ1JB7Qk0qMaI+nBl9rxrL6uafM9Y9JjlRQIZIEQ
RwQMT9MSfYAQ4kiGQ2MINT4Jw90s0gOwWTWx6h1fli71stJ1JuQXraLYQANlUsFU
Nbo=
-----END CERTIFICATE-----
