Certificate:
    Data:
        Version: 3 (0x2)
        Serial Number: 181 (0xb5)
    Signature Algorithm: md5WithRSAEncryption
        Issuer: C=RU, ST=NA, L=TOGLIATTI, O=INZA-LTD-AIST, CN=server/emailAddress=pavel@kusto.com.ru
        Validity
            Not Before: Jul 13 07:24:12 2015 GMT
            Not After : Jul 10 07:24:12 2025 GMT
        Subject: C=RU, ST=NA, O=INZA-LTD-AIST, CN=vadim/emailAddress=pavel@kusto.com.ru
        Subject Public Key Info:
            Public Key Algorithm: rsaEncryption
                Public-Key: (1024 bit)
                Modulus:
                    00:cd:6b:d1:89:3b:f0:02:2e:0b:4e:01:3e:55:28:
                    1f:f5:cc:e3:27:15:aa:d6:50:c9:8e:59:2f:3d:cf:
                    35:2f:ce:b1:30:96:2c:eb:81:ff:a6:c8:b2:4e:8f:
                    eb:4f:93:1e:47:d9:33:c6:bd:67:ae:19:e5:84:66:
                    0e:ae:aa:89:94:dd:3d:8b:9d:71:53:2b:5a:90:49:
                    ed:ae:ad:95:0a:76:cf:f7:fa:3b:83:fd:5f:cc:92:
                    ff:3d:be:c0:ec:6b:05:79:96:c5:de:4a:b8:4f:aa:
                    34:1a:3e:27:3d:dd:00:6f:df:79:40:7a:10:4d:a5:
                    03:6c:33:d3:9e:4e:e7:8f:41
                Exponent: 65537 (0x10001)
        X509v3 extensions:
            X509v3 Basic Constraints: 
                CA:FALSE
            Netscape Comment: 
                OpenSSL Generated Certificate
            X509v3 Subject Key Identifier: 
                37:53:6A:5C:75:D0:2B:29:D3:97:3C:5F:7F:15:57:E8:2A:8D:E9:23
            X509v3 Authority Key Identifier: 
                keyid:F6:7C:E6:FB:14:B7:F6:C1:5E:03:99:12:AA:ED:40:E4:44:12:76:38
                DirName:/C=RU/ST=NA/L=TOGLIATTI/O=INZA-LTD-AIST/CN=server/emailAddress=pavel@kusto.com.ru
                serial:00

    Signature Algorithm: md5WithRSAEncryption
         69:85:f4:30:da:35:d0:6e:98:c2:6a:ec:5f:c3:eb:ce:eb:f8:
         bb:d5:f0:0a:ec:05:ba:ee:f5:f5:ab:79:e0:d1:c8:4e:01:ef:
         9c:a1:e9:fd:69:79:ef:4d:17:ee:a6:d1:b5:c8:af:2b:e2:01:
         33:3a:19:46:7c:e1:11:cf:11:d3:ac:d5:a3:48:a5:66:e0:ed:
         05:d9:6f:5b:9d:b3:97:a2:89:6c:48:25:22:e7:e4:0f:4a:90:
         c2:2d:2f:10:8f:b7:ff:0c:a9:09:01:c3:ba:14:88:24:73:b6:
         8e:ac:94:ab:ef:1f:de:ab:4b:d5:ed:87:f7:c9:fc:19:fa:55:
         1f:9a
-----BEGIN CERTIFICATE-----
MIIDWjCCAsOgAwIBAgICALUwDQYJKoZIhvcNAQEEBQAwejELMAkGA1UEBhMCUlUx
CzAJBgNVBAgTAk5BMRIwEAYDVQQHEwlUT0dMSUFUVEkxFjAUBgNVBAoTDUlOWkEt
TFRELUFJU1QxDzANBgNVBAMTBnNlcnZlcjEhMB8GCSqGSIb3DQEJARYScGF2ZWxA
a3VzdG8uY29tLnJ1MB4XDTE1MDcxMzA3MjQxMloXDTI1MDcxMDA3MjQxMlowZTEL
MAkGA1UEBhMCUlUxCzAJBgNVBAgTAk5BMRYwFAYDVQQKEw1JTlpBLUxURC1BSVNU
MQ4wDAYDVQQDEwV2YWRpbTEhMB8GCSqGSIb3DQEJARYScGF2ZWxAa3VzdG8uY29t
LnJ1MIGfMA0GCSqGSIb3DQEBAQUAA4GNADCBiQKBgQDNa9GJO/ACLgtOAT5VKB/1
zOMnFarWUMmOWS89zzUvzrEwlizrgf+myLJOj+tPkx5H2TPGvWeuGeWEZg6uqomU
3T2LnXFTK1qQSe2urZUKds/3+juD/V/Mkv89vsDsawV5lsXeSrhPqjQaPic93QBv
33lAehBNpQNsM9OeTuePQQIDAQABo4IBAjCB/zAJBgNVHRMEAjAAMCwGCWCGSAGG
+EIBDQQfFh1PcGVuU1NMIEdlbmVyYXRlZCBDZXJ0aWZpY2F0ZTAdBgNVHQ4EFgQU
N1NqXHXQKynTlzxffxVX6CqN6SMwgaQGA1UdIwSBnDCBmYAU9nzm+xS39sFeA5kS
qu1A5EQSdjihfqR8MHoxCzAJBgNVBAYTAlJVMQswCQYDVQQIEwJOQTESMBAGA1UE
BxMJVE9HTElBVFRJMRYwFAYDVQQKEw1JTlpBLUxURC1BSVNUMQ8wDQYDVQQDEwZz
ZXJ2ZXIxITAfBgkqhkiG9w0BCQEWEnBhdmVsQGt1c3RvLmNvbS5ydYIBADANBgkq
hkiG9w0BAQQFAAOBgQBphfQw2jXQbpjCauxfw+vO6/i71fAK7AW67vX1q3ng0chO
Ae+coen9aXnvTRfuptG1yK8r4gEzOhlGfOERzxHTrNWjSKVm4O0F2W9bnbOXools
SCUi5+QPSpDCLS8Qj7f/DKkJAcO6FIgkc7aOrJSr7x/eq0vV7Yf3yfwZ+lUfmg==
-----END CERTIFICATE-----
