Certificate:
    Data:
        Version: 3 (0x2)
        Serial Number: 182 (0xb6)
    Signature Algorithm: md5WithRSAEncryption
        Issuer: C=RU, ST=NA, L=TOGLIATTI, O=INZA-LTD-AIST, CN=server/emailAddress=pavel@kusto.com.ru
        Validity
            Not Before: Jul 16 10:50:41 2015 GMT
            Not After : Jul 13 10:50:41 2025 GMT
        Subject: C=RU, ST=NA, O=INZA-LTD-AIST, CN=julia_stella/emailAddress=pavel@kusto.com.ru
        Subject Public Key Info:
            Public Key Algorithm: rsaEncryption
                Public-Key: (1024 bit)
                Modulus:
                    00:c6:11:5a:94:1f:6a:be:d0:52:22:20:07:26:bd:
                    e8:ce:8c:b1:40:f3:0b:7f:09:ac:88:16:3e:f6:8a:
                    fb:1c:2c:d4:dc:b4:67:63:cc:06:28:c6:f0:ab:3e:
                    dc:8c:7a:4b:69:ec:d5:ba:c3:50:8b:76:be:27:17:
                    c7:6d:6a:04:b7:c9:5d:cf:84:35:91:a8:5c:09:45:
                    6f:d3:84:0f:a2:25:44:9b:b8:a8:11:82:6d:48:f4:
                    ee:85:a3:fa:c9:0d:c3:0d:a1:2c:18:45:17:e2:e2:
                    83:d8:e1:cf:06:56:e6:b2:36:a8:5d:3c:68:1f:c9:
                    32:d1:b4:8e:32:a1:29:d9:a9
                Exponent: 65537 (0x10001)
        X509v3 extensions:
            X509v3 Basic Constraints: 
                CA:FALSE
            Netscape Comment: 
                OpenSSL Generated Certificate
            X509v3 Subject Key Identifier: 
                08:F5:84:1A:E6:66:2D:51:CC:BF:52:F6:9E:28:DC:1D:42:D2:49:18
            X509v3 Authority Key Identifier: 
                keyid:F6:7C:E6:FB:14:B7:F6:C1:5E:03:99:12:AA:ED:40:E4:44:12:76:38
                DirName:/C=RU/ST=NA/L=TOGLIATTI/O=INZA-LTD-AIST/CN=server/emailAddress=pavel@kusto.com.ru
                serial:00

    Signature Algorithm: md5WithRSAEncryption
         19:e2:b9:38:5f:c2:db:ad:f7:0f:22:f4:0e:aa:5d:53:9b:f0:
         07:c5:94:de:d9:e3:d1:fb:09:7d:91:88:02:89:47:9f:f3:1e:
         43:2b:9d:bf:bd:5d:00:d4:df:42:7e:c9:91:b7:1e:15:10:fb:
         45:03:32:b0:cb:cb:a1:80:07:27:0d:0e:f4:dc:51:48:44:75:
         b2:2c:f9:03:25:98:0c:54:d9:99:c7:23:01:b1:6d:4f:34:63:
         99:a0:53:f5:0b:1f:17:fb:d1:e3:56:c3:4e:fd:e3:ac:5a:28:
         07:0a:30:6e:31:8f:9f:ba:b0:05:27:1c:18:e3:7e:8d:22:49:
         f6:8a
-----BEGIN CERTIFICATE-----
MIIDYTCCAsqgAwIBAgICALYwDQYJKoZIhvcNAQEEBQAwejELMAkGA1UEBhMCUlUx
CzAJBgNVBAgTAk5BMRIwEAYDVQQHEwlUT0dMSUFUVEkxFjAUBgNVBAoTDUlOWkEt
TFRELUFJU1QxDzANBgNVBAMTBnNlcnZlcjEhMB8GCSqGSIb3DQEJARYScGF2ZWxA
a3VzdG8uY29tLnJ1MB4XDTE1MDcxNjEwNTA0MVoXDTI1MDcxMzEwNTA0MVowbDEL
MAkGA1UEBhMCUlUxCzAJBgNVBAgTAk5BMRYwFAYDVQQKEw1JTlpBLUxURC1BSVNU
MRUwEwYDVQQDFAxqdWxpYV9zdGVsbGExITAfBgkqhkiG9w0BCQEWEnBhdmVsQGt1
c3RvLmNvbS5ydTCBnzANBgkqhkiG9w0BAQEFAAOBjQAwgYkCgYEAxhFalB9qvtBS
IiAHJr3ozoyxQPMLfwmsiBY+9or7HCzU3LRnY8wGKMbwqz7cjHpLaezVusNQi3a+
JxfHbWoEt8ldz4Q1kahcCUVv04QPoiVEm7ioEYJtSPTuhaP6yQ3DDaEsGEUX4uKD
2OHPBlbmsjaoXTxoH8ky0bSOMqEp2akCAwEAAaOCAQIwgf8wCQYDVR0TBAIwADAs
BglghkgBhvhCAQ0EHxYdT3BlblNTTCBHZW5lcmF0ZWQgQ2VydGlmaWNhdGUwHQYD
VR0OBBYEFAj1hBrmZi1RzL9S9p4o3B1C0kkYMIGkBgNVHSMEgZwwgZmAFPZ85vsU
t/bBXgOZEqrtQOREEnY4oX6kfDB6MQswCQYDVQQGEwJSVTELMAkGA1UECBMCTkEx
EjAQBgNVBAcTCVRPR0xJQVRUSTEWMBQGA1UEChMNSU5aQS1MVEQtQUlTVDEPMA0G
A1UEAxMGc2VydmVyMSEwHwYJKoZIhvcNAQkBFhJwYXZlbEBrdXN0by5jb20ucnWC
AQAwDQYJKoZIhvcNAQEEBQADgYEAGeK5OF/C2633DyL0DqpdU5vwB8WU3tnj0fsJ
fZGIAolHn/MeQyudv71dANTfQn7JkbceFRD7RQMysMvLoYAHJw0O9NxRSER1siz5
AyWYDFTZmccjAbFtTzRjmaBT9QsfF/vR41bDTv3jrFooBwowbjGPn7qwBSccGON+
jSJJ9oo=
-----END CERTIFICATE-----
