Certificate:
    Data:
        Version: 3 (0x2)
        Serial Number: 183 (0xb7)
    Signature Algorithm: md5WithRSAEncryption
        Issuer: C=RU, ST=NA, L=TOGLIATTI, O=INZA-LTD-AIST, CN=server/emailAddress=pavel@kusto.com.ru
        Validity
            Not Before: Jul 17 08:41:07 2015 GMT
            Not After : Jul 14 08:41:07 2025 GMT
        Subject: C=RU, ST=NA, O=INZA-LTD-AIST, CN=muxa_android/emailAddress=pavel@kusto.com.ru
        Subject Public Key Info:
            Public Key Algorithm: rsaEncryption
                Public-Key: (1024 bit)
                Modulus:
                    00:bc:38:21:87:38:a8:ee:f3:60:08:48:57:e8:58:
                    1a:5d:cd:f8:50:ae:0e:80:c1:e9:b0:40:b8:a0:f6:
                    75:e1:13:bb:0f:af:58:4c:52:88:5b:f3:27:57:25:
                    1c:4c:ed:d3:41:b2:11:b1:d7:f1:62:0c:b2:18:a1:
                    36:ea:a1:db:98:ff:8c:43:4a:57:d2:45:06:ca:e9:
                    ed:62:6d:2a:94:b3:3e:f1:3b:52:a9:54:ec:a9:dd:
                    70:7c:d4:09:5f:16:3b:59:d7:44:c0:e9:ab:1b:d9:
                    93:af:1e:96:0c:9e:df:d7:d4:2d:cb:66:e4:65:62:
                    47:13:cc:e4:d4:1c:f9:13:93
                Exponent: 65537 (0x10001)
        X509v3 extensions:
            X509v3 Basic Constraints: 
                CA:FALSE
            Netscape Comment: 
                OpenSSL Generated Certificate
            X509v3 Subject Key Identifier: 
                2F:EA:A2:F6:0F:CD:E4:1B:05:6C:1D:7A:3F:E8:37:FC:35:EE:EB:5F
            X509v3 Authority Key Identifier: 
                keyid:F6:7C:E6:FB:14:B7:F6:C1:5E:03:99:12:AA:ED:40:E4:44:12:76:38
                DirName:/C=RU/ST=NA/L=TOGLIATTI/O=INZA-LTD-AIST/CN=server/emailAddress=pavel@kusto.com.ru
                serial:00

    Signature Algorithm: md5WithRSAEncryption
         a6:bb:8a:d9:60:f4:70:88:de:68:f2:70:c7:34:f2:24:b5:42:
         fd:61:c4:0e:ff:ab:43:0a:84:cc:cf:0e:5e:ae:03:6c:c0:fc:
         5f:42:0d:5e:47:d9:13:38:64:33:3d:36:46:ba:8d:60:01:16:
         08:a1:85:af:d4:c7:e7:46:a4:50:5f:0e:f1:e7:f6:ef:34:6b:
         ad:cd:d0:a1:d1:31:38:57:7a:92:f7:4b:e6:47:37:e0:14:15:
         bd:0d:37:85:07:bf:6b:e4:3b:3d:80:0e:b3:43:ef:15:25:f6:
         14:ec:12:b9:55:f9:7b:05:7a:25:2c:88:19:64:a7:3b:53:8d:
         7e:b5
-----BEGIN CERTIFICATE-----
MIIDYTCCAsqgAwIBAgICALcwDQYJKoZIhvcNAQEEBQAwejELMAkGA1UEBhMCUlUx
CzAJBgNVBAgTAk5BMRIwEAYDVQQHEwlUT0dMSUFUVEkxFjAUBgNVBAoTDUlOWkEt
TFRELUFJU1QxDzANBgNVBAMTBnNlcnZlcjEhMB8GCSqGSIb3DQEJARYScGF2ZWxA
a3VzdG8uY29tLnJ1MB4XDTE1MDcxNzA4NDEwN1oXDTI1MDcxNDA4NDEwN1owbDEL
MAkGA1UEBhMCUlUxCzAJBgNVBAgTAk5BMRYwFAYDVQQKEw1JTlpBLUxURC1BSVNU
MRUwEwYDVQQDFAxtdXhhX2FuZHJvaWQxITAfBgkqhkiG9w0BCQEWEnBhdmVsQGt1
c3RvLmNvbS5ydTCBnzANBgkqhkiG9w0BAQEFAAOBjQAwgYkCgYEAvDghhzio7vNg
CEhX6FgaXc34UK4OgMHpsEC4oPZ14RO7D69YTFKIW/MnVyUcTO3TQbIRsdfxYgyy
GKE26qHbmP+MQ0pX0kUGyuntYm0qlLM+8TtSqVTsqd1wfNQJXxY7WddEwOmrG9mT
rx6WDJ7f19Qty2bkZWJHE8zk1Bz5E5MCAwEAAaOCAQIwgf8wCQYDVR0TBAIwADAs
BglghkgBhvhCAQ0EHxYdT3BlblNTTCBHZW5lcmF0ZWQgQ2VydGlmaWNhdGUwHQYD
VR0OBBYEFC/qovYPzeQbBWwdej/oN/w17utfMIGkBgNVHSMEgZwwgZmAFPZ85vsU
t/bBXgOZEqrtQOREEnY4oX6kfDB6MQswCQYDVQQGEwJSVTELMAkGA1UECBMCTkEx
EjAQBgNVBAcTCVRPR0xJQVRUSTEWMBQGA1UEChMNSU5aQS1MVEQtQUlTVDEPMA0G
A1UEAxMGc2VydmVyMSEwHwYJKoZIhvcNAQkBFhJwYXZlbEBrdXN0by5jb20ucnWC
AQAwDQYJKoZIhvcNAQEEBQADgYEApruK2WD0cIjeaPJwxzTyJLVC/WHEDv+rQwqE
zM8OXq4DbMD8X0INXkfZEzhkMz02RrqNYAEWCKGFr9TH50akUF8O8ef27zRrrc3Q
odExOFd6kvdL5kc34BQVvQ03hQe/a+Q7PYAOs0PvFSX2FOwSuVX5ewV6JSyIGWSn
O1ONfrU=
-----END CERTIFICATE-----
