Certificate:
    Data:
        Version: 3 (0x2)
        Serial Number: 119 (0x77)
        Signature Algorithm: md5WithRSAEncryption
        Issuer: C=RU, ST=NA, L=TOGLIATTI, O=INZA-LTD-AIST, CN=server/emailAddress=pavel@kusto.com.ru
        Validity
            Not Before: Sep 11 12:30:27 2012 GMT
            Not After : Sep  9 12:30:27 2022 GMT
        Subject: C=RU, ST=NA, O=INZA-LTD-AIST, CN=fedor/emailAddress=pavel@kusto.com.ru
        Subject Public Key Info:
            Public Key Algorithm: rsaEncryption
            RSA Public Key: (1024 bit)
                Modulus (1024 bit):
                    00:d4:6c:ab:47:d7:1a:8c:17:49:f2:d5:f3:73:7d:
                    20:b2:1e:35:87:cd:56:cc:41:9b:f2:17:2a:41:7b:
                    2a:f2:bf:3b:12:98:c1:63:9b:14:28:87:7a:a3:9e:
                    3f:e2:81:4d:7f:e6:a0:03:b0:d9:46:1e:54:2d:d5:
                    98:68:e4:a9:80:4d:cb:e6:ca:63:6d:77:30:e0:f4:
                    8f:15:69:2a:8a:79:68:b7:d7:8f:e2:13:4e:e3:67:
                    bf:58:1b:ec:67:3f:65:2f:64:74:e7:66:68:85:66:
                    17:b0:8a:86:9e:f1:07:b3:01:ca:aa:97:4e:3e:6b:
                    e7:50:d5:c7:84:be:ed:5f:53
                Exponent: 65537 (0x10001)
        X509v3 extensions:
            X509v3 Basic Constraints: 
                CA:FALSE
            Netscape Comment: 
                OpenSSL Generated Certificate
            X509v3 Subject Key Identifier: 
                D9:4F:16:B1:8C:6D:80:F1:89:C7:B0:E1:86:50:87:B0:07:CF:4C:2A
            X509v3 Authority Key Identifier: 
                keyid:F6:7C:E6:FB:14:B7:F6:C1:5E:03:99:12:AA:ED:40:E4:44:12:76:38
                DirName:/C=RU/ST=NA/L=TOGLIATTI/O=INZA-LTD-AIST/CN=server/emailAddress=pavel@kusto.com.ru
                serial:00

    Signature Algorithm: md5WithRSAEncryption
        b3:f9:4f:52:45:ec:c3:6c:21:3a:40:ca:e7:d6:0f:af:fb:62:
        fb:cb:c9:99:88:b0:32:fc:a2:b1:89:10:f6:01:4e:72:5a:cd:
        f5:31:fe:7f:d7:75:e5:44:15:32:3c:ee:c7:8f:15:8c:ad:ba:
        50:d7:8a:25:11:28:72:28:3b:41:75:81:cb:1e:54:e0:67:10:
        0c:8b:a6:0d:ad:ad:5f:2e:dc:2c:80:93:6a:e7:4d:29:b8:88:
        73:9a:68:0c:20:85:87:22:b1:54:ae:4e:45:e1:54:a5:2b:cc:
        0d:73:0a:73:36:51:b9:58:8e:92:cd:03:db:f5:6c:af:1b:71:
        c3:d6
-----BEGIN CERTIFICATE-----
MIIDWTCCAsKgAwIBAgIBdzANBgkqhkiG9w0BAQQFADB6MQswCQYDVQQGEwJSVTEL
MAkGA1UECBMCTkExEjAQBgNVBAcTCVRPR0xJQVRUSTEWMBQGA1UEChMNSU5aQS1M
VEQtQUlTVDEPMA0GA1UEAxMGc2VydmVyMSEwHwYJKoZIhvcNAQkBFhJwYXZlbEBr
dXN0by5jb20ucnUwHhcNMTIwOTExMTIzMDI3WhcNMjIwOTA5MTIzMDI3WjBlMQsw
CQYDVQQGEwJSVTELMAkGA1UECBMCTkExFjAUBgNVBAoTDUlOWkEtTFRELUFJU1Qx
DjAMBgNVBAMTBWZlZG9yMSEwHwYJKoZIhvcNAQkBFhJwYXZlbEBrdXN0by5jb20u
cnUwgZ8wDQYJKoZIhvcNAQEBBQADgY0AMIGJAoGBANRsq0fXGowXSfLV83N9ILIe
NYfNVsxBm/IXKkF7KvK/OxKYwWObFCiHeqOeP+KBTX/moAOw2UYeVC3VmGjkqYBN
y+bKY213MOD0jxVpKop5aLfXj+ITTuNnv1gb7Gc/ZS9kdOdmaIVmF7CKhp7xB7MB
yqqXTj5r51DVx4S+7V9TAgMBAAGjggECMIH/MAkGA1UdEwQCMAAwLAYJYIZIAYb4
QgENBB8WHU9wZW5TU0wgR2VuZXJhdGVkIENlcnRpZmljYXRlMB0GA1UdDgQWBBTZ
TxaxjG2A8YnHsOGGUIewB89MKjCBpAYDVR0jBIGcMIGZgBT2fOb7FLf2wV4DmRKq
7UDkRBJ2OKF+pHwwejELMAkGA1UEBhMCUlUxCzAJBgNVBAgTAk5BMRIwEAYDVQQH
EwlUT0dMSUFUVEkxFjAUBgNVBAoTDUlOWkEtTFRELUFJU1QxDzANBgNVBAMTBnNl
cnZlcjEhMB8GCSqGSIb3DQEJARYScGF2ZWxAa3VzdG8uY29tLnJ1ggEAMA0GCSqG
SIb3DQEBBAUAA4GBALP5T1JF7MNsITpAyufWD6/7YvvLyZmIsDL8orGJEPYBTnJa
zfUx/n/XdeVEFTI87sePFYytulDXiiURKHIoO0F1gcseVOBnEAyLpg2trV8u3CyA
k2rnTSm4iHOaaAwghYcisVSuTkXhVKUrzA1zCnM2UblYjpLNA9v1bK8bccPW
-----END CERTIFICATE-----
