Certificate:
    Data:
        Version: 3 (0x2)
        Serial Number: 101 (0x65)
        Signature Algorithm: md5WithRSAEncryption
        Issuer: C=RU, ST=NA, L=TOGLIATTI, O=INZA-LTD-AIST, CN=server/emailAddress=pavel@kusto.com.ru
        Validity
            Not Before: Mar 12 06:03:20 2012 GMT
            Not After : Mar 10 06:03:20 2022 GMT
        Subject: C=RU, ST=NA, O=INZA-LTD-AIST, CN=p19_3/emailAddress=pavel@kusto.com.ru
        Subject Public Key Info:
            Public Key Algorithm: rsaEncryption
            RSA Public Key: (1024 bit)
                Modulus (1024 bit):
                    00:be:1a:12:b2:a4:31:b3:71:98:d3:95:42:b8:f3:
                    a9:f8:51:49:23:44:9d:59:cf:2d:3c:48:6c:54:92:
                    57:3e:f7:da:40:82:01:13:e0:d6:78:94:f0:67:0d:
                    1e:aa:c2:f9:fe:ce:2b:d4:2b:be:5a:9e:ae:a3:91:
                    97:52:be:3f:44:d1:71:e1:e3:c7:a3:ee:29:6f:a7:
                    2a:c7:bd:9c:00:3d:3a:33:12:de:ac:ed:ff:31:2f:
                    88:a0:04:a0:2b:cf:1a:9b:95:4e:13:99:bc:82:00:
                    9e:72:b1:84:f0:35:1b:21:0d:e0:2a:b8:74:ff:28:
                    13:70:df:6f:90:fc:7b:d8:9b
                Exponent: 65537 (0x10001)
        X509v3 extensions:
            X509v3 Basic Constraints: 
                CA:FALSE
            Netscape Comment: 
                OpenSSL Generated Certificate
            X509v3 Subject Key Identifier: 
                32:45:61:A8:76:48:4E:92:8F:38:50:2E:34:12:C8:82:EF:D3:63:32
            X509v3 Authority Key Identifier: 
                keyid:F6:7C:E6:FB:14:B7:F6:C1:5E:03:99:12:AA:ED:40:E4:44:12:76:38
                DirName:/C=RU/ST=NA/L=TOGLIATTI/O=INZA-LTD-AIST/CN=server/emailAddress=pavel@kusto.com.ru
                serial:00

    Signature Algorithm: md5WithRSAEncryption
        34:88:8d:9c:91:41:17:b9:69:11:96:86:53:16:e7:26:e0:fc:
        dd:a8:18:2e:36:8f:34:99:12:75:69:82:4e:a6:fe:72:c9:c1:
        40:11:38:e1:d2:57:f8:f0:51:65:d4:a3:05:1d:04:a5:f7:ec:
        1c:71:cd:9b:32:ff:be:6a:99:73:f6:67:f0:eb:ac:87:1c:37:
        85:c8:ee:c1:50:2e:24:56:76:58:66:b7:5d:7b:71:b0:b8:07:
        60:cb:6d:f1:93:d0:fd:d0:20:14:f3:01:96:34:72:e2:1e:0f:
        f9:4e:64:30:5b:8d:4e:22:57:65:1a:f9:e4:8d:f3:85:a8:09:
        78:c8
-----BEGIN CERTIFICATE-----
MIIDWTCCAsKgAwIBAgIBZTANBgkqhkiG9w0BAQQFADB6MQswCQYDVQQGEwJSVTEL
MAkGA1UECBMCTkExEjAQBgNVBAcTCVRPR0xJQVRUSTEWMBQGA1UEChMNSU5aQS1M
VEQtQUlTVDEPMA0GA1UEAxMGc2VydmVyMSEwHwYJKoZIhvcNAQkBFhJwYXZlbEBr
dXN0by5jb20ucnUwHhcNMTIwMzEyMDYwMzIwWhcNMjIwMzEwMDYwMzIwWjBlMQsw
CQYDVQQGEwJSVTELMAkGA1UECBMCTkExFjAUBgNVBAoTDUlOWkEtTFRELUFJU1Qx
DjAMBgNVBAMUBXAxOV8zMSEwHwYJKoZIhvcNAQkBFhJwYXZlbEBrdXN0by5jb20u
cnUwgZ8wDQYJKoZIhvcNAQEBBQADgY0AMIGJAoGBAL4aErKkMbNxmNOVQrjzqfhR
SSNEnVnPLTxIbFSSVz732kCCARPg1niU8GcNHqrC+f7OK9QrvlqerqORl1K+P0TR
ceHjx6PuKW+nKse9nAA9OjMS3qzt/zEviKAEoCvPGpuVThOZvIIAnnKxhPA1GyEN
4Cq4dP8oE3Dfb5D8e9ibAgMBAAGjggECMIH/MAkGA1UdEwQCMAAwLAYJYIZIAYb4
QgENBB8WHU9wZW5TU0wgR2VuZXJhdGVkIENlcnRpZmljYXRlMB0GA1UdDgQWBBQy
RWGodkhOko84UC40EsiC79NjMjCBpAYDVR0jBIGcMIGZgBT2fOb7FLf2wV4DmRKq
7UDkRBJ2OKF+pHwwejELMAkGA1UEBhMCUlUxCzAJBgNVBAgTAk5BMRIwEAYDVQQH
EwlUT0dMSUFUVEkxFjAUBgNVBAoTDUlOWkEtTFRELUFJU1QxDzANBgNVBAMTBnNl
cnZlcjEhMB8GCSqGSIb3DQEJARYScGF2ZWxAa3VzdG8uY29tLnJ1ggEAMA0GCSqG
SIb3DQEBBAUAA4GBADSIjZyRQRe5aRGWhlMW5ybg/N2oGC42jzSZEnVpgk6m/nLJ
wUAROOHSV/jwUWXUowUdBKX37BxxzZsy/75qmXP2Z/DrrIccN4XI7sFQLiRWdlhm
t117cbC4B2DLbfGT0P3QIBTzAZY0cuIeD/lOZDBbjU4iV2Ua+eSN84WoCXjI
-----END CERTIFICATE-----
