Certificate:
    Data:
        Version: 3 (0x2)
        Serial Number: 124 (0x7c)
        Signature Algorithm: md5WithRSAEncryption
        Issuer: C=RU, ST=NA, L=TOGLIATTI, O=INZA-LTD-AIST, CN=server/emailAddress=pavel@kusto.com.ru
        Validity
            Not Before: Oct  1 10:12:30 2012 GMT
            Not After : Sep 29 10:12:30 2022 GMT
        Subject: C=RU, ST=NA, O=INZA-LTD-AIST, CN=p_50let/emailAddress=pavel@kusto.com.ru
        Subject Public Key Info:
            Public Key Algorithm: rsaEncryption
            RSA Public Key: (1024 bit)
                Modulus (1024 bit):
                    00:a3:50:a6:8e:15:54:61:a4:b9:b7:6a:60:9a:9e:
                    89:10:89:de:09:d5:37:5b:87:67:5f:61:c9:3d:e0:
                    b2:eb:c7:98:3d:c9:61:d7:c4:a1:5c:9e:a1:17:bf:
                    d5:7a:77:94:d2:7e:33:88:c9:4e:28:c7:f5:a4:e3:
                    d8:07:b9:cc:45:95:a3:71:dd:ff:c5:42:f4:4b:66:
                    58:24:be:98:cb:76:21:f2:7e:8b:cc:28:0d:06:0f:
                    35:3a:f1:96:85:a8:61:cf:80:e3:bc:4f:a3:58:bd:
                    10:7b:d2:9b:83:59:de:6c:30:c5:c5:0b:3f:25:34:
                    68:d0:24:8e:69:21:dc:36:6f
                Exponent: 65537 (0x10001)
        X509v3 extensions:
            X509v3 Basic Constraints: 
                CA:FALSE
            Netscape Comment: 
                OpenSSL Generated Certificate
            X509v3 Subject Key Identifier: 
                3C:67:B9:5A:EC:B2:27:6E:08:F1:58:34:C3:8B:C2:D5:1D:04:B8:63
            X509v3 Authority Key Identifier: 
                keyid:F6:7C:E6:FB:14:B7:F6:C1:5E:03:99:12:AA:ED:40:E4:44:12:76:38
                DirName:/C=RU/ST=NA/L=TOGLIATTI/O=INZA-LTD-AIST/CN=server/emailAddress=pavel@kusto.com.ru
                serial:00

    Signature Algorithm: md5WithRSAEncryption
        40:1a:aa:c1:22:bc:14:aa:fc:31:7f:79:6e:67:f3:48:db:d5:
        25:3a:00:1b:1f:64:d9:35:1c:93:52:89:3c:0d:8a:fe:b3:4d:
        19:33:a4:20:b7:8c:b3:f3:50:35:50:55:0c:ee:67:18:88:01:
        7e:ee:24:9a:4f:a1:92:45:db:10:fc:19:c5:b8:47:b7:dc:92:
        e1:2c:8a:91:a7:cf:8d:c3:83:73:46:87:ab:9f:86:3a:58:76:
        1d:12:47:df:8f:6d:61:2b:70:bc:61:70:b8:9f:b4:75:bb:fb:
        bf:79:19:15:96:04:d0:ec:be:ab:1f:c3:dc:ec:69:75:a0:d3:
        b7:98
-----BEGIN CERTIFICATE-----
MIIDWzCCAsSgAwIBAgIBfDANBgkqhkiG9w0BAQQFADB6MQswCQYDVQQGEwJSVTEL
MAkGA1UECBMCTkExEjAQBgNVBAcTCVRPR0xJQVRUSTEWMBQGA1UEChMNSU5aQS1M
VEQtQUlTVDEPMA0GA1UEAxMGc2VydmVyMSEwHwYJKoZIhvcNAQkBFhJwYXZlbEBr
dXN0by5jb20ucnUwHhcNMTIxMDAxMTAxMjMwWhcNMjIwOTI5MTAxMjMwWjBnMQsw
CQYDVQQGEwJSVTELMAkGA1UECBMCTkExFjAUBgNVBAoTDUlOWkEtTFRELUFJU1Qx
EDAOBgNVBAMUB3BfNTBsZXQxITAfBgkqhkiG9w0BCQEWEnBhdmVsQGt1c3RvLmNv
bS5ydTCBnzANBgkqhkiG9w0BAQEFAAOBjQAwgYkCgYEAo1CmjhVUYaS5t2pgmp6J
EIneCdU3W4dnX2HJPeCy68eYPclh18ShXJ6hF7/VeneU0n4ziMlOKMf1pOPYB7nM
RZWjcd3/xUL0S2ZYJL6Yy3Yh8n6LzCgNBg81OvGWhahhz4DjvE+jWL0Qe9Kbg1ne
bDDFxQs/JTRo0CSOaSHcNm8CAwEAAaOCAQIwgf8wCQYDVR0TBAIwADAsBglghkgB
hvhCAQ0EHxYdT3BlblNTTCBHZW5lcmF0ZWQgQ2VydGlmaWNhdGUwHQYDVR0OBBYE
FDxnuVrssiduCPFYNMOLwtUdBLhjMIGkBgNVHSMEgZwwgZmAFPZ85vsUt/bBXgOZ
EqrtQOREEnY4oX6kfDB6MQswCQYDVQQGEwJSVTELMAkGA1UECBMCTkExEjAQBgNV
BAcTCVRPR0xJQVRUSTEWMBQGA1UEChMNSU5aQS1MVEQtQUlTVDEPMA0GA1UEAxMG
c2VydmVyMSEwHwYJKoZIhvcNAQkBFhJwYXZlbEBrdXN0by5jb20ucnWCAQAwDQYJ
KoZIhvcNAQEEBQADgYEAQBqqwSK8FKr8MX95bmfzSNvVJToAGx9k2TUck1KJPA2K
/rNNGTOkILeMs/NQNVBVDO5nGIgBfu4kmk+hkkXbEPwZxbhHt9yS4SyKkafPjcOD
c0aHq5+GOlh2HRJH349tYStwvGFwuJ+0dbv7v3kZFZYE0Oy+qx/D3OxpdaDTt5g=
-----END CERTIFICATE-----
