Certificate:
    Data:
        Version: 3 (0x2)
        Serial Number: 108 (0x6c)
        Signature Algorithm: md5WithRSAEncryption
        Issuer: C=RU, ST=NA, L=TOGLIATTI, O=INZA-LTD-AIST, CN=server/emailAddress=pavel@kusto.com.ru
        Validity
            Not Before: May 10 06:24:52 2012 GMT
            Not After : May  8 06:24:52 2022 GMT
        Subject: C=RU, ST=NA, O=INZA-LTD-AIST, CN=p_mur4/emailAddress=pavel@kusto.com.ru
        Subject Public Key Info:
            Public Key Algorithm: rsaEncryption
            RSA Public Key: (1024 bit)
                Modulus (1024 bit):
                    00:a9:44:ed:ba:75:5d:98:49:0b:1b:1f:6a:75:b8:
                    0f:ad:0e:c0:4e:59:58:18:6f:fb:37:c4:82:19:e0:
                    23:4a:53:a9:1e:6f:af:3e:30:b4:af:44:71:93:a0:
                    bb:65:27:28:19:65:2a:37:a7:16:3e:6a:41:aa:99:
                    29:1e:b1:6d:ca:60:bd:e5:fe:11:f9:a2:1d:e3:3e:
                    2f:21:f7:87:14:ec:e8:e1:c7:b7:38:43:7f:37:0b:
                    a3:c2:ed:05:95:eb:3c:04:ae:de:f6:cf:4f:d6:e9:
                    de:03:24:63:1b:39:ee:b8:2a:51:31:f6:55:ce:51:
                    50:f7:53:50:70:87:71:24:a3
                Exponent: 65537 (0x10001)
        X509v3 extensions:
            X509v3 Basic Constraints: 
                CA:FALSE
            Netscape Comment: 
                OpenSSL Generated Certificate
            X509v3 Subject Key Identifier: 
                93:6F:4C:B5:38:11:70:05:23:BC:B9:B1:AE:C6:92:DE:D3:D3:AF:F6
            X509v3 Authority Key Identifier: 
                keyid:F6:7C:E6:FB:14:B7:F6:C1:5E:03:99:12:AA:ED:40:E4:44:12:76:38
                DirName:/C=RU/ST=NA/L=TOGLIATTI/O=INZA-LTD-AIST/CN=server/emailAddress=pavel@kusto.com.ru
                serial:00

    Signature Algorithm: md5WithRSAEncryption
        14:00:04:a1:30:42:fa:f7:a0:c8:56:dc:23:60:65:3a:a1:19:
        c4:1c:f5:8b:ce:37:ca:a4:76:13:fb:ce:12:8f:b1:71:45:65:
        8a:06:36:88:4a:d5:7d:99:24:55:14:c3:25:28:fc:c6:38:ba:
        c7:bd:49:82:e5:b0:40:6a:a5:d0:4b:3c:b8:41:68:d2:f8:7a:
        51:ae:4d:fe:50:02:0b:5c:55:85:cb:af:2f:8a:4a:62:27:26:
        c2:bb:ac:26:19:a1:37:de:e0:2c:f5:72:15:9b:ac:d5:10:f1:
        f6:10:20:78:69:9c:95:a7:8f:ef:d3:02:d8:dc:f9:df:0d:f7:
        4e:69
-----BEGIN CERTIFICATE-----
MIIDWjCCAsOgAwIBAgIBbDANBgkqhkiG9w0BAQQFADB6MQswCQYDVQQGEwJSVTEL
MAkGA1UECBMCTkExEjAQBgNVBAcTCVRPR0xJQVRUSTEWMBQGA1UEChMNSU5aQS1M
VEQtQUlTVDEPMA0GA1UEAxMGc2VydmVyMSEwHwYJKoZIhvcNAQkBFhJwYXZlbEBr
dXN0by5jb20ucnUwHhcNMTIwNTEwMDYyNDUyWhcNMjIwNTA4MDYyNDUyWjBmMQsw
CQYDVQQGEwJSVTELMAkGA1UECBMCTkExFjAUBgNVBAoTDUlOWkEtTFRELUFJU1Qx
DzANBgNVBAMUBnBfbXVyNDEhMB8GCSqGSIb3DQEJARYScGF2ZWxAa3VzdG8uY29t
LnJ1MIGfMA0GCSqGSIb3DQEBAQUAA4GNADCBiQKBgQCpRO26dV2YSQsbH2p1uA+t
DsBOWVgYb/s3xIIZ4CNKU6keb68+MLSvRHGToLtlJygZZSo3pxY+akGqmSkesW3K
YL3l/hH5oh3jPi8h94cU7Ojhx7c4Q383C6PC7QWV6zwErt72z0/W6d4DJGMbOe64
KlEx9lXOUVD3U1Bwh3EkowIDAQABo4IBAjCB/zAJBgNVHRMEAjAAMCwGCWCGSAGG
+EIBDQQfFh1PcGVuU1NMIEdlbmVyYXRlZCBDZXJ0aWZpY2F0ZTAdBgNVHQ4EFgQU
k29MtTgRcAUjvLmxrsaS3tPTr/YwgaQGA1UdIwSBnDCBmYAU9nzm+xS39sFeA5kS
qu1A5EQSdjihfqR8MHoxCzAJBgNVBAYTAlJVMQswCQYDVQQIEwJOQTESMBAGA1UE
BxMJVE9HTElBVFRJMRYwFAYDVQQKEw1JTlpBLUxURC1BSVNUMQ8wDQYDVQQDEwZz
ZXJ2ZXIxITAfBgkqhkiG9w0BCQEWEnBhdmVsQGt1c3RvLmNvbS5ydYIBADANBgkq
hkiG9w0BAQQFAAOBgQAUAAShMEL696DIVtwjYGU6oRnEHPWLzjfKpHYT+84Sj7Fx
RWWKBjaIStV9mSRVFMMlKPzGOLrHvUmC5bBAaqXQSzy4QWjS+HpRrk3+UAILXFWF
y68vikpiJybCu6wmGaE33uAs9XIVm6zVEPH2ECB4aZyVp4/v0wLY3PnfDfdOaQ==
-----END CERTIFICATE-----
