Certificate:
    Data:
        Version: 3 (0x2)
        Serial Number: 23 (0x17)
        Signature Algorithm: md5WithRSAEncryption
        Issuer: C=RU, ST=NA, L=TOGLIATTI, O=INZA-LTD-AIST, CN=server/emailAddress=pavel@kusto.com.ru
        Validity
            Not Before: Apr 29 17:45:34 2009 GMT
            Not After : Apr 27 17:45:34 2019 GMT
        Subject: C=RU, ST=NA, O=INZA-LTD-AIST, OU=pel20kv, CN=pel20kv/emailAddress=pavel@kusto.com.ru
        Subject Public Key Info:
            Public Key Algorithm: rsaEncryption
            RSA Public Key: (1024 bit)
                Modulus (1024 bit):
                    00:b8:35:e5:1b:f9:56:88:ba:78:8e:64:e4:e8:e3:
                    43:67:c7:7e:89:5d:11:78:57:1f:a5:62:5a:96:34:
                    cf:bd:a4:df:cf:e2:d5:d3:9d:f0:58:12:c7:90:a3:
                    f2:d6:9d:eb:bc:ad:81:2f:22:b9:42:d0:46:f9:73:
                    5d:a0:15:ef:e9:d7:68:c0:5b:5a:b3:b2:fe:e3:e3:
                    57:b4:5f:fa:eb:be:99:72:5f:bd:6c:50:97:24:53:
                    6e:ad:0f:8c:f0:75:7c:b2:54:78:43:4e:89:93:cb:
                    8c:73:e8:58:cf:57:a5:4c:e0:ca:26:59:bd:c7:40:
                    a8:97:d1:a2:0b:09:e6:b2:29
                Exponent: 65537 (0x10001)
        X509v3 extensions:
            X509v3 Basic Constraints: 
                CA:FALSE
            Netscape Comment: 
                OpenSSL Generated Certificate
            X509v3 Subject Key Identifier: 
                50:85:2D:04:63:33:71:78:59:E6:6E:1B:ED:FC:26:F8:FE:B6:65:36
            X509v3 Authority Key Identifier: 
                keyid:F6:7C:E6:FB:14:B7:F6:C1:5E:03:99:12:AA:ED:40:E4:44:12:76:38
                DirName:/C=RU/ST=NA/L=TOGLIATTI/O=INZA-LTD-AIST/CN=server/emailAddress=pavel@kusto.com.ru
                serial:00

    Signature Algorithm: md5WithRSAEncryption
        65:12:43:f2:dc:4c:1b:1e:e7:3f:ad:12:b9:c3:4f:2a:55:2e:
        bb:a5:41:85:a8:f1:01:0b:ef:66:1c:26:1a:b3:98:06:4c:cd:
        6f:7f:9a:62:50:e3:c1:12:a9:9c:bd:68:dc:29:d2:db:62:e7:
        d1:f7:24:e1:86:fb:7d:29:0e:d3:51:a5:f6:fd:4a:83:f4:ac:
        40:8c:fc:32:da:91:d7:f4:4f:ec:a6:19:82:07:91:0c:83:86:
        e4:a1:5a:94:ac:59:21:27:ae:33:bf:09:72:5a:d4:83:aa:ad:
        5e:b7:d5:b1:78:7e:27:be:13:68:90:24:5c:1a:b5:07:9a:d6:
        e6:39
-----BEGIN CERTIFICATE-----
MIIDbTCCAtagAwIBAgIBFzANBgkqhkiG9w0BAQQFADB6MQswCQYDVQQGEwJSVTEL
MAkGA1UECBMCTkExEjAQBgNVBAcTCVRPR0xJQVRUSTEWMBQGA1UEChMNSU5aQS1M
VEQtQUlTVDEPMA0GA1UEAxMGc2VydmVyMSEwHwYJKoZIhvcNAQkBFhJwYXZlbEBr
dXN0by5jb20ucnUwHhcNMDkwNDI5MTc0NTM0WhcNMTkwNDI3MTc0NTM0WjB5MQsw
CQYDVQQGEwJSVTELMAkGA1UECBMCTkExFjAUBgNVBAoTDUlOWkEtTFRELUFJU1Qx
EDAOBgNVBAsTB3BlbDIwa3YxEDAOBgNVBAMTB3BlbDIwa3YxITAfBgkqhkiG9w0B
CQEWEnBhdmVsQGt1c3RvLmNvbS5ydTCBnzANBgkqhkiG9w0BAQEFAAOBjQAwgYkC
gYEAuDXlG/lWiLp4jmTk6ONDZ8d+iV0ReFcfpWJaljTPvaTfz+LV053wWBLHkKPy
1p3rvK2BLyK5QtBG+XNdoBXv6ddowFtas7L+4+NXtF/6676Zcl+9bFCXJFNurQ+M
8HV8slR4Q06Jk8uMc+hYz1elTODKJlm9x0Col9GiCwnmsikCAwEAAaOCAQIwgf8w
CQYDVR0TBAIwADAsBglghkgBhvhCAQ0EHxYdT3BlblNTTCBHZW5lcmF0ZWQgQ2Vy
dGlmaWNhdGUwHQYDVR0OBBYEFFCFLQRjM3F4WeZuG+38Jvj+tmU2MIGkBgNVHSME
gZwwgZmAFPZ85vsUt/bBXgOZEqrtQOREEnY4oX6kfDB6MQswCQYDVQQGEwJSVTEL
MAkGA1UECBMCTkExEjAQBgNVBAcTCVRPR0xJQVRUSTEWMBQGA1UEChMNSU5aQS1M
VEQtQUlTVDEPMA0GA1UEAxMGc2VydmVyMSEwHwYJKoZIhvcNAQkBFhJwYXZlbEBr
dXN0by5jb20ucnWCAQAwDQYJKoZIhvcNAQEEBQADgYEAZRJD8txMGx7nP60SucNP
KlUuu6VBhajxAQvvZhwmGrOYBkzNb3+aYlDjwRKpnL1o3CnS22Ln0fck4Yb7fSkO
01Gl9v1Kg/SsQIz8MtqR1/RP7KYZggeRDIOG5KFalKxZISeuM78JclrUg6qtXrfV
sXh+J74TaJAkXBq1B5rW5jk=
-----END CERTIFICATE-----
