Certificate:
    Data:
        Version: 3 (0x2)
        Serial Number: 109 (0x6d)
        Signature Algorithm: md5WithRSAEncryption
        Issuer: C=RU, ST=NA, L=TOGLIATTI, O=INZA-LTD-AIST, CN=server/emailAddress=pavel@kusto.com.ru
        Validity
            Not Before: May 24 07:54:48 2012 GMT
            Not After : May 22 07:54:48 2022 GMT
        Subject: C=RU, ST=NA, O=INZA-LTD-AIST, CN=pel7_2/emailAddress=pavel@kusto.com.ru
        Subject Public Key Info:
            Public Key Algorithm: rsaEncryption
            RSA Public Key: (1024 bit)
                Modulus (1024 bit):
                    00:9e:16:e7:c2:ac:d8:3f:10:b3:1d:36:a0:a1:95:
                    34:b2:02:99:ab:42:46:c3:d3:29:6e:c4:f7:bc:48:
                    47:4d:a3:f3:0b:aa:20:71:c4:99:00:35:6b:16:73:
                    c2:6b:be:2b:d1:00:b6:01:6f:9f:82:01:6c:f8:9c:
                    78:7b:5b:8d:fa:a1:29:e7:9d:6f:21:70:2e:ad:1d:
                    36:f7:9d:56:45:59:75:6d:4a:ce:1f:5c:3e:18:e2:
                    84:f9:97:bf:f5:83:5f:70:07:90:73:c0:a6:24:f2:
                    70:30:41:44:04:56:d0:97:b4:05:45:93:9b:cc:8d:
                    30:57:a6:53:fe:98:3e:5b:4d
                Exponent: 65537 (0x10001)
        X509v3 extensions:
            X509v3 Basic Constraints: 
                CA:FALSE
            Netscape Comment: 
                OpenSSL Generated Certificate
            X509v3 Subject Key Identifier: 
                C0:D4:A4:9D:5F:8F:83:4A:35:DF:5C:19:B9:5D:43:45:5E:61:77:A3
            X509v3 Authority Key Identifier: 
                keyid:F6:7C:E6:FB:14:B7:F6:C1:5E:03:99:12:AA:ED:40:E4:44:12:76:38
                DirName:/C=RU/ST=NA/L=TOGLIATTI/O=INZA-LTD-AIST/CN=server/emailAddress=pavel@kusto.com.ru
                serial:00

    Signature Algorithm: md5WithRSAEncryption
        b7:21:43:4c:66:5b:af:03:e1:0c:9a:6c:fb:d2:ed:04:64:58:
        b9:98:9c:e9:7e:45:e5:63:ec:84:24:9b:16:66:38:c1:f0:b0:
        7a:82:26:87:55:a3:fd:68:1e:63:6e:78:01:49:6d:9a:ed:7a:
        d3:ea:9a:bc:35:0a:03:78:78:d1:16:9b:6d:53:6b:fc:8e:49:
        f4:b6:0b:29:a6:02:0e:af:d5:c2:2a:6e:79:48:c3:94:7f:80:
        93:27:e0:a1:2f:e5:8b:74:9b:41:c1:1a:8a:b6:16:34:a8:7f:
        11:61:ac:ed:e4:06:b1:83:30:c9:f4:fa:34:c4:6b:5b:9c:9f:
        c0:11
-----BEGIN CERTIFICATE-----
MIIDWjCCAsOgAwIBAgIBbTANBgkqhkiG9w0BAQQFADB6MQswCQYDVQQGEwJSVTEL
MAkGA1UECBMCTkExEjAQBgNVBAcTCVRPR0xJQVRUSTEWMBQGA1UEChMNSU5aQS1M
VEQtQUlTVDEPMA0GA1UEAxMGc2VydmVyMSEwHwYJKoZIhvcNAQkBFhJwYXZlbEBr
dXN0by5jb20ucnUwHhcNMTIwNTI0MDc1NDQ4WhcNMjIwNTIyMDc1NDQ4WjBmMQsw
CQYDVQQGEwJSVTELMAkGA1UECBMCTkExFjAUBgNVBAoTDUlOWkEtTFRELUFJU1Qx
DzANBgNVBAMUBnBlbDdfMjEhMB8GCSqGSIb3DQEJARYScGF2ZWxAa3VzdG8uY29t
LnJ1MIGfMA0GCSqGSIb3DQEBAQUAA4GNADCBiQKBgQCeFufCrNg/ELMdNqChlTSy
ApmrQkbD0yluxPe8SEdNo/MLqiBxxJkANWsWc8JrvivRALYBb5+CAWz4nHh7W436
oSnnnW8hcC6tHTb3nVZFWXVtSs4fXD4Y4oT5l7/1g19wB5BzwKYk8nAwQUQEVtCX
tAVFk5vMjTBXplP+mD5bTQIDAQABo4IBAjCB/zAJBgNVHRMEAjAAMCwGCWCGSAGG
+EIBDQQfFh1PcGVuU1NMIEdlbmVyYXRlZCBDZXJ0aWZpY2F0ZTAdBgNVHQ4EFgQU
wNSknV+Pg0o131wZuV1DRV5hd6MwgaQGA1UdIwSBnDCBmYAU9nzm+xS39sFeA5kS
qu1A5EQSdjihfqR8MHoxCzAJBgNVBAYTAlJVMQswCQYDVQQIEwJOQTESMBAGA1UE
BxMJVE9HTElBVFRJMRYwFAYDVQQKEw1JTlpBLUxURC1BSVNUMQ8wDQYDVQQDEwZz
ZXJ2ZXIxITAfBgkqhkiG9w0BCQEWEnBhdmVsQGt1c3RvLmNvbS5ydYIBADANBgkq
hkiG9w0BAQQFAAOBgQC3IUNMZluvA+EMmmz70u0EZFi5mJzpfkXlY+yEJJsWZjjB
8LB6giaHVaP9aB5jbngBSW2a7XrT6pq8NQoDeHjRFpttU2v8jkn0tgsppgIOr9XC
Km55SMOUf4CTJ+ChL+WLdJtBwRqKthY0qH8RYazt5AaxgzDJ9Po0xGtbnJ/AEQ==
-----END CERTIFICATE-----
