Certificate:
    Data:
        Version: 3 (0x2)
        Serial Number: 51 (0x33)
        Signature Algorithm: md5WithRSAEncryption
        Issuer: C=RU, ST=NA, L=TOGLIATTI, O=INZA-LTD-AIST, CN=server/emailAddress=pavel@kusto.com.ru
        Validity
            Not Before: May 31 13:53:31 2010 GMT
            Not After : May 28 13:53:31 2020 GMT
        Subject: C=RU, ST=NA, O=INZA-LTD-AIST, CN=pelican3a_2/emailAddress=pavel@kusto.com.ru
        Subject Public Key Info:
            Public Key Algorithm: rsaEncryption
            RSA Public Key: (1024 bit)
                Modulus (1024 bit):
                    00:c5:dc:41:7c:06:44:26:29:da:1d:54:ae:91:1b:
                    26:6e:0f:39:29:59:4e:b7:1f:74:91:9c:4d:2c:94:
                    cc:61:20:66:10:fd:ab:e6:9b:5e:28:8d:7e:04:66:
                    9c:65:06:8e:6d:12:85:f7:71:14:6f:7a:19:87:56:
                    3a:84:43:cf:71:bc:9d:4a:26:87:c4:bb:44:ce:3b:
                    c4:39:38:73:4f:6e:d5:6d:88:03:83:33:4f:ef:d4:
                    b2:70:04:74:b8:d7:da:e2:5a:f1:38:bb:b5:0c:d9:
                    f0:41:36:5f:f5:69:a6:1c:40:56:eb:15:bf:05:45:
                    e4:14:88:d4:d2:fb:ad:aa:29
                Exponent: 65537 (0x10001)
        X509v3 extensions:
            X509v3 Basic Constraints: 
                CA:FALSE
            Netscape Comment: 
                OpenSSL Generated Certificate
            X509v3 Subject Key Identifier: 
                08:99:ED:70:AC:A8:6A:12:F6:92:2F:84:88:86:38:2F:89:BB:9C:0E
            X509v3 Authority Key Identifier: 
                keyid:F6:7C:E6:FB:14:B7:F6:C1:5E:03:99:12:AA:ED:40:E4:44:12:76:38
                DirName:/C=RU/ST=NA/L=TOGLIATTI/O=INZA-LTD-AIST/CN=server/emailAddress=pavel@kusto.com.ru
                serial:00

    Signature Algorithm: md5WithRSAEncryption
        d2:ba:b8:ec:3a:dd:6f:4c:56:4e:60:53:9e:b6:76:6f:91:d4:
        9c:b9:c8:a0:59:9a:db:b6:05:f8:8f:49:92:64:df:98:fb:68:
        17:07:7e:7d:ea:27:95:b8:e0:00:f1:ab:ab:af:ec:95:11:89:
        e5:1c:cc:88:5b:73:33:68:21:46:8b:2b:6c:3a:a2:3d:7c:02:
        d9:19:5b:c3:55:bc:5c:9a:dc:15:ca:63:5f:6d:e7:97:58:30:
        88:7c:4c:f9:cc:1d:41:5c:29:e9:7a:9b:04:5c:2d:56:08:c2:
        a4:cb:f3:8e:e6:28:5e:bd:c2:b7:be:04:83:e1:47:3b:fa:a1:
        60:e7
-----BEGIN CERTIFICATE-----
MIIDXzCCAsigAwIBAgIBMzANBgkqhkiG9w0BAQQFADB6MQswCQYDVQQGEwJSVTEL
MAkGA1UECBMCTkExEjAQBgNVBAcTCVRPR0xJQVRUSTEWMBQGA1UEChMNSU5aQS1M
VEQtQUlTVDEPMA0GA1UEAxMGc2VydmVyMSEwHwYJKoZIhvcNAQkBFhJwYXZlbEBr
dXN0by5jb20ucnUwHhcNMTAwNTMxMTM1MzMxWhcNMjAwNTI4MTM1MzMxWjBrMQsw
CQYDVQQGEwJSVTELMAkGA1UECBMCTkExFjAUBgNVBAoTDUlOWkEtTFRELUFJU1Qx
FDASBgNVBAMUC3BlbGljYW4zYV8yMSEwHwYJKoZIhvcNAQkBFhJwYXZlbEBrdXN0
by5jb20ucnUwgZ8wDQYJKoZIhvcNAQEBBQADgY0AMIGJAoGBAMXcQXwGRCYp2h1U
rpEbJm4POSlZTrcfdJGcTSyUzGEgZhD9q+abXiiNfgRmnGUGjm0ShfdxFG96GYdW
OoRDz3G8nUomh8S7RM47xDk4c09u1W2IA4MzT+/UsnAEdLjX2uJa8Ti7tQzZ8EE2
X/VpphxAVusVvwVF5BSI1NL7raopAgMBAAGjggECMIH/MAkGA1UdEwQCMAAwLAYJ
YIZIAYb4QgENBB8WHU9wZW5TU0wgR2VuZXJhdGVkIENlcnRpZmljYXRlMB0GA1Ud
DgQWBBQIme1wrKhqEvaSL4SIhjgvibucDjCBpAYDVR0jBIGcMIGZgBT2fOb7FLf2
wV4DmRKq7UDkRBJ2OKF+pHwwejELMAkGA1UEBhMCUlUxCzAJBgNVBAgTAk5BMRIw
EAYDVQQHEwlUT0dMSUFUVEkxFjAUBgNVBAoTDUlOWkEtTFRELUFJU1QxDzANBgNV
BAMTBnNlcnZlcjEhMB8GCSqGSIb3DQEJARYScGF2ZWxAa3VzdG8uY29tLnJ1ggEA
MA0GCSqGSIb3DQEBBAUAA4GBANK6uOw63W9MVk5gU562dm+R1Jy5yKBZmtu2BfiP
SZJk35j7aBcHfn3qJ5W44ADxq6uv7JURieUczIhbczNoIUaLK2w6oj18AtkZW8NV
vFya3BXKY19t55dYMIh8TPnMHUFcKel6mwRcLVYIwqTL847mKF69wre+BIPhRzv6
oWDn
-----END CERTIFICATE-----
