Certificate:
    Data:
        Version: 3 (0x2)
        Serial Number: 32 (0x20)
        Signature Algorithm: md5WithRSAEncryption
        Issuer: C=RU, ST=NA, L=TOGLIATTI, O=INZA-LTD-AIST, CN=server/emailAddress=pavel@kusto.com.ru
        Validity
            Not Before: Sep  1 14:26:41 2009 GMT
            Not After : Aug 30 14:26:41 2019 GMT
        Subject: C=RU, ST=NA, O=INZA-LTD-AIST, CN=pelican1_kv/emailAddress=pavel@kusto.com.ru
        Subject Public Key Info:
            Public Key Algorithm: rsaEncryption
            RSA Public Key: (1024 bit)
                Modulus (1024 bit):
                    00:b8:36:74:77:17:aa:21:99:3e:6a:98:9b:59:71:
                    2b:12:ec:d6:02:7a:75:b3:67:bb:8b:25:a5:b9:9b:
                    c9:46:b3:bb:17:96:a0:ed:fb:3c:7c:e2:41:fd:15:
                    2a:17:0d:69:94:31:48:b4:34:8e:92:47:c7:48:9b:
                    ba:0d:09:c9:06:c9:6a:8e:f4:31:fc:46:e6:01:7e:
                    7b:c9:1e:ba:19:d7:d8:25:61:1d:a9:9d:48:65:67:
                    a2:d7:11:77:d8:e8:32:c8:e8:70:ac:a3:0e:ea:51:
                    9e:d0:96:4b:ec:33:61:2a:64:cb:6c:9e:a1:7c:bd:
                    be:0e:ee:b0:99:1d:c3:19:b7
                Exponent: 65537 (0x10001)
        X509v3 extensions:
            X509v3 Basic Constraints: 
                CA:FALSE
            Netscape Comment: 
                OpenSSL Generated Certificate
            X509v3 Subject Key Identifier: 
                3A:AC:E1:46:99:A3:62:A8:5C:3C:5D:BF:3D:46:9D:2D:7C:A2:74:D1
            X509v3 Authority Key Identifier: 
                keyid:F6:7C:E6:FB:14:B7:F6:C1:5E:03:99:12:AA:ED:40:E4:44:12:76:38
                DirName:/C=RU/ST=NA/L=TOGLIATTI/O=INZA-LTD-AIST/CN=server/emailAddress=pavel@kusto.com.ru
                serial:00

    Signature Algorithm: md5WithRSAEncryption
        3f:98:5f:50:d1:da:1b:4e:eb:1b:de:9a:1b:18:de:e0:6d:ec:
        7a:ad:8b:44:43:de:61:82:70:fc:c7:d0:d7:94:e9:e3:71:21:
        91:27:5a:0d:4c:7f:c0:ad:b8:70:cd:7f:95:62:7e:9c:11:d1:
        25:a2:db:e5:e2:d4:0a:e3:ea:c9:2a:94:84:62:d4:24:2a:79:
        1f:59:39:09:e1:57:65:be:86:d4:4d:25:88:f7:93:bb:0b:09:
        fb:6f:34:89:da:d0:9d:9e:38:ca:7e:91:f8:a2:d4:11:9a:24:
        17:65:94:b8:cb:6e:3e:75:aa:ce:8d:05:b6:44:29:84:04:ee:
        2a:ee
-----BEGIN CERTIFICATE-----
MIIDXzCCAsigAwIBAgIBIDANBgkqhkiG9w0BAQQFADB6MQswCQYDVQQGEwJSVTEL
MAkGA1UECBMCTkExEjAQBgNVBAcTCVRPR0xJQVRUSTEWMBQGA1UEChMNSU5aQS1M
VEQtQUlTVDEPMA0GA1UEAxMGc2VydmVyMSEwHwYJKoZIhvcNAQkBFhJwYXZlbEBr
dXN0by5jb20ucnUwHhcNMDkwOTAxMTQyNjQxWhcNMTkwODMwMTQyNjQxWjBrMQsw
CQYDVQQGEwJSVTELMAkGA1UECBMCTkExFjAUBgNVBAoTDUlOWkEtTFRELUFJU1Qx
FDASBgNVBAMUC3BlbGljYW4xX2t2MSEwHwYJKoZIhvcNAQkBFhJwYXZlbEBrdXN0
by5jb20ucnUwgZ8wDQYJKoZIhvcNAQEBBQADgY0AMIGJAoGBALg2dHcXqiGZPmqY
m1lxKxLs1gJ6dbNnu4slpbmbyUazuxeWoO37PHziQf0VKhcNaZQxSLQ0jpJHx0ib
ug0JyQbJao70MfxG5gF+e8keuhnX2CVhHamdSGVnotcRd9joMsjocKyjDupRntCW
S+wzYSpky2yeoXy9vg7usJkdwxm3AgMBAAGjggECMIH/MAkGA1UdEwQCMAAwLAYJ
YIZIAYb4QgENBB8WHU9wZW5TU0wgR2VuZXJhdGVkIENlcnRpZmljYXRlMB0GA1Ud
DgQWBBQ6rOFGmaNiqFw8Xb89Rp0tfKJ00TCBpAYDVR0jBIGcMIGZgBT2fOb7FLf2
wV4DmRKq7UDkRBJ2OKF+pHwwejELMAkGA1UEBhMCUlUxCzAJBgNVBAgTAk5BMRIw
EAYDVQQHEwlUT0dMSUFUVEkxFjAUBgNVBAoTDUlOWkEtTFRELUFJU1QxDzANBgNV
BAMTBnNlcnZlcjEhMB8GCSqGSIb3DQEJARYScGF2ZWxAa3VzdG8uY29tLnJ1ggEA
MA0GCSqGSIb3DQEBBAUAA4GBAD+YX1DR2htO6xvemhsY3uBt7Hqti0RD3mGCcPzH
0NeU6eNxIZEnWg1Mf8CtuHDNf5VifpwR0SWi2+Xi1Arj6skqlIRi1CQqeR9ZOQnh
V2W+htRNJYj3k7sLCftvNIna0J2eOMp+kfii1BGaJBdllLjLbj51qs6NBbZEKYQE
7iru
-----END CERTIFICATE-----
