Certificate:
    Data:
        Version: 3 (0x2)
        Serial Number: 78 (0x4e)
        Signature Algorithm: md5WithRSAEncryption
        Issuer: C=RU, ST=NA, L=TOGLIATTI, O=INZA-LTD-AIST, CN=server/emailAddress=pavel@kusto.com.ru
        Validity
            Not Before: May 11 09:55:42 2011 GMT
            Not After : May  8 09:55:42 2021 GMT
        Subject: C=RU, ST=NA, O=INZA-LTD-AIST, CN=yagodnoe/emailAddress=pavel@kusto.com.ru
        Subject Public Key Info:
            Public Key Algorithm: rsaEncryption
            RSA Public Key: (1024 bit)
                Modulus (1024 bit):
                    00:e2:95:21:bc:fa:cc:f2:c7:17:72:28:e1:3b:35:
                    ad:ac:cc:e6:53:30:8d:d5:16:75:ff:35:cd:1d:ff:
                    49:8d:42:2e:02:d2:be:90:a5:24:6f:dc:ef:8a:f9:
                    be:61:bf:87:de:ea:93:4e:96:54:7c:e8:f7:54:c0:
                    34:e7:8d:90:52:89:e1:a7:cc:76:58:3e:db:9e:64:
                    42:cf:44:61:9a:0e:6e:e7:75:2c:5c:1c:84:f3:de:
                    a4:86:80:56:ea:19:81:25:31:b6:e1:0c:e1:91:dd:
                    2f:89:7d:83:f4:8f:f6:d3:c1:da:72:66:48:d2:17:
                    0a:c0:58:7e:e1:47:11:e6:b5
                Exponent: 65537 (0x10001)
        X509v3 extensions:
            X509v3 Basic Constraints: 
                CA:FALSE
            Netscape Comment: 
                OpenSSL Generated Certificate
            X509v3 Subject Key Identifier: 
                7C:E1:D2:D0:11:22:7B:9B:5C:49:83:37:3A:0A:AC:A7:29:3B:3D:BA
            X509v3 Authority Key Identifier: 
                keyid:F6:7C:E6:FB:14:B7:F6:C1:5E:03:99:12:AA:ED:40:E4:44:12:76:38
                DirName:/C=RU/ST=NA/L=TOGLIATTI/O=INZA-LTD-AIST/CN=server/emailAddress=pavel@kusto.com.ru
                serial:00

    Signature Algorithm: md5WithRSAEncryption
        84:53:5c:e5:e2:03:41:e1:c9:57:95:d2:55:f5:08:ff:e0:6b:
        22:b8:b5:64:1e:5e:15:ee:cc:c1:9c:d7:9e:19:e4:4d:51:19:
        13:4e:9a:3f:3f:43:31:d8:b5:02:50:a7:39:12:51:cc:f1:45:
        9e:66:5f:bf:bf:c2:8e:00:20:e1:b2:21:6a:60:f9:37:14:b3:
        59:44:f2:a1:f0:72:4f:a9:b7:df:9d:cb:05:30:d2:4c:f0:81:
        96:98:d7:f9:d8:f7:ab:f3:84:7c:1f:a3:41:08:3e:4b:6a:60:
        b6:0f:5e:eb:43:c8:fa:59:d3:24:1b:28:8c:73:c7:ae:fc:ce:
        45:d8
-----BEGIN CERTIFICATE-----
MIIDXDCCAsWgAwIBAgIBTjANBgkqhkiG9w0BAQQFADB6MQswCQYDVQQGEwJSVTEL
MAkGA1UECBMCTkExEjAQBgNVBAcTCVRPR0xJQVRUSTEWMBQGA1UEChMNSU5aQS1M
VEQtQUlTVDEPMA0GA1UEAxMGc2VydmVyMSEwHwYJKoZIhvcNAQkBFhJwYXZlbEBr
dXN0by5jb20ucnUwHhcNMTEwNTExMDk1NTQyWhcNMjEwNTA4MDk1NTQyWjBoMQsw
CQYDVQQGEwJSVTELMAkGA1UECBMCTkExFjAUBgNVBAoTDUlOWkEtTFRELUFJU1Qx
ETAPBgNVBAMTCHlhZ29kbm9lMSEwHwYJKoZIhvcNAQkBFhJwYXZlbEBrdXN0by5j
b20ucnUwgZ8wDQYJKoZIhvcNAQEBBQADgY0AMIGJAoGBAOKVIbz6zPLHF3Io4Ts1
razM5lMwjdUWdf81zR3/SY1CLgLSvpClJG/c74r5vmG/h97qk06WVHzo91TANOeN
kFKJ4afMdlg+255kQs9EYZoObud1LFwchPPepIaAVuoZgSUxtuEM4ZHdL4l9g/SP
9tPB2nJmSNIXCsBYfuFHEea1AgMBAAGjggECMIH/MAkGA1UdEwQCMAAwLAYJYIZI
AYb4QgENBB8WHU9wZW5TU0wgR2VuZXJhdGVkIENlcnRpZmljYXRlMB0GA1UdDgQW
BBR84dLQESJ7m1xJgzc6CqynKTs9ujCBpAYDVR0jBIGcMIGZgBT2fOb7FLf2wV4D
mRKq7UDkRBJ2OKF+pHwwejELMAkGA1UEBhMCUlUxCzAJBgNVBAgTAk5BMRIwEAYD
VQQHEwlUT0dMSUFUVEkxFjAUBgNVBAoTDUlOWkEtTFRELUFJU1QxDzANBgNVBAMT
BnNlcnZlcjEhMB8GCSqGSIb3DQEJARYScGF2ZWxAa3VzdG8uY29tLnJ1ggEAMA0G
CSqGSIb3DQEBBAUAA4GBAIRTXOXiA0HhyVeV0lX1CP/gayK4tWQeXhXuzMGc154Z
5E1RGRNOmj8/QzHYtQJQpzkSUczxRZ5mX7+/wo4AIOGyIWpg+TcUs1lE8qHwck+p
t9+dywUw0kzwgZaY1/nY96vzhHwfo0EIPktqYLYPXutDyPpZ0yQbKIxzx678zkXY
-----END CERTIFICATE-----
