Certificate:
    Data:
        Version: 3 (0x2)
        Serial Number: 2 (0x2)
        Signature Algorithm: md5WithRSAEncryption
        Issuer: C=RU, ST=NA, L=TOGLIATTI, O=INZA-LTD, CN=server/emailAddress=pavel@kusto.com.ru
        Validity
            Not Before: Oct  8 09:09:44 2007 GMT
            Not After : Oct  5 09:09:44 2017 GMT
        Subject: C=RU, ST=NA, O=INZA-LTD, CN=INZATLT/emailAddress=pavel@kusto.com.ru
        Subject Public Key Info:
            Public Key Algorithm: rsaEncryption
            RSA Public Key: (1024 bit)
                Modulus (1024 bit):
                    00:c7:8a:2c:39:93:5c:29:28:1f:1d:e1:d2:4d:8f:
                    a7:ac:f0:a0:fd:aa:0b:ba:ee:bf:59:d4:66:4b:72:
                    6a:a7:01:18:f4:fc:50:8a:d2:86:2d:14:fc:a1:f2:
                    56:e1:ac:f0:d8:00:dc:31:d7:50:17:1c:db:fe:68:
                    22:08:bf:21:76:23:45:cc:30:bc:1e:33:7c:20:a0:
                    52:b1:ea:b7:68:1c:16:10:a4:b2:04:d9:be:5e:3f:
                    81:a3:d2:1e:07:9a:e0:ff:a4:d0:00:cd:f2:86:c5:
                    dc:e4:66:f8:92:5e:ea:5f:56:62:bf:b6:be:48:64:
                    e5:23:b4:71:f3:d1:d2:6f:eb
                Exponent: 65537 (0x10001)
        X509v3 extensions:
            X509v3 Basic Constraints: 
                CA:FALSE
            Netscape Comment: 
                OpenSSL Generated Certificate
            X509v3 Subject Key Identifier: 
                CD:65:F5:1C:12:15:3E:5D:C9:14:D8:2C:46:10:4A:38:C4:BF:A7:58
            X509v3 Authority Key Identifier: 
                keyid:3F:73:CC:85:2D:A7:6F:C8:9E:38:35:36:17:D8:46:67:A5:A5:AE:AF
                DirName:/C=RU/ST=NA/L=TOGLIATTI/O=INZA-LTD/CN=server/emailAddress=pavel@kusto.com.ru
                serial:00

    Signature Algorithm: md5WithRSAEncryption
        00:36:36:e4:7b:24:e3:ef:1f:4f:68:5e:8c:8e:b3:d9:e2:46:
        3a:f1:d9:b5:5b:e2:87:03:6e:44:a4:1c:5b:82:41:77:77:4b:
        10:9f:49:6b:a6:19:9f:b5:34:3d:e3:89:76:cd:ae:a8:3f:00:
        1a:2b:a9:c8:38:59:73:36:40:c4:e8:77:1b:20:e5:54:2d:2d:
        e3:be:99:7f:d5:d6:10:7c:e2:19:5f:c2:8c:bb:85:70:f2:bb:
        41:59:67:25:7a:39:73:e7:65:e5:1c:82:b4:22:2a:d0:f1:13:
        fd:82:b6:f6:46:22:8c:80:74:38:7d:fd:41:a0:d7:c9:42:8f:
        3e:7d
-----BEGIN CERTIFICATE-----
MIIDSzCCArSgAwIBAgIBAjANBgkqhkiG9w0BAQQFADB1MQswCQYDVQQGEwJSVTEL
MAkGA1UECBMCTkExEjAQBgNVBAcTCVRPR0xJQVRUSTERMA8GA1UEChMISU5aQS1M
VEQxDzANBgNVBAMTBnNlcnZlcjEhMB8GCSqGSIb3DQEJARYScGF2ZWxAa3VzdG8u
Y29tLnJ1MB4XDTA3MTAwODA5MDk0NFoXDTE3MTAwNTA5MDk0NFowYjELMAkGA1UE
BhMCUlUxCzAJBgNVBAgTAk5BMREwDwYDVQQKEwhJTlpBLUxURDEQMA4GA1UEAxMH
SU5aQVRMVDEhMB8GCSqGSIb3DQEJARYScGF2ZWxAa3VzdG8uY29tLnJ1MIGfMA0G
CSqGSIb3DQEBAQUAA4GNADCBiQKBgQDHiiw5k1wpKB8d4dJNj6es8KD9qgu67r9Z
1GZLcmqnARj0/FCK0oYtFPyh8lbhrPDYANwx11AXHNv+aCIIvyF2I0XMMLweM3wg
oFKx6rdoHBYQpLIE2b5eP4Gj0h4HmuD/pNAAzfKGxdzkZviSXupfVmK/tr5IZOUj
tHHz0dJv6wIDAQABo4H9MIH6MAkGA1UdEwQCMAAwLAYJYIZIAYb4QgENBB8WHU9w
ZW5TU0wgR2VuZXJhdGVkIENlcnRpZmljYXRlMB0GA1UdDgQWBBTNZfUcEhU+XckU
2CxGEEo4xL+nWDCBnwYDVR0jBIGXMIGUgBQ/c8yFLadvyJ44NTYX2EZnpaWur6F5
pHcwdTELMAkGA1UEBhMCUlUxCzAJBgNVBAgTAk5BMRIwEAYDVQQHEwlUT0dMSUFU
VEkxETAPBgNVBAoTCElOWkEtTFREMQ8wDQYDVQQDEwZzZXJ2ZXIxITAfBgkqhkiG
9w0BCQEWEnBhdmVsQGt1c3RvLmNvbS5ydYIBADANBgkqhkiG9w0BAQQFAAOBgQAA
NjbkeyTj7x9PaF6MjrPZ4kY68dm1W+KHA25EpBxbgkF3d0sQn0lrphmftTQ944l2
za6oPwAaK6nIOFlzNkDE6HcbIOVULS3jvpl/1dYQfOIZX8KMu4Vw8rtBWWclejlz
52XlHIK0IirQ8RP9grb2RiKMgHQ4ff1BoNfJQo8+fQ==
-----END CERTIFICATE-----
