Certificate:
    Data:
        Version: 3 (0x2)
        Serial Number: 3 (0x3)
        Signature Algorithm: md5WithRSAEncryption
        Issuer: C=RU, ST=NA, L=TOGLIATTI, O=INZA-LTD, CN=server/emailAddress=pavel@kusto.com.ru
        Validity
            Not Before: Oct  8 09:10:00 2007 GMT
            Not After : Oct  5 09:10:00 2017 GMT
        Subject: C=RU, ST=NA, O=INZA-LTD, CN=pelican1/emailAddress=pavel@kusto.com.ru
        Subject Public Key Info:
            Public Key Algorithm: rsaEncryption
            RSA Public Key: (1024 bit)
                Modulus (1024 bit):
                    00:a1:45:5a:b6:34:16:3a:03:11:ef:5b:70:6f:1b:
                    ba:bb:b5:b3:bf:77:89:56:8f:33:1f:b9:be:86:9c:
                    a9:a0:34:9c:e7:96:2a:ac:ea:e4:6f:f2:61:eb:d0:
                    98:9d:71:c9:a3:db:61:48:5d:7a:3d:fa:d6:db:0a:
                    10:b5:da:91:30:fd:6a:87:e6:eb:ae:f8:8d:6b:52:
                    ee:0c:c6:b0:e9:8a:60:8a:1b:8a:e2:36:dc:47:bd:
                    b9:8d:66:bb:45:8a:9f:af:d0:be:64:6c:27:82:35:
                    7b:f3:a2:39:0b:02:e2:2c:bf:2e:1f:e1:24:01:10:
                    ea:81:12:c0:9f:2b:30:40:b3
                Exponent: 65537 (0x10001)
        X509v3 extensions:
            X509v3 Basic Constraints: 
                CA:FALSE
            Netscape Comment: 
                OpenSSL Generated Certificate
            X509v3 Subject Key Identifier: 
                F0:1A:7B:D0:56:AA:80:92:A1:8D:95:DF:93:94:6A:D2:F4:5C:D1:8E
            X509v3 Authority Key Identifier: 
                keyid:3F:73:CC:85:2D:A7:6F:C8:9E:38:35:36:17:D8:46:67:A5:A5:AE:AF
                DirName:/C=RU/ST=NA/L=TOGLIATTI/O=INZA-LTD/CN=server/emailAddress=pavel@kusto.com.ru
                serial:00

    Signature Algorithm: md5WithRSAEncryption
        0e:29:43:20:47:e3:29:72:ed:d4:ca:9d:ff:19:d9:21:c0:be:
        00:39:92:c6:a7:8b:44:e2:fc:87:8c:35:d1:f1:cc:79:16:a4:
        b6:e6:19:dd:2f:70:5e:ab:25:52:27:a7:d8:58:96:57:f7:a0:
        8f:26:1d:c0:1c:38:13:6d:5f:77:c8:d2:5d:dc:64:1c:cf:c9:
        60:45:d2:d5:7a:06:0a:00:eb:a4:7b:20:c2:4c:4d:a3:a6:c1:
        71:71:49:42:f8:b2:57:c0:3f:47:76:9e:4b:9b:a9:c8:f8:99:
        74:ec:4e:12:11:85:a2:b4:8f:e2:66:e8:bd:72:b6:2a:28:07:
        30:a4
-----BEGIN CERTIFICATE-----
MIIDTDCCArWgAwIBAgIBAzANBgkqhkiG9w0BAQQFADB1MQswCQYDVQQGEwJSVTEL
MAkGA1UECBMCTkExEjAQBgNVBAcTCVRPR0xJQVRUSTERMA8GA1UEChMISU5aQS1M
VEQxDzANBgNVBAMTBnNlcnZlcjEhMB8GCSqGSIb3DQEJARYScGF2ZWxAa3VzdG8u
Y29tLnJ1MB4XDTA3MTAwODA5MTAwMFoXDTE3MTAwNTA5MTAwMFowYzELMAkGA1UE
BhMCUlUxCzAJBgNVBAgTAk5BMREwDwYDVQQKEwhJTlpBLUxURDERMA8GA1UEAxMI
cGVsaWNhbjExITAfBgkqhkiG9w0BCQEWEnBhdmVsQGt1c3RvLmNvbS5ydTCBnzAN
BgkqhkiG9w0BAQEFAAOBjQAwgYkCgYEAoUVatjQWOgMR71twbxu6u7Wzv3eJVo8z
H7m+hpypoDSc55YqrOrkb/Jh69CYnXHJo9thSF16PfrW2woQtdqRMP1qh+brrviN
a1LuDMaw6YpgihuK4jbcR725jWa7RYqfr9C+ZGwngjV786I5CwLiLL8uH+EkARDq
gRLAnyswQLMCAwEAAaOB/TCB+jAJBgNVHRMEAjAAMCwGCWCGSAGG+EIBDQQfFh1P
cGVuU1NMIEdlbmVyYXRlZCBDZXJ0aWZpY2F0ZTAdBgNVHQ4EFgQU8Bp70FaqgJKh
jZXfk5Rq0vRc0Y4wgZ8GA1UdIwSBlzCBlIAUP3PMhS2nb8ieODU2F9hGZ6Wlrq+h
eaR3MHUxCzAJBgNVBAYTAlJVMQswCQYDVQQIEwJOQTESMBAGA1UEBxMJVE9HTElB
VFRJMREwDwYDVQQKEwhJTlpBLUxURDEPMA0GA1UEAxMGc2VydmVyMSEwHwYJKoZI
hvcNAQkBFhJwYXZlbEBrdXN0by5jb20ucnWCAQAwDQYJKoZIhvcNAQEEBQADgYEA
DilDIEfjKXLt1Mqd/xnZIcC+ADmSxqeLROL8h4w10fHMeRaktuYZ3S9wXqslUien
2FiWV/egjyYdwBw4E21fd8jSXdxkHM/JYEXS1XoGCgDrpHsgwkxNo6bBcXFJQviy
V8A/R3aeS5upyPiZdOxOEhGForSP4mbovXK2KigHMKQ=
-----END CERTIFICATE-----
