Certificate:
    Data:
        Version: 3 (0x2)
        Serial Number: 4 (0x4)
        Signature Algorithm: md5WithRSAEncryption
        Issuer: C=RU, ST=NA, L=TOGLIATTI, O=INZA-LTD, CN=server/emailAddress=pavel@kusto.com.ru
        Validity
            Not Before: Oct  8 09:10:17 2007 GMT
            Not After : Oct  5 09:10:17 2017 GMT
        Subject: C=RU, ST=NA, O=INZA-LTD, CN=pelican2/emailAddress=pavel@kusto.com.ru
        Subject Public Key Info:
            Public Key Algorithm: rsaEncryption
            RSA Public Key: (1024 bit)
                Modulus (1024 bit):
                    00:ce:78:e7:75:a6:06:08:74:4d:e2:70:c4:2b:7f:
                    57:3f:22:0b:81:95:b5:08:ab:d8:47:76:3f:2a:25:
                    59:05:8b:5c:46:1b:f9:d6:3a:f1:ed:f7:8c:31:bd:
                    7c:9b:48:b2:f2:e3:ce:ce:91:b0:98:a8:76:8d:f1:
                    53:d9:d3:8e:cc:43:2d:45:e9:1b:90:93:98:2d:db:
                    6b:21:36:4e:1c:08:93:92:e0:68:20:88:01:e0:3e:
                    72:fd:d9:c1:5a:c0:47:5b:d8:b6:57:c8:9c:f5:a1:
                    a4:d9:c8:1c:d9:da:d4:39:3d:80:be:1d:65:f2:be:
                    dd:66:0f:b9:40:76:fa:19:27
                Exponent: 65537 (0x10001)
        X509v3 extensions:
            X509v3 Basic Constraints: 
                CA:FALSE
            Netscape Comment: 
                OpenSSL Generated Certificate
            X509v3 Subject Key Identifier: 
                D4:FF:61:FB:85:7A:B9:E1:9B:DA:D9:2E:43:05:8E:D5:74:BA:3E:6A
            X509v3 Authority Key Identifier: 
                keyid:3F:73:CC:85:2D:A7:6F:C8:9E:38:35:36:17:D8:46:67:A5:A5:AE:AF
                DirName:/C=RU/ST=NA/L=TOGLIATTI/O=INZA-LTD/CN=server/emailAddress=pavel@kusto.com.ru
                serial:00

    Signature Algorithm: md5WithRSAEncryption
        30:f6:c8:2a:9e:be:81:c7:64:ae:df:d0:61:e4:e5:61:1c:d9:
        74:30:1e:b7:66:8d:5f:ad:c1:38:8a:98:6d:2a:4e:d8:4e:b8:
        76:1b:b9:f9:2e:c7:bb:92:2a:f5:10:05:a2:04:4b:81:2d:5c:
        b5:a0:6f:82:a4:ed:12:ab:cf:ad:7d:b5:88:13:42:cf:b0:46:
        47:81:7f:d4:f1:88:70:6a:26:13:ce:2d:83:a9:17:a1:58:a2:
        6c:c0:14:e3:9e:ca:d3:61:24:77:e8:3c:6c:af:2a:31:17:3b:
        eb:aa:4b:2e:17:43:7e:da:0b:8c:59:b4:a0:a3:96:78:67:ef:
        c0:3e
-----BEGIN CERTIFICATE-----
MIIDTDCCArWgAwIBAgIBBDANBgkqhkiG9w0BAQQFADB1MQswCQYDVQQGEwJSVTEL
MAkGA1UECBMCTkExEjAQBgNVBAcTCVRPR0xJQVRUSTERMA8GA1UEChMISU5aQS1M
VEQxDzANBgNVBAMTBnNlcnZlcjEhMB8GCSqGSIb3DQEJARYScGF2ZWxAa3VzdG8u
Y29tLnJ1MB4XDTA3MTAwODA5MTAxN1oXDTE3MTAwNTA5MTAxN1owYzELMAkGA1UE
BhMCUlUxCzAJBgNVBAgTAk5BMREwDwYDVQQKEwhJTlpBLUxURDERMA8GA1UEAxMI
cGVsaWNhbjIxITAfBgkqhkiG9w0BCQEWEnBhdmVsQGt1c3RvLmNvbS5ydTCBnzAN
BgkqhkiG9w0BAQEFAAOBjQAwgYkCgYEAznjndaYGCHRN4nDEK39XPyILgZW1CKvY
R3Y/KiVZBYtcRhv51jrx7feMMb18m0iy8uPOzpGwmKh2jfFT2dOOzEMtRekbkJOY
LdtrITZOHAiTkuBoIIgB4D5y/dnBWsBHW9i2V8ic9aGk2cgc2drUOT2Avh1l8r7d
Zg+5QHb6GScCAwEAAaOB/TCB+jAJBgNVHRMEAjAAMCwGCWCGSAGG+EIBDQQfFh1P
cGVuU1NMIEdlbmVyYXRlZCBDZXJ0aWZpY2F0ZTAdBgNVHQ4EFgQU1P9h+4V6ueGb
2tkuQwWO1XS6PmowgZ8GA1UdIwSBlzCBlIAUP3PMhS2nb8ieODU2F9hGZ6Wlrq+h
eaR3MHUxCzAJBgNVBAYTAlJVMQswCQYDVQQIEwJOQTESMBAGA1UEBxMJVE9HTElB
VFRJMREwDwYDVQQKEwhJTlpBLUxURDEPMA0GA1UEAxMGc2VydmVyMSEwHwYJKoZI
hvcNAQkBFhJwYXZlbEBrdXN0by5jb20ucnWCAQAwDQYJKoZIhvcNAQEEBQADgYEA
MPbIKp6+gcdkrt/QYeTlYRzZdDAet2aNX63BOIqYbSpO2E64dhu5+S7Hu5Iq9RAF
ogRLgS1ctaBvgqTtEqvPrX21iBNCz7BGR4F/1PGIcGomE84tg6kXoViibMAU457K
02Ekd+g8bK8qMRc766pLLhdDftoLjFm0oKOWeGfvwD4=
-----END CERTIFICATE-----
