Certificate:
    Data:
        Version: 3 (0x2)
        Serial Number: 5 (0x5)
        Signature Algorithm: md5WithRSAEncryption
        Issuer: C=RU, ST=NA, L=TOGLIATTI, O=INZA-LTD, CN=server/emailAddress=pavel@kusto.com.ru
        Validity
            Not Before: Oct  8 09:10:33 2007 GMT
            Not After : Oct  5 09:10:33 2017 GMT
        Subject: C=RU, ST=NA, O=INZA-LTD, CN=pelican31/emailAddress=pavel@kusto.com.ru
        Subject Public Key Info:
            Public Key Algorithm: rsaEncryption
            RSA Public Key: (1024 bit)
                Modulus (1024 bit):
                    00:be:ce:2c:2c:92:e9:76:70:9c:ff:98:d7:cf:3f:
                    87:ee:21:fd:b2:0f:72:7d:a4:38:e5:89:78:25:87:
                    62:3d:6e:43:45:03:64:0e:49:ec:7a:dd:66:c7:2b:
                    5a:0b:4e:b2:b2:d1:14:c6:0e:7f:4c:5e:78:af:b4:
                    7e:69:45:37:20:46:fc:c8:9b:f1:68:68:aa:63:59:
                    24:e1:c2:7d:89:64:c3:7c:96:67:e4:75:89:76:cf:
                    ec:1b:2e:e8:19:ac:35:da:38:03:68:7b:20:31:a3:
                    ef:60:1c:cf:34:9f:54:a0:55:9c:60:37:7b:dc:bd:
                    5b:4e:70:2a:33:8c:ab:b0:19
                Exponent: 65537 (0x10001)
        X509v3 extensions:
            X509v3 Basic Constraints: 
                CA:FALSE
            Netscape Comment: 
                OpenSSL Generated Certificate
            X509v3 Subject Key Identifier: 
                0E:CB:20:87:4E:55:01:DE:77:AD:D4:EB:71:D6:96:AC:ED:E0:7A:4F
            X509v3 Authority Key Identifier: 
                keyid:3F:73:CC:85:2D:A7:6F:C8:9E:38:35:36:17:D8:46:67:A5:A5:AE:AF
                DirName:/C=RU/ST=NA/L=TOGLIATTI/O=INZA-LTD/CN=server/emailAddress=pavel@kusto.com.ru
                serial:00

    Signature Algorithm: md5WithRSAEncryption
        2c:f3:c7:04:a6:76:3e:7b:17:7a:83:56:4e:20:ad:b5:d1:7e:
        6d:7e:38:7c:5e:b0:a8:46:84:bd:96:12:88:a8:3c:f1:fb:e3:
        20:fe:50:45:19:f6:bb:cc:65:52:e3:4a:15:d5:c4:5f:35:e5:
        84:19:27:3a:7c:11:54:c9:ee:34:01:fe:ff:40:70:d4:28:3c:
        27:9b:50:1d:23:0f:e4:1b:50:f0:a0:8f:2d:4b:7d:c0:c9:56:
        61:c3:72:d9:87:0c:6d:a1:f3:7f:a6:34:38:64:7e:81:b5:c1:
        f5:0e:22:bb:a7:dd:9d:04:fb:23:cf:6d:56:e7:29:3c:49:22:
        b8:f9
-----BEGIN CERTIFICATE-----
MIIDTTCCAragAwIBAgIBBTANBgkqhkiG9w0BAQQFADB1MQswCQYDVQQGEwJSVTEL
MAkGA1UECBMCTkExEjAQBgNVBAcTCVRPR0xJQVRUSTERMA8GA1UEChMISU5aQS1M
VEQxDzANBgNVBAMTBnNlcnZlcjEhMB8GCSqGSIb3DQEJARYScGF2ZWxAa3VzdG8u
Y29tLnJ1MB4XDTA3MTAwODA5MTAzM1oXDTE3MTAwNTA5MTAzM1owZDELMAkGA1UE
BhMCUlUxCzAJBgNVBAgTAk5BMREwDwYDVQQKEwhJTlpBLUxURDESMBAGA1UEAxMJ
cGVsaWNhbjMxMSEwHwYJKoZIhvcNAQkBFhJwYXZlbEBrdXN0by5jb20ucnUwgZ8w
DQYJKoZIhvcNAQEBBQADgY0AMIGJAoGBAL7OLCyS6XZwnP+Y188/h+4h/bIPcn2k
OOWJeCWHYj1uQ0UDZA5J7HrdZscrWgtOsrLRFMYOf0xeeK+0fmlFNyBG/Mib8Who
qmNZJOHCfYlkw3yWZ+R1iXbP7Bsu6BmsNdo4A2h7IDGj72AczzSfVKBVnGA3e9y9
W05wKjOMq7AZAgMBAAGjgf0wgfowCQYDVR0TBAIwADAsBglghkgBhvhCAQ0EHxYd
T3BlblNTTCBHZW5lcmF0ZWQgQ2VydGlmaWNhdGUwHQYDVR0OBBYEFA7LIIdOVQHe
d63U63HWlqzt4HpPMIGfBgNVHSMEgZcwgZSAFD9zzIUtp2/Injg1NhfYRmelpa6v
oXmkdzB1MQswCQYDVQQGEwJSVTELMAkGA1UECBMCTkExEjAQBgNVBAcTCVRPR0xJ
QVRUSTERMA8GA1UEChMISU5aQS1MVEQxDzANBgNVBAMTBnNlcnZlcjEhMB8GCSqG
SIb3DQEJARYScGF2ZWxAa3VzdG8uY29tLnJ1ggEAMA0GCSqGSIb3DQEBBAUAA4GB
ACzzxwSmdj57F3qDVk4grbXRfm1+OHxesKhGhL2WEoioPPH74yD+UEUZ9rvMZVLj
ShXVxF815YQZJzp8EVTJ7jQB/v9AcNQoPCebUB0jD+QbUPCgjy1LfcDJVmHDctmH
DG2h83+mNDhkfoG1wfUOIrun3Z0E+yPPbVbnKTxJIrj5
-----END CERTIFICATE-----
