Certificate:
    Data:
        Version: 3 (0x2)
        Serial Number: 8 (0x8)
        Signature Algorithm: md5WithRSAEncryption
        Issuer: C=RU, ST=NA, L=TOGLIATTI, O=INZA-LTD, CN=server/emailAddress=pavel@kusto.com.ru
        Validity
            Not Before: Oct  8 09:11:16 2007 GMT
            Not After : Oct  5 09:11:16 2017 GMT
        Subject: C=RU, ST=NA, O=INZA-LTD, CN=pelican50/emailAddress=pavel@kusto.com.ru
        Subject Public Key Info:
            Public Key Algorithm: rsaEncryption
            RSA Public Key: (1024 bit)
                Modulus (1024 bit):
                    00:9f:41:f4:e2:7f:74:8c:58:df:f7:90:9a:44:e9:
                    9d:51:01:f6:50:c8:b4:55:70:01:71:e6:a7:bd:38:
                    38:27:12:03:2f:39:10:56:d8:8e:4a:fe:46:c9:6d:
                    a3:42:ce:b4:cd:cb:6c:f6:fa:0f:98:e9:f5:28:0a:
                    54:2c:3c:05:b4:45:7f:32:cb:7f:ca:25:63:d7:b4:
                    89:5d:f3:63:4e:7d:25:c8:8b:3d:2d:f1:e7:bf:04:
                    61:a9:1e:e0:8d:fb:2b:75:89:05:0c:1b:fa:12:d4:
                    e2:5f:b5:b2:7d:5c:86:04:8e:f9:07:71:70:24:43:
                    c3:f8:ef:ef:0d:2b:02:d2:73
                Exponent: 65537 (0x10001)
        X509v3 extensions:
            X509v3 Basic Constraints: 
                CA:FALSE
            Netscape Comment: 
                OpenSSL Generated Certificate
            X509v3 Subject Key Identifier: 
                A8:F6:2D:21:D0:39:59:15:08:E8:0A:E6:19:83:58:14:3E:CC:6E:D0
            X509v3 Authority Key Identifier: 
                keyid:3F:73:CC:85:2D:A7:6F:C8:9E:38:35:36:17:D8:46:67:A5:A5:AE:AF
                DirName:/C=RU/ST=NA/L=TOGLIATTI/O=INZA-LTD/CN=server/emailAddress=pavel@kusto.com.ru
                serial:00

    Signature Algorithm: md5WithRSAEncryption
        5d:3f:f8:18:e0:92:b7:e4:e0:17:43:65:ce:e1:19:ff:ba:d4:
        2f:de:d1:2b:2b:a4:21:d5:35:08:ed:c4:9e:12:47:97:96:fd:
        7a:78:77:b4:11:65:11:6a:93:bf:ac:87:b1:d6:7a:5a:19:96:
        f3:47:50:c7:96:42:cb:55:81:8c:ab:6b:46:86:1a:d5:6a:69:
        c2:eb:64:eb:d3:97:6e:e7:dd:37:fe:e5:34:79:d1:11:9f:d1:
        f5:09:54:5a:46:ff:12:6b:38:aa:1b:99:22:1d:8b:1a:c2:93:
        db:86:f4:d1:91:3c:36:3c:95:6f:1f:10:6f:51:01:b1:e2:2b:
        a5:a9
-----BEGIN CERTIFICATE-----
MIIDTTCCAragAwIBAgIBCDANBgkqhkiG9w0BAQQFADB1MQswCQYDVQQGEwJSVTEL
MAkGA1UECBMCTkExEjAQBgNVBAcTCVRPR0xJQVRUSTERMA8GA1UEChMISU5aQS1M
VEQxDzANBgNVBAMTBnNlcnZlcjEhMB8GCSqGSIb3DQEJARYScGF2ZWxAa3VzdG8u
Y29tLnJ1MB4XDTA3MTAwODA5MTExNloXDTE3MTAwNTA5MTExNlowZDELMAkGA1UE
BhMCUlUxCzAJBgNVBAgTAk5BMREwDwYDVQQKEwhJTlpBLUxURDESMBAGA1UEAxMJ
cGVsaWNhbjUwMSEwHwYJKoZIhvcNAQkBFhJwYXZlbEBrdXN0by5jb20ucnUwgZ8w
DQYJKoZIhvcNAQEBBQADgY0AMIGJAoGBAJ9B9OJ/dIxY3/eQmkTpnVEB9lDItFVw
AXHmp704OCcSAy85EFbYjkr+Rslto0LOtM3LbPb6D5jp9SgKVCw8BbRFfzLLf8ol
Y9e0iV3zY059JciLPS3x578EYake4I37K3WJBQwb+hLU4l+1sn1chgSO+QdxcCRD
w/jv7w0rAtJzAgMBAAGjgf0wgfowCQYDVR0TBAIwADAsBglghkgBhvhCAQ0EHxYd
T3BlblNTTCBHZW5lcmF0ZWQgQ2VydGlmaWNhdGUwHQYDVR0OBBYEFKj2LSHQOVkV
COgK5hmDWBQ+zG7QMIGfBgNVHSMEgZcwgZSAFD9zzIUtp2/Injg1NhfYRmelpa6v
oXmkdzB1MQswCQYDVQQGEwJSVTELMAkGA1UECBMCTkExEjAQBgNVBAcTCVRPR0xJ
QVRUSTERMA8GA1UEChMISU5aQS1MVEQxDzANBgNVBAMTBnNlcnZlcjEhMB8GCSqG
SIb3DQEJARYScGF2ZWxAa3VzdG8uY29tLnJ1ggEAMA0GCSqGSIb3DQEBBAUAA4GB
AF0/+Bjgkrfk4BdDZc7hGf+61C/e0SsrpCHVNQjtxJ4SR5eW/Xp4d7QRZRFqk7+s
h7HWeloZlvNHUMeWQstVgYyra0aGGtVqacLrZOvTl27n3Tf+5TR50RGf0fUJVFpG
/xJrOKobmSIdixrCk9uG9NGRPDY8lW8fEG9RAbHiK6Wp
-----END CERTIFICATE-----
