Certificate:
    Data:
        Version: 3 (0x2)
        Serial Number: 9 (0x9)
        Signature Algorithm: md5WithRSAEncryption
        Issuer: C=RU, ST=NA, L=TOGLIATTI, O=INZA-LTD, CN=server/emailAddress=pavel@kusto.com.ru
        Validity
            Not Before: Oct  8 09:11:34 2007 GMT
            Not After : Oct  5 09:11:34 2017 GMT
        Subject: C=RU, ST=NA, O=INZA-LTD, CN=pelican6/emailAddress=pavel@kusto.com.ru
        Subject Public Key Info:
            Public Key Algorithm: rsaEncryption
            RSA Public Key: (1024 bit)
                Modulus (1024 bit):
                    00:a8:b0:9e:81:3d:ba:44:84:ef:83:0c:4e:68:3d:
                    f7:38:f2:09:33:11:86:22:ea:fd:54:54:28:24:79:
                    6d:ac:dd:f8:3c:c4:b4:8e:cb:02:35:d8:1c:dd:a2:
                    ce:92:1a:ba:98:0e:62:9a:71:fd:cf:84:47:97:64:
                    6b:44:e9:14:0d:9f:2c:6d:7a:15:a6:24:1f:5b:29:
                    de:5b:bc:79:f6:b4:cb:37:42:a6:0a:63:1f:fa:33:
                    51:04:65:d2:dc:41:c6:ab:1c:72:f2:19:bf:ed:ba:
                    f1:29:f9:e8:68:21:27:f7:73:3c:7c:25:30:73:e3:
                    3d:64:1b:5d:36:47:19:62:85
                Exponent: 65537 (0x10001)
        X509v3 extensions:
            X509v3 Basic Constraints: 
                CA:FALSE
            Netscape Comment: 
                OpenSSL Generated Certificate
            X509v3 Subject Key Identifier: 
                6D:8E:C2:0D:D1:83:37:50:CA:38:61:8E:53:B1:FF:38:26:F2:F0:A8
            X509v3 Authority Key Identifier: 
                keyid:3F:73:CC:85:2D:A7:6F:C8:9E:38:35:36:17:D8:46:67:A5:A5:AE:AF
                DirName:/C=RU/ST=NA/L=TOGLIATTI/O=INZA-LTD/CN=server/emailAddress=pavel@kusto.com.ru
                serial:00

    Signature Algorithm: md5WithRSAEncryption
        a7:53:85:43:ea:7a:34:e8:10:23:0d:fb:74:ee:1a:39:7d:03:
        a4:49:6d:28:f6:92:e6:c1:c1:49:e6:8f:fc:6d:19:d3:64:d0:
        e1:85:51:c6:b8:0d:b7:51:ac:06:cb:9f:44:01:fb:08:a8:a8:
        6c:9a:18:85:11:12:3c:ad:21:03:c1:0d:f1:5d:36:bd:29:f4:
        0d:a2:a0:b7:18:b1:7c:ae:cb:54:42:c6:ec:b0:f1:9c:91:da:
        5b:f0:bf:d2:45:9a:b3:40:eb:80:8a:ff:b3:53:54:19:4d:2f:
        88:e0:f2:9e:46:df:58:b1:32:a2:42:c2:4f:38:bc:45:04:f7:
        de:c9
-----BEGIN CERTIFICATE-----
MIIDTDCCArWgAwIBAgIBCTANBgkqhkiG9w0BAQQFADB1MQswCQYDVQQGEwJSVTEL
MAkGA1UECBMCTkExEjAQBgNVBAcTCVRPR0xJQVRUSTERMA8GA1UEChMISU5aQS1M
VEQxDzANBgNVBAMTBnNlcnZlcjEhMB8GCSqGSIb3DQEJARYScGF2ZWxAa3VzdG8u
Y29tLnJ1MB4XDTA3MTAwODA5MTEzNFoXDTE3MTAwNTA5MTEzNFowYzELMAkGA1UE
BhMCUlUxCzAJBgNVBAgTAk5BMREwDwYDVQQKEwhJTlpBLUxURDERMA8GA1UEAxMI
cGVsaWNhbjYxITAfBgkqhkiG9w0BCQEWEnBhdmVsQGt1c3RvLmNvbS5ydTCBnzAN
BgkqhkiG9w0BAQEFAAOBjQAwgYkCgYEAqLCegT26RITvgwxOaD33OPIJMxGGIur9
VFQoJHltrN34PMS0jssCNdgc3aLOkhq6mA5imnH9z4RHl2RrROkUDZ8sbXoVpiQf
WyneW7x59rTLN0KmCmMf+jNRBGXS3EHGqxxy8hm/7brxKfnoaCEn93M8fCUwc+M9
ZBtdNkcZYoUCAwEAAaOB/TCB+jAJBgNVHRMEAjAAMCwGCWCGSAGG+EIBDQQfFh1P
cGVuU1NMIEdlbmVyYXRlZCBDZXJ0aWZpY2F0ZTAdBgNVHQ4EFgQUbY7CDdGDN1DK
OGGOU7H/OCby8KgwgZ8GA1UdIwSBlzCBlIAUP3PMhS2nb8ieODU2F9hGZ6Wlrq+h
eaR3MHUxCzAJBgNVBAYTAlJVMQswCQYDVQQIEwJOQTESMBAGA1UEBxMJVE9HTElB
VFRJMREwDwYDVQQKEwhJTlpBLUxURDEPMA0GA1UEAxMGc2VydmVyMSEwHwYJKoZI
hvcNAQkBFhJwYXZlbEBrdXN0by5jb20ucnWCAQAwDQYJKoZIhvcNAQEEBQADgYEA
p1OFQ+p6NOgQIw37dO4aOX0DpEltKPaS5sHBSeaP/G0Z02TQ4YVRxrgNt1GsBsuf
RAH7CKiobJoYhRESPK0hA8EN8V02vSn0DaKgtxixfK7LVELG7LDxnJHaW/C/0kWa
s0DrgIr/s1NUGU0viODynkbfWLEyokLCTzi8RQT33sk=
-----END CERTIFICATE-----
