Certificate:
    Data:
        Version: 3 (0x2)
        Serial Number: 15 (0xf)
        Signature Algorithm: md5WithRSAEncryption
        Issuer: C=RU, ST=NA, L=TOGLIATTI, O=INZA-LTD, CN=server/emailAddress=pavel@kusto.com.ru
        Validity
            Not Before: Oct 11 05:18:57 2007 GMT
            Not After : Oct  8 05:18:57 2017 GMT
        Subject: C=RU, ST=NA, O=INZA-LTD, CN=pelican9/emailAddress=pavel@kusto.com.ru
        Subject Public Key Info:
            Public Key Algorithm: rsaEncryption
            RSA Public Key: (1024 bit)
                Modulus (1024 bit):
                    00:ae:d7:7d:f4:11:81:8a:f4:72:86:6e:dc:9b:5d:
                    a7:10:65:a3:86:ad:3b:ea:fe:bb:98:55:5d:92:a6:
                    e8:79:be:eb:4c:88:01:d4:a4:2a:f8:fa:2d:37:65:
                    b5:74:51:68:a4:c7:7c:18:3d:27:80:c1:af:70:76:
                    60:b5:1f:40:c7:e6:ef:6f:e3:84:33:a1:5f:19:cf:
                    52:e4:3c:c4:01:c3:d4:8f:96:2a:f3:e7:9f:be:10:
                    e5:c0:7e:32:c5:ff:11:09:b6:41:90:71:21:99:bd:
                    f3:b6:af:9f:5f:9d:59:24:1f:cf:97:c5:76:af:6e:
                    87:57:01:ee:0c:8b:0e:bc:31
                Exponent: 65537 (0x10001)
        X509v3 extensions:
            X509v3 Basic Constraints: 
                CA:FALSE
            Netscape Comment: 
                OpenSSL Generated Certificate
            X509v3 Subject Key Identifier: 
                69:80:EE:50:51:6D:60:60:F0:39:79:A4:11:35:CA:F1:CC:03:ED:19
            X509v3 Authority Key Identifier: 
                keyid:3F:73:CC:85:2D:A7:6F:C8:9E:38:35:36:17:D8:46:67:A5:A5:AE:AF
                DirName:/C=RU/ST=NA/L=TOGLIATTI/O=INZA-LTD/CN=server/emailAddress=pavel@kusto.com.ru
                serial:00

    Signature Algorithm: md5WithRSAEncryption
        97:7d:61:a9:fe:e8:c7:38:33:53:04:14:f8:f2:1f:79:f2:24:
        3b:95:c7:2c:5c:79:26:d0:07:d2:07:10:1d:e2:90:3f:9d:a5:
        be:c9:9f:31:55:e9:3b:ee:bd:8d:18:a4:9f:24:00:ff:49:16:
        3c:eb:00:81:22:7a:2b:26:dc:e1:e3:46:48:a6:3f:59:40:c5:
        e4:85:85:b9:c8:f7:7b:f1:6b:5b:80:69:03:3a:c3:a3:08:b0:
        5e:7b:e1:52:be:d9:e0:ce:db:f3:a1:5d:e5:c8:cd:8f:b0:34:
        00:ba:2f:9d:39:64:85:23:ae:a8:be:1d:e5:4d:ad:d7:53:c0:
        34:a3
-----BEGIN CERTIFICATE-----
MIIDTDCCArWgAwIBAgIBDzANBgkqhkiG9w0BAQQFADB1MQswCQYDVQQGEwJSVTEL
MAkGA1UECBMCTkExEjAQBgNVBAcTCVRPR0xJQVRUSTERMA8GA1UEChMISU5aQS1M
VEQxDzANBgNVBAMTBnNlcnZlcjEhMB8GCSqGSIb3DQEJARYScGF2ZWxAa3VzdG8u
Y29tLnJ1MB4XDTA3MTAxMTA1MTg1N1oXDTE3MTAwODA1MTg1N1owYzELMAkGA1UE
BhMCUlUxCzAJBgNVBAgTAk5BMREwDwYDVQQKEwhJTlpBLUxURDERMA8GA1UEAxMI
cGVsaWNhbjkxITAfBgkqhkiG9w0BCQEWEnBhdmVsQGt1c3RvLmNvbS5ydTCBnzAN
BgkqhkiG9w0BAQEFAAOBjQAwgYkCgYEArtd99BGBivRyhm7cm12nEGWjhq076v67
mFVdkqboeb7rTIgB1KQq+PotN2W1dFFopMd8GD0ngMGvcHZgtR9Ax+bvb+OEM6Ff
Gc9S5DzEAcPUj5Yq8+efvhDlwH4yxf8RCbZBkHEhmb3ztq+fX51ZJB/Pl8V2r26H
VwHuDIsOvDECAwEAAaOB/TCB+jAJBgNVHRMEAjAAMCwGCWCGSAGG+EIBDQQfFh1P
cGVuU1NMIEdlbmVyYXRlZCBDZXJ0aWZpY2F0ZTAdBgNVHQ4EFgQUaYDuUFFtYGDw
OXmkETXK8cwD7RkwgZ8GA1UdIwSBlzCBlIAUP3PMhS2nb8ieODU2F9hGZ6Wlrq+h
eaR3MHUxCzAJBgNVBAYTAlJVMQswCQYDVQQIEwJOQTESMBAGA1UEBxMJVE9HTElB
VFRJMREwDwYDVQQKEwhJTlpBLUxURDEPMA0GA1UEAxMGc2VydmVyMSEwHwYJKoZI
hvcNAQkBFhJwYXZlbEBrdXN0by5jb20ucnWCAQAwDQYJKoZIhvcNAQEEBQADgYEA
l31hqf7oxzgzUwQU+PIfefIkO5XHLFx5JtAH0gcQHeKQP52lvsmfMVXpO+69jRik
nyQA/0kWPOsAgSJ6Kybc4eNGSKY/WUDF5IWFucj3e/FrW4BpAzrDowiwXnvhUr7Z
4M7b86Fd5cjNj7A0ALovnTlkhSOuqL4d5U2t11PANKM=
-----END CERTIFICATE-----
