Certificate:
    Data:
        Version: 3 (0x2)
        Serial Number: 18 (0x12)
        Signature Algorithm: md5WithRSAEncryption
        Issuer: C=RU, ST=NA, L=TOGLIATTI, O=INZA-LTD, CN=server/emailAddress=pavel@kusto.com.ru
        Validity
            Not Before: Dec 27 12:13:04 2007 GMT
            Not After : Dec 24 12:13:04 2017 GMT
        Subject: C=RU, ST=NA, O=INZA-LTD, CN=pelican13/emailAddress=pavel@kusto.com.ru
        Subject Public Key Info:
            Public Key Algorithm: rsaEncryption
            RSA Public Key: (1024 bit)
                Modulus (1024 bit):
                    00:cd:3a:f9:88:9f:e6:4b:8d:95:ff:03:27:e1:db:
                    c2:8a:6e:d0:85:66:db:dd:d9:08:7c:79:1c:95:d9:
                    4b:18:8e:db:1a:59:b5:15:d2:72:00:6d:69:15:78:
                    e0:92:be:cc:4b:b9:87:9c:18:21:22:0d:83:24:14:
                    4b:e2:9a:ad:d5:9b:af:84:c4:26:a0:3b:bd:c9:07:
                    4d:2b:30:43:38:9a:a7:19:1d:27:82:eb:42:59:d3:
                    1b:9b:a7:b7:7b:9c:bc:e8:27:1c:4d:fd:71:25:0b:
                    4d:14:6e:53:00:00:28:fc:9e:a0:af:22:18:3f:47:
                    84:10:d3:96:8a:f8:36:6a:7b
                Exponent: 65537 (0x10001)
        X509v3 extensions:
            X509v3 Basic Constraints: 
                CA:FALSE
            Netscape Comment: 
                OpenSSL Generated Certificate
            X509v3 Subject Key Identifier: 
                26:52:A8:EB:3A:B4:5C:19:67:CF:92:BE:53:25:61:46:C6:A9:2D:9A
            X509v3 Authority Key Identifier: 
                keyid:3F:73:CC:85:2D:A7:6F:C8:9E:38:35:36:17:D8:46:67:A5:A5:AE:AF
                DirName:/C=RU/ST=NA/L=TOGLIATTI/O=INZA-LTD/CN=server/emailAddress=pavel@kusto.com.ru
                serial:00

    Signature Algorithm: md5WithRSAEncryption
        3d:11:96:aa:1f:e2:92:bf:f4:8b:34:22:bf:9f:a6:79:e5:f2:
        e4:a4:ca:30:bd:73:b1:72:24:0a:e2:fe:35:44:df:4a:c0:d9:
        78:cf:46:ca:3c:1e:17:d1:af:3c:d0:74:d9:5b:6b:f1:c4:5f:
        b5:42:b5:e4:41:42:eb:10:11:ac:b4:c3:34:b3:e5:8a:af:f3:
        91:7c:e5:3a:48:be:9c:ce:01:3a:05:6c:07:41:ad:39:d0:86:
        26:dd:2d:d1:58:17:a6:87:e8:1f:16:24:45:76:38:5f:9c:91:
        98:94:25:5b:4e:7c:c6:6a:87:d3:d2:12:a7:d3:02:44:d3:a8:
        7d:8f
-----BEGIN CERTIFICATE-----
MIIDTTCCAragAwIBAgIBEjANBgkqhkiG9w0BAQQFADB1MQswCQYDVQQGEwJSVTEL
MAkGA1UECBMCTkExEjAQBgNVBAcTCVRPR0xJQVRUSTERMA8GA1UEChMISU5aQS1M
VEQxDzANBgNVBAMTBnNlcnZlcjEhMB8GCSqGSIb3DQEJARYScGF2ZWxAa3VzdG8u
Y29tLnJ1MB4XDTA3MTIyNzEyMTMwNFoXDTE3MTIyNDEyMTMwNFowZDELMAkGA1UE
BhMCUlUxCzAJBgNVBAgTAk5BMREwDwYDVQQKEwhJTlpBLUxURDESMBAGA1UEAxMJ
cGVsaWNhbjEzMSEwHwYJKoZIhvcNAQkBFhJwYXZlbEBrdXN0by5jb20ucnUwgZ8w
DQYJKoZIhvcNAQEBBQADgY0AMIGJAoGBAM06+Yif5kuNlf8DJ+Hbwopu0IVm293Z
CHx5HJXZSxiO2xpZtRXScgBtaRV44JK+zEu5h5wYISINgyQUS+KardWbr4TEJqA7
vckHTSswQziapxkdJ4LrQlnTG5unt3ucvOgnHE39cSULTRRuUwAAKPyeoK8iGD9H
hBDTlor4Nmp7AgMBAAGjgf0wgfowCQYDVR0TBAIwADAsBglghkgBhvhCAQ0EHxYd
T3BlblNTTCBHZW5lcmF0ZWQgQ2VydGlmaWNhdGUwHQYDVR0OBBYEFCZSqOs6tFwZ
Z8+SvlMlYUbGqS2aMIGfBgNVHSMEgZcwgZSAFD9zzIUtp2/Injg1NhfYRmelpa6v
oXmkdzB1MQswCQYDVQQGEwJSVTELMAkGA1UECBMCTkExEjAQBgNVBAcTCVRPR0xJ
QVRUSTERMA8GA1UEChMISU5aQS1MVEQxDzANBgNVBAMTBnNlcnZlcjEhMB8GCSqG
SIb3DQEJARYScGF2ZWxAa3VzdG8uY29tLnJ1ggEAMA0GCSqGSIb3DQEBBAUAA4GB
AD0Rlqof4pK/9Is0Ir+fpnnl8uSkyjC9c7FyJAri/jVE30rA2XjPRso8HhfRrzzQ
dNlba/HEX7VCteRBQusQEay0wzSz5Yqv85F85TpIvpzOAToFbAdBrTnQhibdLdFY
F6aH6B8WJEV2OF+ckZiUJVtOfMZqh9PSEqfTAkTTqH2P
-----END CERTIFICATE-----
