Certificate:
    Data:
        Version: 3 (0x2)
        Serial Number: 7 (0x7)
        Signature Algorithm: md5WithRSAEncryption
        Issuer: C=RU, ST=NA, L=TOGLIATTI, O=INZA-LTD, CN=server/emailAddress=pavel@kusto.com.ru
        Validity
            Not Before: Oct  8 09:11:02 2007 GMT
            Not After : Oct  5 09:11:02 2017 GMT
        Subject: C=RU, ST=NA, O=INZA-LTD, CN=pelican5/emailAddress=pavel@kusto.com.ru
        Subject Public Key Info:
            Public Key Algorithm: rsaEncryption
            RSA Public Key: (1024 bit)
                Modulus (1024 bit):
                    00:c4:2d:c3:b3:3f:e2:f4:6d:1d:16:f1:a7:33:ab:
                    23:22:81:4b:a8:4e:3a:fe:93:2e:ad:da:29:cb:5d:
                    58:0a:86:b4:6f:43:c1:53:ce:6d:9e:43:4f:6d:76:
                    94:52:45:4c:59:5f:d7:26:17:18:05:41:a7:2b:3d:
                    f1:f3:93:ba:d5:2e:55:5b:2e:dc:26:fd:71:62:fa:
                    55:f6:41:f7:36:85:18:6a:ac:8d:d8:59:b8:4f:e6:
                    5f:ef:66:26:82:7f:84:d4:18:71:8a:43:f9:b9:6d:
                    a6:3f:93:44:ae:53:a8:29:d8:dc:df:a5:e9:a1:f8:
                    b5:6e:b8:6a:3f:7d:b5:bc:81
                Exponent: 65537 (0x10001)
        X509v3 extensions:
            X509v3 Basic Constraints: 
                CA:FALSE
            Netscape Comment: 
                OpenSSL Generated Certificate
            X509v3 Subject Key Identifier: 
                D2:EA:6B:99:17:ED:8B:18:80:C9:C4:21:A1:FF:32:E2:E6:F9:AC:56
            X509v3 Authority Key Identifier: 
                keyid:3F:73:CC:85:2D:A7:6F:C8:9E:38:35:36:17:D8:46:67:A5:A5:AE:AF
                DirName:/C=RU/ST=NA/L=TOGLIATTI/O=INZA-LTD/CN=server/emailAddress=pavel@kusto.com.ru
                serial:00

    Signature Algorithm: md5WithRSAEncryption
        27:26:15:26:69:c8:4c:1d:51:8b:f4:1a:7b:e6:42:40:df:b0:
        e4:8a:73:a1:0e:ec:a9:30:38:2e:e5:7f:08:50:6a:1f:df:b6:
        68:18:31:35:cc:8c:62:27:d4:a2:32:ad:21:5f:ed:92:3f:8a:
        36:04:89:2a:bd:98:6c:4f:33:e5:54:5c:db:d6:a4:e6:4f:a1:
        b7:d5:a8:48:38:67:92:81:16:79:ee:7d:b1:ca:0f:6e:c4:c6:
        23:1c:a4:30:a3:19:1f:2a:09:0f:1e:44:b7:77:1a:18:ab:7c:
        5d:2a:bf:48:83:f8:2c:38:7b:10:b0:25:85:9e:71:70:d8:82:
        5e:79
-----BEGIN CERTIFICATE-----
MIIDTDCCArWgAwIBAgIBBzANBgkqhkiG9w0BAQQFADB1MQswCQYDVQQGEwJSVTEL
MAkGA1UECBMCTkExEjAQBgNVBAcTCVRPR0xJQVRUSTERMA8GA1UEChMISU5aQS1M
VEQxDzANBgNVBAMTBnNlcnZlcjEhMB8GCSqGSIb3DQEJARYScGF2ZWxAa3VzdG8u
Y29tLnJ1MB4XDTA3MTAwODA5MTEwMloXDTE3MTAwNTA5MTEwMlowYzELMAkGA1UE
BhMCUlUxCzAJBgNVBAgTAk5BMREwDwYDVQQKEwhJTlpBLUxURDERMA8GA1UEAxMI
cGVsaWNhbjUxITAfBgkqhkiG9w0BCQEWEnBhdmVsQGt1c3RvLmNvbS5ydTCBnzAN
BgkqhkiG9w0BAQEFAAOBjQAwgYkCgYEAxC3Dsz/i9G0dFvGnM6sjIoFLqE46/pMu
rdopy11YCoa0b0PBU85tnkNPbXaUUkVMWV/XJhcYBUGnKz3x85O61S5VWy7cJv1x
YvpV9kH3NoUYaqyN2Fm4T+Zf72Ymgn+E1BhxikP5uW2mP5NErlOoKdjc36Xpofi1
brhqP321vIECAwEAAaOB/TCB+jAJBgNVHRMEAjAAMCwGCWCGSAGG+EIBDQQfFh1P
cGVuU1NMIEdlbmVyYXRlZCBDZXJ0aWZpY2F0ZTAdBgNVHQ4EFgQU0uprmRftixiA
ycQhof8y4ub5rFYwgZ8GA1UdIwSBlzCBlIAUP3PMhS2nb8ieODU2F9hGZ6Wlrq+h
eaR3MHUxCzAJBgNVBAYTAlJVMQswCQYDVQQIEwJOQTESMBAGA1UEBxMJVE9HTElB
VFRJMREwDwYDVQQKEwhJTlpBLUxURDEPMA0GA1UEAxMGc2VydmVyMSEwHwYJKoZI
hvcNAQkBFhJwYXZlbEBrdXN0by5jb20ucnWCAQAwDQYJKoZIhvcNAQEEBQADgYEA
JyYVJmnITB1Ri/Qae+ZCQN+w5IpzoQ7sqTA4LuV/CFBqH9+2aBgxNcyMYifUojKt
IV/tkj+KNgSJKr2YbE8z5VRc29ak5k+ht9WoSDhnkoEWee59scoPbsTGIxykMKMZ
HyoJDx5Et3caGKt8XSq/SIP4LDh7ELAlhZ5xcNiCXnk=
-----END CERTIFICATE-----
