Certificate:
    Data:
        Version: 3 (0x2)
        Serial Number: 6 (0x6)
        Signature Algorithm: md5WithRSAEncryption
        Issuer: C=RU, ST=NA, L=TOGLIATTI, O=INZA-LTD, CN=server/emailAddress=pavel@kusto.com.ru
        Validity
            Not Before: Oct  8 09:10:49 2007 GMT
            Not After : Oct  5 09:10:49 2017 GMT
        Subject: C=RU, ST=NA, O=INZA-LTD, CN=pelican4/emailAddress=pavel@kusto.com.ru
        Subject Public Key Info:
            Public Key Algorithm: rsaEncryption
            RSA Public Key: (1024 bit)
                Modulus (1024 bit):
                    00:d3:45:a3:67:6d:3d:28:86:e9:74:93:f0:c1:41:
                    ba:49:52:f1:30:da:d9:b9:67:57:ff:5d:7a:f7:62:
                    63:f0:b0:c7:15:61:b0:f0:b0:85:31:69:d7:48:e0:
                    0a:af:71:a6:ef:13:c3:3c:fd:41:51:e3:0a:02:83:
                    f0:3b:4f:6e:90:7f:fc:49:2b:55:a5:b1:0e:c4:2c:
                    16:1b:ff:f2:19:b7:03:e0:84:bf:23:a7:44:48:6a:
                    76:38:41:db:df:0c:3f:83:74:0d:8b:a8:73:8e:c0:
                    d5:95:b3:22:b9:f9:f1:e7:24:37:a6:54:ba:a6:9c:
                    18:af:58:cf:54:0d:8b:dd:51
                Exponent: 65537 (0x10001)
        X509v3 extensions:
            X509v3 Basic Constraints: 
                CA:FALSE
            Netscape Comment: 
                OpenSSL Generated Certificate
            X509v3 Subject Key Identifier: 
                A1:E9:60:37:EF:EA:E3:63:9D:E6:25:3F:95:CB:BD:DE:04:9F:8C:AF
            X509v3 Authority Key Identifier: 
                keyid:3F:73:CC:85:2D:A7:6F:C8:9E:38:35:36:17:D8:46:67:A5:A5:AE:AF
                DirName:/C=RU/ST=NA/L=TOGLIATTI/O=INZA-LTD/CN=server/emailAddress=pavel@kusto.com.ru
                serial:00

    Signature Algorithm: md5WithRSAEncryption
        89:04:88:b2:cd:2d:e9:fb:92:78:74:75:b3:02:9b:60:ec:a5:
        90:1c:c1:af:9d:ff:ab:96:86:22:da:5f:d4:b3:75:4b:11:8f:
        6b:4e:32:3f:79:73:24:0d:c6:9e:72:78:3a:67:f4:0b:de:09:
        9a:a2:28:90:60:b3:a7:26:07:26:64:d3:c5:a8:05:0c:7e:50:
        50:da:01:dd:59:28:f7:8c:07:eb:c3:29:73:46:a2:b3:fc:14:
        1d:49:55:aa:26:74:00:95:83:22:86:0c:e0:5d:6a:8c:3b:b2:
        b7:05:eb:25:d1:5c:82:7f:ce:ca:4d:bc:4a:41:14:a4:6b:9f:
        03:c9
-----BEGIN CERTIFICATE-----
MIIDTDCCArWgAwIBAgIBBjANBgkqhkiG9w0BAQQFADB1MQswCQYDVQQGEwJSVTEL
MAkGA1UECBMCTkExEjAQBgNVBAcTCVRPR0xJQVRUSTERMA8GA1UEChMISU5aQS1M
VEQxDzANBgNVBAMTBnNlcnZlcjEhMB8GCSqGSIb3DQEJARYScGF2ZWxAa3VzdG8u
Y29tLnJ1MB4XDTA3MTAwODA5MTA0OVoXDTE3MTAwNTA5MTA0OVowYzELMAkGA1UE
BhMCUlUxCzAJBgNVBAgTAk5BMREwDwYDVQQKEwhJTlpBLUxURDERMA8GA1UEAxMI
cGVsaWNhbjQxITAfBgkqhkiG9w0BCQEWEnBhdmVsQGt1c3RvLmNvbS5ydTCBnzAN
BgkqhkiG9w0BAQEFAAOBjQAwgYkCgYEA00WjZ209KIbpdJPwwUG6SVLxMNrZuWdX
/11692Jj8LDHFWGw8LCFMWnXSOAKr3Gm7xPDPP1BUeMKAoPwO09ukH/8SStVpbEO
xCwWG//yGbcD4IS/I6dESGp2OEHb3ww/g3QNi6hzjsDVlbMiufnx5yQ3plS6ppwY
r1jPVA2L3VECAwEAAaOB/TCB+jAJBgNVHRMEAjAAMCwGCWCGSAGG+EIBDQQfFh1P
cGVuU1NMIEdlbmVyYXRlZCBDZXJ0aWZpY2F0ZTAdBgNVHQ4EFgQUoelgN+/q42Od
5iU/lcu93gSfjK8wgZ8GA1UdIwSBlzCBlIAUP3PMhS2nb8ieODU2F9hGZ6Wlrq+h
eaR3MHUxCzAJBgNVBAYTAlJVMQswCQYDVQQIEwJOQTESMBAGA1UEBxMJVE9HTElB
VFRJMREwDwYDVQQKEwhJTlpBLUxURDEPMA0GA1UEAxMGc2VydmVyMSEwHwYJKoZI
hvcNAQkBFhJwYXZlbEBrdXN0by5jb20ucnWCAQAwDQYJKoZIhvcNAQEEBQADgYEA
iQSIss0t6fuSeHR1swKbYOylkBzBr53/q5aGItpf1LN1SxGPa04yP3lzJA3GnnJ4
Omf0C94JmqIokGCzpyYHJmTTxagFDH5QUNoB3Vko94wH68Mpc0ais/wUHUlVqiZ0
AJWDIoYM4F1qjDuytwXrJdFcgn/Oyk28SkEUpGufA8k=
-----END CERTIFICATE-----
