Certificate:
    Data:
        Version: 3 (0x2)
        Serial Number: 9 (0x9)
    Signature Algorithm: sha1WithRSAEncryption
        Issuer: C=RU, ST=SAMARSKAYA, L=TOGLIATTY, O=NEOTREID-LTD, CN=NEOTREID-LTD CA/emailAddress=muxa@neo63.ru
        Validity
            Not Before: Sep  8 07:44:29 2015 GMT
            Not After : Sep  5 07:44:29 2025 GMT
        Subject: C=RU, ST=SAMARSKAYA, L=TOGLIATTY, O=NEOTREID-LTD, CN=p_povolzhskiy/emailAddress=muxa@neo63.ru
        Subject Public Key Info:
            Public Key Algorithm: rsaEncryption
                Public-Key: (1024 bit)
                Modulus:
                    00:f4:38:b5:0e:88:d6:77:c3:87:8d:34:85:cb:c5:
                    f2:52:b6:f0:6c:0b:57:a9:b7:09:63:64:a9:20:89:
                    ae:4d:7d:18:9b:ba:1f:0d:93:9d:46:43:4b:15:29:
                    54:7c:43:5c:17:0d:9c:03:16:3b:5a:3a:b2:29:ba:
                    4c:4e:c9:f4:bc:df:c8:75:ee:58:05:09:d5:5b:5d:
                    f3:94:06:08:5b:6e:19:c2:ed:88:11:5a:8e:f1:c9:
                    de:7a:43:77:03:8c:47:09:e5:ab:01:6d:7b:ec:c6:
                    b9:ec:3d:84:c8:f7:7d:98:cf:8f:5b:1f:d1:eb:a9:
                    aa:8e:f5:0a:ec:55:7e:8a:13
                Exponent: 65537 (0x10001)
        X509v3 extensions:
            X509v3 Basic Constraints: 
                CA:FALSE
            Netscape Comment: 
                Easy-RSA Generated Certificate
            X509v3 Subject Key Identifier: 
                D1:A1:EF:CE:1F:2A:40:AC:70:30:F1:FD:F2:6D:E3:B7:94:F4:EA:B9
            X509v3 Authority Key Identifier: 
                keyid:F8:AD:6B:CF:05:6A:F5:01:B7:8A:6F:A2:91:D0:F3:C3:E3:2B:62:F3
                DirName:/C=RU/ST=SAMARSKAYA/L=TOGLIATTY/O=NEOTREID-LTD/CN=NEOTREID-LTD CA/emailAddress=muxa@neo63.ru
                serial:A3:2E:2A:A8:AE:52:1B:B7

            X509v3 Extended Key Usage: 
                TLS Web Client Authentication
            X509v3 Key Usage: 
                Digital Signature
    Signature Algorithm: sha1WithRSAEncryption
         53:18:b4:13:e8:39:f0:d4:ff:b5:f0:66:2b:5d:31:2a:48:9b:
         d1:75:65:ef:06:c8:a9:b0:4e:66:20:00:66:d3:32:91:ac:e7:
         af:cd:bb:de:cf:7f:9c:84:dc:fd:6e:26:a0:98:c4:33:4b:c4:
         ea:55:c4:d3:45:1c:fb:97:b1:81:b5:71:70:04:d1:91:86:26:
         9a:da:c1:e0:ff:6d:14:08:ef:88:d5:28:66:a3:39:03:1c:4d:
         2b:2d:e7:5f:60:75:fe:3e:16:41:c4:d2:da:41:7d:07:80:ba:
         fd:c4:f2:71:94:5e:e4:cf:26:91:ab:af:0f:c8:78:58:17:db:
         16:89
-----BEGIN CERTIFICATE-----
MIIDvjCCAyegAwIBAgIBCTANBgkqhkiG9w0BAQUFADCBhTELMAkGA1UEBhMCUlUx
EzARBgNVBAgTClNBTUFSU0tBWUExEjAQBgNVBAcTCVRPR0xJQVRUWTEVMBMGA1UE
ChMMTkVPVFJFSUQtTFREMRgwFgYDVQQDEw9ORU9UUkVJRC1MVEQgQ0ExHDAaBgkq
hkiG9w0BCQEWDW11eGFAbmVvNjMucnUwHhcNMTUwOTA4MDc0NDI5WhcNMjUwOTA1
MDc0NDI5WjCBgzELMAkGA1UEBhMCUlUxEzARBgNVBAgTClNBTUFSU0tBWUExEjAQ
BgNVBAcTCVRPR0xJQVRUWTEVMBMGA1UEChMMTkVPVFJFSUQtTFREMRYwFAYDVQQD
FA1wX3Bvdm9semhza2l5MRwwGgYJKoZIhvcNAQkBFg1tdXhhQG5lbzYzLnJ1MIGf
MA0GCSqGSIb3DQEBAQUAA4GNADCBiQKBgQD0OLUOiNZ3w4eNNIXLxfJStvBsC1ep
twljZKkgia5NfRibuh8Nk51GQ0sVKVR8Q1wXDZwDFjtaOrIpukxOyfS838h17lgF
CdVbXfOUBghbbhnC7YgRWo7xyd56Q3cDjEcJ5asBbXvsxrnsPYTI932Yz49bH9Hr
qaqO9QrsVX6KEwIDAQABo4IBPDCCATgwCQYDVR0TBAIwADAtBglghkgBhvhCAQ0E
IBYeRWFzeS1SU0EgR2VuZXJhdGVkIENlcnRpZmljYXRlMB0GA1UdDgQWBBTRoe/O
HypArHAw8f3ybeO3lPTquTCBugYDVR0jBIGyMIGvgBT4rWvPBWr1AbeKb6KR0PPD
4yti86GBi6SBiDCBhTELMAkGA1UEBhMCUlUxEzARBgNVBAgTClNBTUFSU0tBWUEx
EjAQBgNVBAcTCVRPR0xJQVRUWTEVMBMGA1UEChMMTkVPVFJFSUQtTFREMRgwFgYD
VQQDEw9ORU9UUkVJRC1MVEQgQ0ExHDAaBgkqhkiG9w0BCQEWDW11eGFAbmVvNjMu
cnWCCQCjLiqorlIbtzATBgNVHSUEDDAKBggrBgEFBQcDAjALBgNVHQ8EBAMCB4Aw
DQYJKoZIhvcNAQEFBQADgYEAUxi0E+g58NT/tfBmK10xKkib0XVl7wbIqbBOZiAA
ZtMykaznr8273s9/nITc/W4moJjEM0vE6lXE00Uc+5exgbVxcATRkYYmmtrB4P9t
FAjviNUoZqM5AxxNKy3nX2B1/j4WQcTS2kF9B4C6/cTycZRe5M8mkauvD8h4WBfb
Fok=
-----END CERTIFICATE-----
