Certificate:
    Data:
        Version: 3 (0x2)
        Serial Number: 10 (0xa)
    Signature Algorithm: sha1WithRSAEncryption
        Issuer: C=RU, ST=SAMARSKAYA, L=TOGLIATTY, O=NEOTREID-LTD, CN=NEOTREID-LTD CA/emailAddress=muxa@neo63.ru
        Validity
            Not Before: Sep  8 07:47:04 2015 GMT
            Not After : Sep  5 07:47:04 2025 GMT
        Subject: C=RU, ST=SAMARSKAYA, L=TOGLIATTY, O=NEOTREID-LTD, CN=p_lizach/emailAddress=muxa@neo63.ru
        Subject Public Key Info:
            Public Key Algorithm: rsaEncryption
                Public-Key: (1024 bit)
                Modulus:
                    00:ba:0e:cd:99:79:14:41:8b:80:78:da:2e:e3:6a:
                    68:7c:1b:fa:d6:96:84:d6:c8:6b:86:19:bb:6a:6b:
                    03:93:3c:10:e4:89:ba:19:c3:ff:80:2a:86:b2:77:
                    06:86:4a:3e:40:cd:e7:65:c2:5c:e2:98:23:52:0a:
                    05:36:75:59:02:73:4e:bc:50:d0:d8:66:c5:05:42:
                    db:6d:f1:34:7d:73:2f:72:cd:63:05:ef:e0:e7:f8:
                    f1:c7:4d:41:44:7a:00:9d:80:51:e8:29:d9:be:7a:
                    5f:1c:9f:53:b8:b4:4d:f2:29:cb:c3:10:ea:1e:9b:
                    28:83:d6:c9:e1:3d:a3:2c:af
                Exponent: 65537 (0x10001)
        X509v3 extensions:
            X509v3 Basic Constraints: 
                CA:FALSE
            Netscape Comment: 
                Easy-RSA Generated Certificate
            X509v3 Subject Key Identifier: 
                5A:24:E1:DC:65:F7:DC:CF:A6:1D:D5:25:CB:46:14:FF:62:65:9B:37
            X509v3 Authority Key Identifier: 
                keyid:F8:AD:6B:CF:05:6A:F5:01:B7:8A:6F:A2:91:D0:F3:C3:E3:2B:62:F3
                DirName:/C=RU/ST=SAMARSKAYA/L=TOGLIATTY/O=NEOTREID-LTD/CN=NEOTREID-LTD CA/emailAddress=muxa@neo63.ru
                serial:A3:2E:2A:A8:AE:52:1B:B7

            X509v3 Extended Key Usage: 
                TLS Web Client Authentication
            X509v3 Key Usage: 
                Digital Signature
    Signature Algorithm: sha1WithRSAEncryption
         09:da:5a:32:f2:ee:61:f1:a4:19:d7:3b:61:af:62:bb:78:b9:
         68:49:c6:de:54:78:92:7c:23:60:72:18:92:70:6b:79:25:17:
         5c:be:9d:96:b8:22:9b:61:a0:fd:47:9d:c9:a2:97:d8:4d:bc:
         ef:c1:a3:bb:b9:b9:70:df:20:28:27:7d:4c:5a:22:bc:2d:28:
         95:5c:5f:28:1e:45:83:e7:66:8e:28:0b:5a:b1:57:04:a3:a2:
         d6:fd:ee:46:82:71:44:42:0f:c3:9a:67:17:6b:b6:1f:8d:4c:
         ff:22:2d:66:05:f1:42:86:ca:7a:f8:fe:2d:c0:16:32:5d:9a:
         f5:f2
-----BEGIN CERTIFICATE-----
MIIDuDCCAyGgAwIBAgIBCjANBgkqhkiG9w0BAQUFADCBhTELMAkGA1UEBhMCUlUx
EzARBgNVBAgTClNBTUFSU0tBWUExEjAQBgNVBAcTCVRPR0xJQVRUWTEVMBMGA1UE
ChMMTkVPVFJFSUQtTFREMRgwFgYDVQQDEw9ORU9UUkVJRC1MVEQgQ0ExHDAaBgkq
hkiG9w0BCQEWDW11eGFAbmVvNjMucnUwHhcNMTUwOTA4MDc0NzA0WhcNMjUwOTA1
MDc0NzA0WjB+MQswCQYDVQQGEwJSVTETMBEGA1UECBMKU0FNQVJTS0FZQTESMBAG
A1UEBxMJVE9HTElBVFRZMRUwEwYDVQQKEwxORU9UUkVJRC1MVEQxETAPBgNVBAMU
CHBfbGl6YWNoMRwwGgYJKoZIhvcNAQkBFg1tdXhhQG5lbzYzLnJ1MIGfMA0GCSqG
SIb3DQEBAQUAA4GNADCBiQKBgQC6Ds2ZeRRBi4B42i7jamh8G/rWloTWyGuGGbtq
awOTPBDkiboZw/+AKoaydwaGSj5AzedlwlzimCNSCgU2dVkCc068UNDYZsUFQttt
8TR9cy9yzWMF7+Dn+PHHTUFEegCdgFHoKdm+el8cn1O4tE3yKcvDEOoemyiD1snh
PaMsrwIDAQABo4IBPDCCATgwCQYDVR0TBAIwADAtBglghkgBhvhCAQ0EIBYeRWFz
eS1SU0EgR2VuZXJhdGVkIENlcnRpZmljYXRlMB0GA1UdDgQWBBRaJOHcZffcz6Yd
1SXLRhT/YmWbNzCBugYDVR0jBIGyMIGvgBT4rWvPBWr1AbeKb6KR0PPD4yti86GB
i6SBiDCBhTELMAkGA1UEBhMCUlUxEzARBgNVBAgTClNBTUFSU0tBWUExEjAQBgNV
BAcTCVRPR0xJQVRUWTEVMBMGA1UEChMMTkVPVFJFSUQtTFREMRgwFgYDVQQDEw9O
RU9UUkVJRC1MVEQgQ0ExHDAaBgkqhkiG9w0BCQEWDW11eGFAbmVvNjMucnWCCQCj
LiqorlIbtzATBgNVHSUEDDAKBggrBgEFBQcDAjALBgNVHQ8EBAMCB4AwDQYJKoZI
hvcNAQEFBQADgYEACdpaMvLuYfGkGdc7Ya9iu3i5aEnG3lR4knwjYHIYknBreSUX
XL6dlrgim2Gg/UedyaKX2E2878Gju7m5cN8gKCd9TFoivC0olVxfKB5Fg+dmjigL
WrFXBKOi1v3uRoJxREIPw5pnF2u2H41M/yItZgXxQobKevj+LcAWMl2a9fI=
-----END CERTIFICATE-----
