Certificate:
    Data:
        Version: 3 (0x2)
        Serial Number: 17 (0x11)
    Signature Algorithm: sha1WithRSAEncryption
        Issuer: C=RU, ST=SAMARSKAYA, L=TOGLIATTY, O=NEOTREID-LTD, CN=NEOTREID-LTD CA/emailAddress=muxa@neo63.ru
        Validity
            Not Before: Dec 11 06:09:37 2015 GMT
            Not After : Dec  8 06:09:37 2025 GMT
        Subject: C=RU, ST=SAMARSKAYA, L=TOGLIATTY, O=NEOTREID-LTD, CN=p9_8/emailAddress=muxa@neo63.ru
        Subject Public Key Info:
            Public Key Algorithm: rsaEncryption
                Public-Key: (1024 bit)
                Modulus:
                    00:a1:d8:d9:80:a0:ba:e7:bc:52:c7:01:7c:c8:84:
                    1a:c2:18:d3:ba:14:d5:26:ae:c0:47:23:6d:da:c3:
                    6d:67:a2:5f:3a:52:e2:11:33:51:51:ec:2c:c5:a6:
                    d3:3d:7a:34:c5:9d:55:af:22:20:2b:38:21:46:28:
                    88:7a:9b:07:3c:9d:e1:0d:d0:5d:d4:6d:df:a1:ed:
                    b9:74:c2:98:d4:f3:ff:ca:a4:c9:16:79:0a:39:e2:
                    ee:ab:ba:c1:ae:e7:4d:29:96:5f:4c:57:41:ca:ee:
                    64:ae:62:f8:26:82:41:3e:86:f8:80:4c:48:10:bc:
                    a8:58:fc:fa:f6:e7:99:5d:39
                Exponent: 65537 (0x10001)
        X509v3 extensions:
            X509v3 Basic Constraints: 
                CA:FALSE
            Netscape Comment: 
                Easy-RSA Generated Certificate
            X509v3 Subject Key Identifier: 
                3E:D5:71:E0:C5:9F:F3:42:AA:2E:FB:A9:42:E5:D4:87:7D:DE:15:45
            X509v3 Authority Key Identifier: 
                keyid:F8:AD:6B:CF:05:6A:F5:01:B7:8A:6F:A2:91:D0:F3:C3:E3:2B:62:F3
                DirName:/C=RU/ST=SAMARSKAYA/L=TOGLIATTY/O=NEOTREID-LTD/CN=NEOTREID-LTD CA/emailAddress=muxa@neo63.ru
                serial:A3:2E:2A:A8:AE:52:1B:B7

            X509v3 Extended Key Usage: 
                TLS Web Client Authentication
            X509v3 Key Usage: 
                Digital Signature
    Signature Algorithm: sha1WithRSAEncryption
         7b:8f:62:5b:16:42:ec:cd:f4:a3:7b:48:e5:f9:d9:95:ab:93:
         51:b8:f2:51:9a:60:46:67:e9:19:2a:8d:e8:9b:75:78:cd:e6:
         bf:d3:2e:23:a2:60:9f:90:d4:c2:a9:2c:57:7e:c9:d6:76:7c:
         b4:f2:8e:9e:06:6f:fb:e5:0b:e2:c1:24:06:dd:32:62:01:94:
         d2:59:29:86:2d:9f:57:f6:ca:e3:0e:e2:39:48:01:dc:ca:84:
         5d:53:c1:f3:c3:2d:88:98:9f:14:02:c0:a1:86:9f:ba:0c:db:
         4a:1e:b3:7c:59:b8:30:5e:a2:82:76:08:de:6a:f0:06:56:01:
         fa:64
-----BEGIN CERTIFICATE-----
MIIDtDCCAx2gAwIBAgIBETANBgkqhkiG9w0BAQUFADCBhTELMAkGA1UEBhMCUlUx
EzARBgNVBAgTClNBTUFSU0tBWUExEjAQBgNVBAcTCVRPR0xJQVRUWTEVMBMGA1UE
ChMMTkVPVFJFSUQtTFREMRgwFgYDVQQDEw9ORU9UUkVJRC1MVEQgQ0ExHDAaBgkq
hkiG9w0BCQEWDW11eGFAbmVvNjMucnUwHhcNMTUxMjExMDYwOTM3WhcNMjUxMjA4
MDYwOTM3WjB6MQswCQYDVQQGEwJSVTETMBEGA1UECBMKU0FNQVJTS0FZQTESMBAG
A1UEBxMJVE9HTElBVFRZMRUwEwYDVQQKEwxORU9UUkVJRC1MVEQxDTALBgNVBAMU
BHA5XzgxHDAaBgkqhkiG9w0BCQEWDW11eGFAbmVvNjMucnUwgZ8wDQYJKoZIhvcN
AQEBBQADgY0AMIGJAoGBAKHY2YCguue8UscBfMiEGsIY07oU1SauwEcjbdrDbWei
XzpS4hEzUVHsLMWm0z16NMWdVa8iICs4IUYoiHqbBzyd4Q3QXdRt36HtuXTCmNTz
/8qkyRZ5Cjni7qu6wa7nTSmWX0xXQcruZK5i+CaCQT6G+IBMSBC8qFj8+vbnmV05
AgMBAAGjggE8MIIBODAJBgNVHRMEAjAAMC0GCWCGSAGG+EIBDQQgFh5FYXN5LVJT
QSBHZW5lcmF0ZWQgQ2VydGlmaWNhdGUwHQYDVR0OBBYEFD7VceDFn/NCqi77qULl
1Id93hVFMIG6BgNVHSMEgbIwga+AFPita88FavUBt4pvopHQ88PjK2LzoYGLpIGI
MIGFMQswCQYDVQQGEwJSVTETMBEGA1UECBMKU0FNQVJTS0FZQTESMBAGA1UEBxMJ
VE9HTElBVFRZMRUwEwYDVQQKEwxORU9UUkVJRC1MVEQxGDAWBgNVBAMTD05FT1RS
RUlELUxURCBDQTEcMBoGCSqGSIb3DQEJARYNbXV4YUBuZW82My5ydYIJAKMuKqiu
Uhu3MBMGA1UdJQQMMAoGCCsGAQUFBwMCMAsGA1UdDwQEAwIHgDANBgkqhkiG9w0B
AQUFAAOBgQB7j2JbFkLszfSje0jl+dmVq5NRuPJRmmBGZ+kZKo3om3V4zea/0y4j
omCfkNTCqSxXfsnWdny08o6eBm/75QviwSQG3TJiAZTSWSmGLZ9X9srjDuI5SAHc
yoRdU8Hzwy2ImJ8UAsChhp+6DNtKHrN8WbgwXqKCdgjeavAGVgH6ZA==
-----END CERTIFICATE-----
