Certificate:
    Data:
        Version: 3 (0x2)
        Serial Number: 29 (0x1d)
    Signature Algorithm: sha1WithRSAEncryption
        Issuer: C=RU, ST=SAMARSKAYA, L=TOGLIATTY, O=NEOTREID-LTD, CN=NEOTREID-LTD CA/emailAddress=muxa@neo63.ru
        Validity
            Not Before: Jul 22 08:02:33 2016 GMT
            Not After : Jul 20 08:02:33 2026 GMT
        Subject: C=RU, ST=SAMARSKAYA, L=TOGLIATTY, O=NEOTREID-LTD, CN=gvilava/emailAddress=muxa@neo63.ru
        Subject Public Key Info:
            Public Key Algorithm: rsaEncryption
                Public-Key: (1024 bit)
                Modulus:
                    00:cd:f4:19:2b:2e:79:64:e0:f7:13:40:b9:70:f2:
                    61:86:0e:47:c2:41:20:e2:0b:46:8c:99:75:eb:2c:
                    d1:99:1f:c6:d8:78:6b:f3:50:05:79:20:05:07:79:
                    25:81:22:12:8e:87:4d:fb:d9:84:4d:4e:78:df:30:
                    f5:db:c9:ca:c0:a3:ab:0f:7c:38:0a:b0:b3:20:19:
                    1d:74:f4:88:12:27:1e:85:af:e8:a8:59:bb:b9:09:
                    70:6f:78:9c:e9:ad:35:ec:63:d2:50:d7:f8:7d:4d:
                    21:f6:45:86:1d:1f:7d:a2:42:5c:59:9b:80:34:08:
                    9d:73:0a:c5:17:e0:84:5d:eb
                Exponent: 65537 (0x10001)
        X509v3 extensions:
            X509v3 Basic Constraints: 
                CA:FALSE
            Netscape Comment: 
                Easy-RSA Generated Certificate
            X509v3 Subject Key Identifier: 
                44:42:C8:77:E9:9F:E0:C4:DD:56:F7:94:E4:98:E9:D3:06:33:EB:62
            X509v3 Authority Key Identifier: 
                keyid:F8:AD:6B:CF:05:6A:F5:01:B7:8A:6F:A2:91:D0:F3:C3:E3:2B:62:F3
                DirName:/C=RU/ST=SAMARSKAYA/L=TOGLIATTY/O=NEOTREID-LTD/CN=NEOTREID-LTD CA/emailAddress=muxa@neo63.ru
                serial:A3:2E:2A:A8:AE:52:1B:B7

            X509v3 Extended Key Usage: 
                TLS Web Client Authentication
            X509v3 Key Usage: 
                Digital Signature
    Signature Algorithm: sha1WithRSAEncryption
         05:f8:56:95:56:74:ec:82:13:79:33:1b:a0:3d:82:ba:57:85:
         17:0e:ba:25:c6:97:55:b2:18:ba:6e:9e:c0:ee:5d:c1:d5:61:
         e1:2b:de:58:bc:5f:88:c1:15:d2:70:1a:9b:b6:10:66:0d:0e:
         e7:a6:84:a4:ee:30:b5:87:2b:5d:b2:a7:dc:9d:ce:f6:5b:cb:
         28:ac:34:0e:9a:15:d5:22:57:a5:c1:6b:ba:46:7d:3f:6d:1f:
         b9:cd:aa:f7:40:98:02:06:ab:6f:b3:4d:66:a4:b4:73:43:f8:
         5e:14:34:f9:bc:90:92:9d:e0:dd:cb:4f:67:25:6f:c0:0b:27:
         11:69
-----BEGIN CERTIFICATE-----
MIIDtzCCAyCgAwIBAgIBHTANBgkqhkiG9w0BAQUFADCBhTELMAkGA1UEBhMCUlUx
EzARBgNVBAgTClNBTUFSU0tBWUExEjAQBgNVBAcTCVRPR0xJQVRUWTEVMBMGA1UE
ChMMTkVPVFJFSUQtTFREMRgwFgYDVQQDEw9ORU9UUkVJRC1MVEQgQ0ExHDAaBgkq
hkiG9w0BCQEWDW11eGFAbmVvNjMucnUwHhcNMTYwNzIyMDgwMjMzWhcNMjYwNzIw
MDgwMjMzWjB9MQswCQYDVQQGEwJSVTETMBEGA1UECBMKU0FNQVJTS0FZQTESMBAG
A1UEBxMJVE9HTElBVFRZMRUwEwYDVQQKEwxORU9UUkVJRC1MVEQxEDAOBgNVBAMT
B2d2aWxhdmExHDAaBgkqhkiG9w0BCQEWDW11eGFAbmVvNjMucnUwgZ8wDQYJKoZI
hvcNAQEBBQADgY0AMIGJAoGBAM30GSsueWTg9xNAuXDyYYYOR8JBIOILRoyZdess
0Zkfxth4a/NQBXkgBQd5JYEiEo6HTfvZhE1OeN8w9dvJysCjqw98OAqwsyAZHXT0
iBInHoWv6KhZu7kJcG94nOmtNexj0lDX+H1NIfZFhh0ffaJCXFmbgDQInXMKxRfg
hF3rAgMBAAGjggE8MIIBODAJBgNVHRMEAjAAMC0GCWCGSAGG+EIBDQQgFh5FYXN5
LVJTQSBHZW5lcmF0ZWQgQ2VydGlmaWNhdGUwHQYDVR0OBBYEFERCyHfpn+DE3Vb3
lOSY6dMGM+tiMIG6BgNVHSMEgbIwga+AFPita88FavUBt4pvopHQ88PjK2LzoYGL
pIGIMIGFMQswCQYDVQQGEwJSVTETMBEGA1UECBMKU0FNQVJTS0FZQTESMBAGA1UE
BxMJVE9HTElBVFRZMRUwEwYDVQQKEwxORU9UUkVJRC1MVEQxGDAWBgNVBAMTD05F
T1RSRUlELUxURCBDQTEcMBoGCSqGSIb3DQEJARYNbXV4YUBuZW82My5ydYIJAKMu
KqiuUhu3MBMGA1UdJQQMMAoGCCsGAQUFBwMCMAsGA1UdDwQEAwIHgDANBgkqhkiG
9w0BAQUFAAOBgQAF+FaVVnTsghN5MxugPYK6V4UXDrolxpdVshi6bp7A7l3B1WHh
K95YvF+IwRXScBqbthBmDQ7npoSk7jC1hytdsqfcnc72W8sorDQOmhXVIlelwWu6
Rn0/bR+5zar3QJgCBqtvs01mpLRzQ/heFDT5vJCSneDdy09nJW/ACycRaQ==
-----END CERTIFICATE-----
