Certificate:
    Data:
        Version: 3 (0x2)
        Serial Number: 32 (0x20)
    Signature Algorithm: sha1WithRSAEncryption
        Issuer: C=RU, ST=SAMARSKAYA, L=TOGLIATTY, O=NEOTREID-LTD, CN=NEOTREID-LTD CA/emailAddress=muxa@neo63.ru
        Validity
            Not Before: Aug  5 07:35:37 2016 GMT
            Not After : Aug  3 07:35:37 2026 GMT
        Subject: C=RU, ST=SAMARSKAYA, L=TOGLIATTY, O=NEOTREID-LTD, CN=p21/emailAddress=muxa@neo63.ru
        Subject Public Key Info:
            Public Key Algorithm: rsaEncryption
                Public-Key: (1024 bit)
                Modulus:
                    00:f1:a2:54:ee:0b:93:e5:6b:b8:66:67:c8:2c:08:
                    9e:2b:5a:6b:b6:38:c7:11:50:98:24:58:dd:cd:a9:
                    22:9d:46:3b:90:7d:f6:6b:aa:46:9b:7a:7b:e1:40:
                    a0:14:e8:0a:90:40:aa:dc:5b:2b:75:ac:c3:a2:12:
                    b7:91:a3:66:6e:3a:bf:58:2c:82:7a:4c:c7:b9:48:
                    39:d8:1f:c3:74:0f:36:31:a8:2b:ae:6e:15:87:91:
                    9b:3b:3a:39:c6:1b:b7:58:72:e2:6f:de:0a:ae:1e:
                    47:e7:ed:21:48:00:9a:59:4b:5f:8d:91:42:9a:11:
                    20:e2:41:f6:2f:13:11:ab:d1
                Exponent: 65537 (0x10001)
        X509v3 extensions:
            X509v3 Basic Constraints: 
                CA:FALSE
            Netscape Comment: 
                Easy-RSA Generated Certificate
            X509v3 Subject Key Identifier: 
                06:01:0B:84:70:46:42:F3:46:BF:E9:58:82:2C:8C:E9:CE:DF:D8:B8
            X509v3 Authority Key Identifier: 
                keyid:F8:AD:6B:CF:05:6A:F5:01:B7:8A:6F:A2:91:D0:F3:C3:E3:2B:62:F3
                DirName:/C=RU/ST=SAMARSKAYA/L=TOGLIATTY/O=NEOTREID-LTD/CN=NEOTREID-LTD CA/emailAddress=muxa@neo63.ru
                serial:A3:2E:2A:A8:AE:52:1B:B7

            X509v3 Extended Key Usage: 
                TLS Web Client Authentication
            X509v3 Key Usage: 
                Digital Signature
    Signature Algorithm: sha1WithRSAEncryption
         5d:05:5c:80:84:00:02:c3:50:32:8d:77:32:0f:ca:0c:0d:05:
         2a:c1:9a:94:cc:22:8b:fd:d8:b7:a1:3e:eb:40:98:b9:61:47:
         10:3c:83:ed:d1:de:c2:2d:da:61:39:23:fc:40:ce:80:2d:46:
         4c:c7:63:10:b8:50:7e:47:fe:7c:3f:cf:6d:c1:c7:3b:4b:cf:
         df:d3:48:b8:ce:d7:e3:17:59:1b:89:a2:aa:d1:82:af:dd:5b:
         c6:42:ee:aa:7b:c7:b9:24:c3:73:57:98:c3:20:a8:b9:2a:d2:
         66:d6:99:db:83:93:85:71:45:69:00:5a:38:89:46:4a:7d:eb:
         46:97
-----BEGIN CERTIFICATE-----
MIIDszCCAxygAwIBAgIBIDANBgkqhkiG9w0BAQUFADCBhTELMAkGA1UEBhMCUlUx
EzARBgNVBAgTClNBTUFSU0tBWUExEjAQBgNVBAcTCVRPR0xJQVRUWTEVMBMGA1UE
ChMMTkVPVFJFSUQtTFREMRgwFgYDVQQDEw9ORU9UUkVJRC1MVEQgQ0ExHDAaBgkq
hkiG9w0BCQEWDW11eGFAbmVvNjMucnUwHhcNMTYwODA1MDczNTM3WhcNMjYwODAz
MDczNTM3WjB5MQswCQYDVQQGEwJSVTETMBEGA1UECBMKU0FNQVJTS0FZQTESMBAG
A1UEBxMJVE9HTElBVFRZMRUwEwYDVQQKEwxORU9UUkVJRC1MVEQxDDAKBgNVBAMT
A3AyMTEcMBoGCSqGSIb3DQEJARYNbXV4YUBuZW82My5ydTCBnzANBgkqhkiG9w0B
AQEFAAOBjQAwgYkCgYEA8aJU7guT5Wu4ZmfILAieK1prtjjHEVCYJFjdzakinUY7
kH32a6pGm3p74UCgFOgKkECq3FsrdazDohK3kaNmbjq/WCyCekzHuUg52B/DdA82
Magrrm4Vh5GbOzo5xhu3WHLib94Krh5H5+0hSACaWUtfjZFCmhEg4kH2LxMRq9EC
AwEAAaOCATwwggE4MAkGA1UdEwQCMAAwLQYJYIZIAYb4QgENBCAWHkVhc3ktUlNB
IEdlbmVyYXRlZCBDZXJ0aWZpY2F0ZTAdBgNVHQ4EFgQUBgELhHBGQvNGv+lYgiyM
6c7f2LgwgboGA1UdIwSBsjCBr4AU+K1rzwVq9QG3im+ikdDzw+MrYvOhgYukgYgw
gYUxCzAJBgNVBAYTAlJVMRMwEQYDVQQIEwpTQU1BUlNLQVlBMRIwEAYDVQQHEwlU
T0dMSUFUVFkxFTATBgNVBAoTDE5FT1RSRUlELUxURDEYMBYGA1UEAxMPTkVPVFJF
SUQtTFREIENBMRwwGgYJKoZIhvcNAQkBFg1tdXhhQG5lbzYzLnJ1ggkAoy4qqK5S
G7cwEwYDVR0lBAwwCgYIKwYBBQUHAwIwCwYDVR0PBAQDAgeAMA0GCSqGSIb3DQEB
BQUAA4GBAF0FXICEAALDUDKNdzIPygwNBSrBmpTMIov92LehPutAmLlhRxA8g+3R
3sIt2mE5I/xAzoAtRkzHYxC4UH5H/nw/z23BxztLz9/TSLjO1+MXWRuJoqrRgq/d
W8ZC7qp7x7kkw3NXmMMgqLkq0mbWmduDk4VxRWkAWjiJRkp960aX
-----END CERTIFICATE-----
