Certificate:
    Data:
        Version: 3 (0x2)
        Serial Number: 20 (0x14)
    Signature Algorithm: sha1WithRSAEncryption
        Issuer: C=RU, ST=SAMARSKAYA, L=TOGLIATTY, O=NEOTREID-LTD, CN=NEOTREID-LTD CA/emailAddress=muxa@neo63.ru
        Validity
            Not Before: May 12 13:31:17 2016 GMT
            Not After : May 10 13:31:17 2026 GMT
        Subject: C=RU, ST=SAMARSKAYA, L=TOGLIATTY, O=NEOTREID-LTD, CN=z_g1/emailAddress=muxa@neo63.ru
        Subject Public Key Info:
            Public Key Algorithm: rsaEncryption
                Public-Key: (1024 bit)
                Modulus:
                    00:94:d4:3a:7f:a2:e4:4c:c9:02:90:c6:31:96:ff:
                    0d:de:b5:46:86:ed:1f:a9:74:91:d9:41:ad:43:d6:
                    36:b7:0d:31:0a:e2:d0:7d:d6:50:09:1f:e2:90:37:
                    27:ef:69:22:fd:a8:51:a7:d3:d9:20:32:98:c0:8c:
                    8e:35:f9:89:05:86:9d:f1:ff:eb:01:04:f6:d5:4e:
                    99:7e:10:fe:3a:85:f1:11:a7:e7:4b:63:18:3a:d6:
                    4e:58:32:18:e8:b0:5d:0c:85:eb:ac:9c:40:3a:63:
                    1a:36:12:b6:85:d2:d2:eb:93:7d:d7:2e:a9:b8:7f:
                    04:df:45:be:b6:e3:37:e2:45
                Exponent: 65537 (0x10001)
        X509v3 extensions:
            X509v3 Basic Constraints: 
                CA:FALSE
            Netscape Comment: 
                Easy-RSA Generated Certificate
            X509v3 Subject Key Identifier: 
                C4:CB:FC:4E:9A:DF:70:F4:AE:FB:EF:58:F3:44:4B:10:45:8E:C2:96
            X509v3 Authority Key Identifier: 
                keyid:F8:AD:6B:CF:05:6A:F5:01:B7:8A:6F:A2:91:D0:F3:C3:E3:2B:62:F3
                DirName:/C=RU/ST=SAMARSKAYA/L=TOGLIATTY/O=NEOTREID-LTD/CN=NEOTREID-LTD CA/emailAddress=muxa@neo63.ru
                serial:A3:2E:2A:A8:AE:52:1B:B7

            X509v3 Extended Key Usage: 
                TLS Web Client Authentication
            X509v3 Key Usage: 
                Digital Signature
    Signature Algorithm: sha1WithRSAEncryption
         7d:ec:fe:70:54:9b:1b:c3:5b:d4:9e:99:e4:ab:fc:c3:1b:69:
         95:d3:b9:00:8d:04:1f:0e:3f:8e:02:01:0c:08:09:f3:a6:4c:
         8c:43:4d:87:f2:f4:9f:07:c5:d9:65:e8:b8:0e:df:9d:80:fb:
         ee:8f:6e:8f:92:02:80:a1:01:67:69:2b:05:af:cc:05:9e:08:
         31:92:8b:ab:21:fe:84:be:db:94:31:fc:cf:fb:83:36:b9:35:
         dd:9a:c0:83:ed:48:f7:08:99:0f:05:16:fd:c6:fb:bd:a6:ef:
         45:74:c5:d7:7a:4b:1c:41:58:da:ae:22:15:73:16:14:76:13:
         f7:bb
-----BEGIN CERTIFICATE-----
MIIDtDCCAx2gAwIBAgIBFDANBgkqhkiG9w0BAQUFADCBhTELMAkGA1UEBhMCUlUx
EzARBgNVBAgTClNBTUFSU0tBWUExEjAQBgNVBAcTCVRPR0xJQVRUWTEVMBMGA1UE
ChMMTkVPVFJFSUQtTFREMRgwFgYDVQQDEw9ORU9UUkVJRC1MVEQgQ0ExHDAaBgkq
hkiG9w0BCQEWDW11eGFAbmVvNjMucnUwHhcNMTYwNTEyMTMzMTE3WhcNMjYwNTEw
MTMzMTE3WjB6MQswCQYDVQQGEwJSVTETMBEGA1UECBMKU0FNQVJTS0FZQTESMBAG
A1UEBxMJVE9HTElBVFRZMRUwEwYDVQQKEwxORU9UUkVJRC1MVEQxDTALBgNVBAMU
BHpfZzExHDAaBgkqhkiG9w0BCQEWDW11eGFAbmVvNjMucnUwgZ8wDQYJKoZIhvcN
AQEBBQADgY0AMIGJAoGBAJTUOn+i5EzJApDGMZb/Dd61RobtH6l0kdlBrUPWNrcN
MQri0H3WUAkf4pA3J+9pIv2oUafT2SAymMCMjjX5iQWGnfH/6wEE9tVOmX4Q/jqF
8RGn50tjGDrWTlgyGOiwXQyF66ycQDpjGjYStoXS0uuTfdcuqbh/BN9FvrbjN+JF
AgMBAAGjggE8MIIBODAJBgNVHRMEAjAAMC0GCWCGSAGG+EIBDQQgFh5FYXN5LVJT
QSBHZW5lcmF0ZWQgQ2VydGlmaWNhdGUwHQYDVR0OBBYEFMTL/E6a33D0rvvvWPNE
SxBFjsKWMIG6BgNVHSMEgbIwga+AFPita88FavUBt4pvopHQ88PjK2LzoYGLpIGI
MIGFMQswCQYDVQQGEwJSVTETMBEGA1UECBMKU0FNQVJTS0FZQTESMBAGA1UEBxMJ
VE9HTElBVFRZMRUwEwYDVQQKEwxORU9UUkVJRC1MVEQxGDAWBgNVBAMTD05FT1RS
RUlELUxURCBDQTEcMBoGCSqGSIb3DQEJARYNbXV4YUBuZW82My5ydYIJAKMuKqiu
Uhu3MBMGA1UdJQQMMAoGCCsGAQUFBwMCMAsGA1UdDwQEAwIHgDANBgkqhkiG9w0B
AQUFAAOBgQB97P5wVJsbw1vUnpnkq/zDG2mV07kAjQQfDj+OAgEMCAnzpkyMQ02H
8vSfB8XZZei4Dt+dgPvuj26PkgKAoQFnaSsFr8wFnggxkourIf6EvtuUMfzP+4M2
uTXdmsCD7Uj3CJkPBRb9xvu9pu9FdMXXekscQVjariIVcxYUdhP3uw==
-----END CERTIFICATE-----
