Certificate:
    Data:
        Version: 3 (0x2)
        Serial Number: 2 (0x2)
        Signature Algorithm: sha1WithRSAEncryption
        Issuer: C=RU, ST=SAMARSKAYA, L=SAMARA, O=NEOTRAID, CN=NEOTRAID CA/emailAddress=admin@neo63.ru
        Validity
            Not Before: Jan 21 12:23:03 2013 GMT
            Not After : Jan 19 12:23:03 2023 GMT
        Subject: C=RU, ST=SAMARSKAYA, L=SAMARA, O=NEOTRAID, CN=smr_st_zagora_1/emailAddress=admin@neo63.ru
        Subject Public Key Info:
            Public Key Algorithm: rsaEncryption
            RSA Public Key: (1024 bit)
                Modulus (1024 bit):
                    00:bd:56:4c:a2:ef:76:51:9c:31:51:68:21:44:de:
                    50:2c:7e:ab:a7:de:c0:7e:43:70:43:97:e6:0f:28:
                    83:1f:47:b8:af:a6:2d:64:7b:ef:fe:88:93:8c:71:
                    d5:4c:44:2c:a2:89:42:12:c1:96:55:69:1c:6d:a9:
                    a8:97:89:b6:01:76:42:15:96:0b:32:5c:ee:ad:38:
                    0f:90:90:8f:5c:58:e0:28:90:a9:22:05:be:a1:c0:
                    68:e7:72:6a:28:ac:e2:05:24:80:0c:c7:f2:15:70:
                    18:5b:b7:50:52:4a:b9:a2:4b:e6:55:aa:8b:94:c7:
                    15:48:32:df:36:c6:26:8c:db
                Exponent: 65537 (0x10001)
        X509v3 extensions:
            X509v3 Basic Constraints: 
                CA:FALSE
            Netscape Comment: 
                Easy-RSA Generated Certificate
            X509v3 Subject Key Identifier: 
                B9:A1:95:0C:B5:12:26:8F:A3:A5:B8:34:D0:D8:24:CE:DA:E9:5C:21
            X509v3 Authority Key Identifier: 
                keyid:D7:B0:0C:9A:20:7E:D0:9B:C9:28:03:A1:04:13:C7:AA:C8:A8:AF:CE
                DirName:/C=RU/ST=SAMARSKAYA/L=SAMARA/O=NEOTRAID/CN=NEOTRAID CA/emailAddress=admin@neo63.ru
                serial:B9:41:23:02:DB:46:2A:24

            X509v3 Extended Key Usage: 
                TLS Web Client Authentication
            X509v3 Key Usage: 
                Digital Signature
    Signature Algorithm: sha1WithRSAEncryption
        4e:fa:4f:b3:2d:15:f1:33:c3:f1:a7:65:a7:88:7e:f8:62:68:
        2f:83:64:8e:a8:ad:34:8f:de:ca:31:72:36:53:b5:15:58:b3:
        22:a3:10:4a:00:77:19:d5:ab:8b:5b:a3:e1:a3:26:57:02:ba:
        a3:b1:41:b5:f0:20:e4:7f:2f:c0:77:f5:35:b0:60:0a:c6:8c:
        de:34:7c:96:c7:37:83:cd:cc:30:ab:23:3b:16:7c:35:c9:66:
        07:5a:a2:fe:72:10:b5:32:15:9c:b1:3e:fb:1e:87:b4:6b:dc:
        d0:37:79:c5:15:67:7c:ab:1b:32:0a:96:bc:21:f0:60:c2:0c:
        93:80
-----BEGIN CERTIFICATE-----
MIIDoTCCAwqgAwIBAgIBAjANBgkqhkiG9w0BAQUFADB7MQswCQYDVQQGEwJSVTET
MBEGA1UECBMKU0FNQVJTS0FZQTEPMA0GA1UEBxMGU0FNQVJBMREwDwYDVQQKEwhO
RU9UUkFJRDEUMBIGA1UEAxMLTkVPVFJBSUQgQ0ExHTAbBgkqhkiG9w0BCQEWDmFk
bWluQG5lbzYzLnJ1MB4XDTEzMDEyMTEyMjMwM1oXDTIzMDExOTEyMjMwM1owfzEL
MAkGA1UEBhMCUlUxEzARBgNVBAgTClNBTUFSU0tBWUExDzANBgNVBAcTBlNBTUFS
QTERMA8GA1UEChMITkVPVFJBSUQxGDAWBgNVBAMUD3Ntcl9zdF96YWdvcmFfMTEd
MBsGCSqGSIb3DQEJARYOYWRtaW5AbmVvNjMucnUwgZ8wDQYJKoZIhvcNAQEBBQAD
gY0AMIGJAoGBAL1WTKLvdlGcMVFoIUTeUCx+q6fewH5DcEOX5g8ogx9HuK+mLWR7
7/6Ik4xx1UxELKKJQhLBllVpHG2pqJeJtgF2QhWWCzJc7q04D5CQj1xY4CiQqSIF
vqHAaOdyaiis4gUkgAzH8hVwGFu3UFJKuaJL5lWqi5THFUgy3zbGJozbAgMBAAGj
ggEvMIIBKzAJBgNVHRMEAjAAMC0GCWCGSAGG+EIBDQQgFh5FYXN5LVJTQSBHZW5l
cmF0ZWQgQ2VydGlmaWNhdGUwHQYDVR0OBBYEFLmhlQy1EiaPo6W4NNDYJM7a6Vwh
MIGtBgNVHSMEgaUwgaKAFNewDJogftCbySgDoQQTx6rIqK/OoX+kfTB7MQswCQYD
VQQGEwJSVTETMBEGA1UECBMKU0FNQVJTS0FZQTEPMA0GA1UEBxMGU0FNQVJBMREw
DwYDVQQKEwhORU9UUkFJRDEUMBIGA1UEAxMLTkVPVFJBSUQgQ0ExHTAbBgkqhkiG
9w0BCQEWDmFkbWluQG5lbzYzLnJ1ggkAuUEjAttGKiQwEwYDVR0lBAwwCgYIKwYB
BQUHAwIwCwYDVR0PBAQDAgeAMA0GCSqGSIb3DQEBBQUAA4GBAE76T7MtFfEzw/Gn
ZaeIfvhiaC+DZI6orTSP3soxcjZTtRVYsyKjEEoAdxnVq4tbo+GjJlcCuqOxQbXw
IOR/L8B39TWwYArGjN40fJbHN4PNzDCrIzsWfDXJZgdaov5yELUyFZyxPvseh7Rr
3NA3ecUVZ3yrGzIKlrwh8GDCDJOA
-----END CERTIFICATE-----
