Certificate:
    Data:
        Version: 3 (0x2)
        Serial Number: 4 (0x4)
        Signature Algorithm: sha1WithRSAEncryption
        Issuer: C=RU, ST=SAMARSKAYA, L=SAMARA, O=NEOTRAID, CN=NEOTRAID CA/emailAddress=admin@neo63.ru
        Validity
            Not Before: Feb 25 06:54:51 2013 GMT
            Not After : Feb 23 06:54:51 2023 GMT
        Subject: C=RU, ST=SAMARSKAYA, L=SAMARA, O=NEOTRAID, CN=smr_kirova/emailAddress=admin@neo63.ru
        Subject Public Key Info:
            Public Key Algorithm: rsaEncryption
            RSA Public Key: (1024 bit)
                Modulus (1024 bit):
                    00:bd:b8:16:ec:31:f1:d5:1c:35:d7:af:33:8a:d2:
                    a0:6e:b2:38:aa:ab:0e:3e:dc:af:44:1b:46:1a:ed:
                    e9:5b:82:26:4f:66:2c:4c:60:b8:c1:47:e9:6d:8d:
                    61:22:80:ca:88:10:96:8d:1c:50:6a:59:42:04:da:
                    34:d7:bd:ab:ba:41:e9:cf:11:40:36:5d:a2:5e:5b:
                    46:96:7e:fd:1c:af:21:3f:3f:b6:b3:d0:ca:0e:d4:
                    bd:c9:96:75:98:6c:ae:c1:92:cb:c8:18:9a:a5:5b:
                    1a:10:af:4f:7e:21:43:74:a9:cd:b6:6a:f3:ab:8f:
                    ff:31:14:39:af:2c:9e:f4:83
                Exponent: 65537 (0x10001)
        X509v3 extensions:
            X509v3 Basic Constraints: 
                CA:FALSE
            Netscape Comment: 
                Easy-RSA Generated Certificate
            X509v3 Subject Key Identifier: 
                04:FE:91:60:02:ED:3B:A7:10:5A:4D:4F:11:B9:AF:47:FA:6C:DF:48
            X509v3 Authority Key Identifier: 
                keyid:D7:B0:0C:9A:20:7E:D0:9B:C9:28:03:A1:04:13:C7:AA:C8:A8:AF:CE
                DirName:/C=RU/ST=SAMARSKAYA/L=SAMARA/O=NEOTRAID/CN=NEOTRAID CA/emailAddress=admin@neo63.ru
                serial:B9:41:23:02:DB:46:2A:24

            X509v3 Extended Key Usage: 
                TLS Web Client Authentication
            X509v3 Key Usage: 
                Digital Signature
    Signature Algorithm: sha1WithRSAEncryption
        59:02:5f:8b:d8:56:9e:03:cd:0c:26:a1:96:18:53:76:87:8b:
        2c:10:a5:0c:64:4d:d1:50:d9:1e:e4:bd:51:ed:07:be:41:f5:
        5a:eb:69:94:35:d7:0c:56:aa:e2:20:6b:77:32:9e:18:87:25:
        2d:21:37:09:83:3f:3b:54:0c:ae:38:98:3a:18:be:37:68:04:
        de:6b:5d:e9:c8:e5:f9:2a:ca:e5:95:5a:49:fb:81:a6:d5:4d:
        53:d7:5d:fa:32:d4:45:32:43:a3:04:77:2c:be:d4:27:31:63:
        c8:d1:e8:9f:8f:68:d8:0b:0f:4f:c6:63:4e:d4:dd:58:6c:e2:
        11:a2
-----BEGIN CERTIFICATE-----
MIIDnDCCAwWgAwIBAgIBBDANBgkqhkiG9w0BAQUFADB7MQswCQYDVQQGEwJSVTET
MBEGA1UECBMKU0FNQVJTS0FZQTEPMA0GA1UEBxMGU0FNQVJBMREwDwYDVQQKEwhO
RU9UUkFJRDEUMBIGA1UEAxMLTkVPVFJBSUQgQ0ExHTAbBgkqhkiG9w0BCQEWDmFk
bWluQG5lbzYzLnJ1MB4XDTEzMDIyNTA2NTQ1MVoXDTIzMDIyMzA2NTQ1MVowejEL
MAkGA1UEBhMCUlUxEzARBgNVBAgTClNBTUFSU0tBWUExDzANBgNVBAcTBlNBTUFS
QTERMA8GA1UEChMITkVPVFJBSUQxEzARBgNVBAMUCnNtcl9raXJvdmExHTAbBgkq
hkiG9w0BCQEWDmFkbWluQG5lbzYzLnJ1MIGfMA0GCSqGSIb3DQEBAQUAA4GNADCB
iQKBgQC9uBbsMfHVHDXXrzOK0qBusjiqqw4+3K9EG0Ya7elbgiZPZixMYLjBR+lt
jWEigMqIEJaNHFBqWUIE2jTXvau6QenPEUA2XaJeW0aWfv0cryE/P7az0MoO1L3J
lnWYbK7BksvIGJqlWxoQr09+IUN0qc22avOrj/8xFDmvLJ70gwIDAQABo4IBLzCC
ASswCQYDVR0TBAIwADAtBglghkgBhvhCAQ0EIBYeRWFzeS1SU0EgR2VuZXJhdGVk
IENlcnRpZmljYXRlMB0GA1UdDgQWBBQE/pFgAu07pxBaTU8Rua9H+mzfSDCBrQYD
VR0jBIGlMIGigBTXsAyaIH7Qm8koA6EEE8eqyKivzqF/pH0wezELMAkGA1UEBhMC
UlUxEzARBgNVBAgTClNBTUFSU0tBWUExDzANBgNVBAcTBlNBTUFSQTERMA8GA1UE
ChMITkVPVFJBSUQxFDASBgNVBAMTC05FT1RSQUlEIENBMR0wGwYJKoZIhvcNAQkB
Fg5hZG1pbkBuZW82My5ydYIJALlBIwLbRiokMBMGA1UdJQQMMAoGCCsGAQUFBwMC
MAsGA1UdDwQEAwIHgDANBgkqhkiG9w0BAQUFAAOBgQBZAl+L2FaeA80MJqGWGFN2
h4ssEKUMZE3RUNke5L1R7Qe+QfVa62mUNdcMVqriIGt3Mp4YhyUtITcJgz87VAyu
OJg6GL43aATea13pyOX5KsrllVpJ+4Gm1U1T1136MtRFMkOjBHcsvtQnMWPI0eif
j2jYCw9PxmNO1N1YbOIRog==
-----END CERTIFICATE-----
