Certificate:
    Data:
        Version: 3 (0x2)
        Serial Number: 5 (0x5)
        Signature Algorithm: sha1WithRSAEncryption
        Issuer: C=RU, ST=SAMARSKAYA, L=SAMARA, O=NEOTRAID, CN=NEOTRAID CA/emailAddress=admin@neo63.ru
        Validity
            Not Before: Mar 11 12:30:00 2013 GMT
            Not After : Mar  9 12:30:00 2023 GMT
        Subject: C=RU, ST=SAMARSKAYA, L=SAMARA, O=NEOTRAID, CN=smr_aero1/emailAddress=admin@neo63.ru
        Subject Public Key Info:
            Public Key Algorithm: rsaEncryption
            RSA Public Key: (1024 bit)
                Modulus (1024 bit):
                    00:a7:81:ee:83:77:06:82:44:0b:c3:87:d0:ae:7d:
                    71:1e:50:5b:2b:3e:9f:85:d3:ea:08:fd:b1:8b:ed:
                    a3:c1:da:e2:f8:7d:54:e3:07:2e:e8:28:64:46:70:
                    2f:9a:8a:ff:74:aa:60:ed:a3:63:b5:8e:71:9c:d6:
                    6b:2f:49:f2:dc:d4:23:10:70:98:9e:87:f8:3d:6f:
                    c1:10:b3:55:73:37:3e:bf:e8:a5:ec:df:24:d6:b2:
                    d9:ea:27:44:b1:40:ea:36:e0:a8:68:42:7e:8e:79:
                    8c:ac:e3:c2:7c:b1:8f:5e:77:03:be:44:9f:62:18:
                    20:09:c0:90:e3:61:fe:6c:75
                Exponent: 65537 (0x10001)
        X509v3 extensions:
            X509v3 Basic Constraints: 
                CA:FALSE
            Netscape Comment: 
                Easy-RSA Generated Certificate
            X509v3 Subject Key Identifier: 
                74:29:CC:E2:C2:5F:F5:FC:3E:68:AE:70:F3:07:EC:EC:E4:28:C8:6B
            X509v3 Authority Key Identifier: 
                keyid:D7:B0:0C:9A:20:7E:D0:9B:C9:28:03:A1:04:13:C7:AA:C8:A8:AF:CE
                DirName:/C=RU/ST=SAMARSKAYA/L=SAMARA/O=NEOTRAID/CN=NEOTRAID CA/emailAddress=admin@neo63.ru
                serial:B9:41:23:02:DB:46:2A:24

            X509v3 Extended Key Usage: 
                TLS Web Client Authentication
            X509v3 Key Usage: 
                Digital Signature
    Signature Algorithm: sha1WithRSAEncryption
        28:2d:c1:a5:06:4c:43:b7:12:4c:bc:7d:a6:49:c1:61:4f:65:
        bb:c1:b6:58:c6:d7:0d:e7:9f:d7:4b:69:12:c6:bb:df:12:86:
        bd:26:e0:c2:b4:d8:87:5d:f3:58:d6:2f:eb:ad:6e:c7:f7:00:
        75:4e:e6:4e:c0:5c:20:7c:e7:1f:7d:d2:0c:93:08:78:d0:0f:
        41:e5:ea:b7:38:a1:c0:03:f7:0c:38:09:76:06:8f:46:27:ae:
        c1:5b:51:3f:7c:62:4a:3f:b9:5e:db:81:f4:fa:c4:3c:60:f9:
        3e:49:35:2b:90:d7:0f:9d:14:fc:fa:c6:de:0c:a5:c6:df:19:
        d4:fb
-----BEGIN CERTIFICATE-----
MIIDmzCCAwSgAwIBAgIBBTANBgkqhkiG9w0BAQUFADB7MQswCQYDVQQGEwJSVTET
MBEGA1UECBMKU0FNQVJTS0FZQTEPMA0GA1UEBxMGU0FNQVJBMREwDwYDVQQKEwhO
RU9UUkFJRDEUMBIGA1UEAxMLTkVPVFJBSUQgQ0ExHTAbBgkqhkiG9w0BCQEWDmFk
bWluQG5lbzYzLnJ1MB4XDTEzMDMxMTEyMzAwMFoXDTIzMDMwOTEyMzAwMFoweTEL
MAkGA1UEBhMCUlUxEzARBgNVBAgTClNBTUFSU0tBWUExDzANBgNVBAcTBlNBTUFS
QTERMA8GA1UEChMITkVPVFJBSUQxEjAQBgNVBAMUCXNtcl9hZXJvMTEdMBsGCSqG
SIb3DQEJARYOYWRtaW5AbmVvNjMucnUwgZ8wDQYJKoZIhvcNAQEBBQADgY0AMIGJ
AoGBAKeB7oN3BoJEC8OH0K59cR5QWys+n4XT6gj9sYvto8Ha4vh9VOMHLugoZEZw
L5qK/3SqYO2jY7WOcZzWay9J8tzUIxBwmJ6H+D1vwRCzVXM3Pr/opezfJNay2eon
RLFA6jbgqGhCfo55jKzjwnyxj153A75En2IYIAnAkONh/mx1AgMBAAGjggEvMIIB
KzAJBgNVHRMEAjAAMC0GCWCGSAGG+EIBDQQgFh5FYXN5LVJTQSBHZW5lcmF0ZWQg
Q2VydGlmaWNhdGUwHQYDVR0OBBYEFHQpzOLCX/X8PmiucPMH7OzkKMhrMIGtBgNV
HSMEgaUwgaKAFNewDJogftCbySgDoQQTx6rIqK/OoX+kfTB7MQswCQYDVQQGEwJS
VTETMBEGA1UECBMKU0FNQVJTS0FZQTEPMA0GA1UEBxMGU0FNQVJBMREwDwYDVQQK
EwhORU9UUkFJRDEUMBIGA1UEAxMLTkVPVFJBSUQgQ0ExHTAbBgkqhkiG9w0BCQEW
DmFkbWluQG5lbzYzLnJ1ggkAuUEjAttGKiQwEwYDVR0lBAwwCgYIKwYBBQUHAwIw
CwYDVR0PBAQDAgeAMA0GCSqGSIb3DQEBBQUAA4GBACgtwaUGTEO3Eky8faZJwWFP
ZbvBtljG1w3nn9dLaRLGu98Shr0m4MK02Idd81jWL+utbsf3AHVO5k7AXCB85x99
0gyTCHjQD0Hl6rc4ocAD9ww4CXYGj0YnrsFbUT98Yko/uV7bgfT6xDxg+T5JNSuQ
1w+dFPz6xt4MpcbfGdT7
-----END CERTIFICATE-----
