Certificate:
    Data:
        Version: 3 (0x2)
        Serial Number: 10 (0xa)
        Signature Algorithm: sha1WithRSAEncryption
        Issuer: C=RU, ST=SAMARSKAYA, L=SAMARA, O=NEOTRAID, CN=NEOTRAID CA/emailAddress=admin@neo63.ru
        Validity
            Not Before: Jan 29 05:55:40 2014 GMT
            Not After : Jan 27 05:55:40 2024 GMT
        Subject: C=RU, ST=SAMARSKAYA, L=SAMARA, O=NEOTRAID, CN=smr_voron/emailAddress=admin@neo63.ru
        Subject Public Key Info:
            Public Key Algorithm: rsaEncryption
            RSA Public Key: (1024 bit)
                Modulus (1024 bit):
                    00:ba:c0:f7:b3:0b:60:a9:34:84:b3:59:85:20:43:
                    3f:13:aa:16:bc:a5:c8:a3:77:94:21:5f:2f:36:e7:
                    c4:20:6c:50:80:ea:15:69:2c:ee:ba:80:c9:fd:c7:
                    7e:3d:75:f4:68:2c:c7:2f:86:49:29:5b:55:6d:8f:
                    18:a1:e4:11:85:b5:2b:d2:e8:63:75:dd:22:44:06:
                    b0:61:81:7e:c3:f8:71:8c:57:25:55:19:5d:43:15:
                    bd:8c:8a:52:d3:59:97:93:f9:db:20:17:59:a8:bf:
                    b5:f6:a4:4e:ea:66:78:29:a1:d8:3f:99:fd:0e:e3:
                    f7:1d:d2:16:d4:b8:1d:03:31
                Exponent: 65537 (0x10001)
        X509v3 extensions:
            X509v3 Basic Constraints: 
                CA:FALSE
            Netscape Comment: 
                Easy-RSA Generated Certificate
            X509v3 Subject Key Identifier: 
                8B:2A:02:0C:E1:35:F7:BE:ED:C9:36:0E:CB:6C:0F:51:42:4D:2E:1F
            X509v3 Authority Key Identifier: 
                keyid:D7:B0:0C:9A:20:7E:D0:9B:C9:28:03:A1:04:13:C7:AA:C8:A8:AF:CE
                DirName:/C=RU/ST=SAMARSKAYA/L=SAMARA/O=NEOTRAID/CN=NEOTRAID CA/emailAddress=admin@neo63.ru
                serial:B9:41:23:02:DB:46:2A:24

            X509v3 Extended Key Usage: 
                TLS Web Client Authentication
            X509v3 Key Usage: 
                Digital Signature
    Signature Algorithm: sha1WithRSAEncryption
        11:1e:65:33:eb:a2:5c:43:6f:27:4e:11:b8:96:ba:b9:4c:f5:
        3e:27:13:cd:21:24:0c:48:9b:70:0e:d3:d0:61:f8:dd:bb:47:
        79:eb:6d:9b:a9:15:88:1e:be:32:27:12:66:0b:2c:39:8c:13:
        26:0a:72:4b:45:f5:f6:66:45:a2:36:83:3c:38:2c:a4:74:2c:
        05:5f:6f:48:2c:bd:c3:d4:33:ee:be:76:1a:07:c0:e6:ca:86:
        2a:ad:cc:02:99:36:31:e6:1d:58:9c:ba:81:2a:4d:09:07:c3:
        47:32:78:80:33:9f:0d:08:bc:ca:98:3b:cd:d9:9b:f3:c3:12:
        3a:97
-----BEGIN CERTIFICATE-----
MIIDmzCCAwSgAwIBAgIBCjANBgkqhkiG9w0BAQUFADB7MQswCQYDVQQGEwJSVTET
MBEGA1UECBMKU0FNQVJTS0FZQTEPMA0GA1UEBxMGU0FNQVJBMREwDwYDVQQKEwhO
RU9UUkFJRDEUMBIGA1UEAxMLTkVPVFJBSUQgQ0ExHTAbBgkqhkiG9w0BCQEWDmFk
bWluQG5lbzYzLnJ1MB4XDTE0MDEyOTA1NTU0MFoXDTI0MDEyNzA1NTU0MFoweTEL
MAkGA1UEBhMCUlUxEzARBgNVBAgTClNBTUFSU0tBWUExDzANBgNVBAcTBlNBTUFS
QTERMA8GA1UEChMITkVPVFJBSUQxEjAQBgNVBAMUCXNtcl92b3JvbjEdMBsGCSqG
SIb3DQEJARYOYWRtaW5AbmVvNjMucnUwgZ8wDQYJKoZIhvcNAQEBBQADgY0AMIGJ
AoGBALrA97MLYKk0hLNZhSBDPxOqFrylyKN3lCFfLzbnxCBsUIDqFWks7rqAyf3H
fj119Ggsxy+GSSlbVW2PGKHkEYW1K9LoY3XdIkQGsGGBfsP4cYxXJVUZXUMVvYyK
UtNZl5P52yAXWai/tfakTupmeCmh2D+Z/Q7j9x3SFtS4HQMxAgMBAAGjggEvMIIB
KzAJBgNVHRMEAjAAMC0GCWCGSAGG+EIBDQQgFh5FYXN5LVJTQSBHZW5lcmF0ZWQg
Q2VydGlmaWNhdGUwHQYDVR0OBBYEFIsqAgzhNfe+7ck2DstsD1FCTS4fMIGtBgNV
HSMEgaUwgaKAFNewDJogftCbySgDoQQTx6rIqK/OoX+kfTB7MQswCQYDVQQGEwJS
VTETMBEGA1UECBMKU0FNQVJTS0FZQTEPMA0GA1UEBxMGU0FNQVJBMREwDwYDVQQK
EwhORU9UUkFJRDEUMBIGA1UEAxMLTkVPVFJBSUQgQ0ExHTAbBgkqhkiG9w0BCQEW
DmFkbWluQG5lbzYzLnJ1ggkAuUEjAttGKiQwEwYDVR0lBAwwCgYIKwYBBQUHAwIw
CwYDVR0PBAQDAgeAMA0GCSqGSIb3DQEBBQUAA4GBABEeZTProlxDbydOEbiWurlM
9T4nE80hJAxIm3AO09Bh+N27R3nrbZupFYgevjInEmYLLDmMEyYKcktF9fZmRaI2
gzw4LKR0LAVfb0gsvcPUM+6+dhoHwObKhiqtzAKZNjHmHVicuoEqTQkHw0cyeIAz
nw0IvMqYO83Zm/PDEjqX
-----END CERTIFICATE-----
