Certificate:
    Data:
        Version: 3 (0x2)
        Serial Number: 11 (0xb)
        Signature Algorithm: sha1WithRSAEncryption
        Issuer: C=RU, ST=SAMARSKAYA, L=SAMARA, O=NEOTRAID, CN=NEOTRAID CA/emailAddress=admin@neo63.ru
        Validity
            Not Before: Jan 29 06:48:00 2014 GMT
            Not After : Jan 27 06:48:00 2024 GMT
        Subject: C=RU, ST=SAMARSKAYA, L=SAMARA, O=NEOTRAID, CN=smr_mitireva/emailAddress=admin@neo63.ru
        Subject Public Key Info:
            Public Key Algorithm: rsaEncryption
            RSA Public Key: (1024 bit)
                Modulus (1024 bit):
                    00:bf:e8:eb:6a:77:63:6e:85:dd:59:72:72:0c:a8:
                    c3:e4:f1:d6:c2:66:45:5b:43:9e:5a:31:14:64:ba:
                    91:1f:57:74:c2:f7:a4:67:53:2c:a9:f3:55:54:53:
                    41:7f:cb:87:73:90:89:5f:a6:41:e2:37:b5:fa:7f:
                    0a:0e:1a:62:b3:3e:bb:33:7c:22:70:c3:e6:4f:16:
                    b7:18:3a:9f:70:ff:82:10:cd:b2:c0:20:22:42:0f:
                    ba:10:09:a6:03:c6:47:17:29:51:ae:6a:fb:ec:22:
                    22:51:fd:25:30:34:a0:52:28:ef:df:66:39:01:c3:
                    98:1c:f7:a3:e8:2f:c2:e6:51
                Exponent: 65537 (0x10001)
        X509v3 extensions:
            X509v3 Basic Constraints: 
                CA:FALSE
            Netscape Comment: 
                Easy-RSA Generated Certificate
            X509v3 Subject Key Identifier: 
                F6:76:7D:70:32:5D:63:98:B5:2F:A8:51:58:E9:43:EA:4E:81:19:62
            X509v3 Authority Key Identifier: 
                keyid:D7:B0:0C:9A:20:7E:D0:9B:C9:28:03:A1:04:13:C7:AA:C8:A8:AF:CE
                DirName:/C=RU/ST=SAMARSKAYA/L=SAMARA/O=NEOTRAID/CN=NEOTRAID CA/emailAddress=admin@neo63.ru
                serial:B9:41:23:02:DB:46:2A:24

            X509v3 Extended Key Usage: 
                TLS Web Client Authentication
            X509v3 Key Usage: 
                Digital Signature
    Signature Algorithm: sha1WithRSAEncryption
        78:4a:fe:55:d3:d4:39:9d:12:70:5c:bd:35:a3:30:63:62:cd:
        8b:77:1f:1b:af:5d:62:ed:19:9b:5a:32:a2:8a:56:5b:84:fb:
        be:4b:6c:a1:f9:98:c5:35:37:95:8f:e1:52:4a:9e:a4:54:77:
        f5:c5:c8:3e:ca:e5:40:12:03:4e:3d:5b:f0:d9:9e:6b:f5:a9:
        10:65:5c:3a:e9:e6:c9:e2:19:d2:76:26:7e:db:e7:07:f6:0c:
        37:84:e2:12:e1:31:35:86:e1:41:a0:0c:e1:40:19:1c:dc:8e:
        f9:54:d2:22:14:c7:a9:3e:f0:37:c6:f4:64:4b:42:f6:18:b2:
        a9:86
-----BEGIN CERTIFICATE-----
MIIDnjCCAwegAwIBAgIBCzANBgkqhkiG9w0BAQUFADB7MQswCQYDVQQGEwJSVTET
MBEGA1UECBMKU0FNQVJTS0FZQTEPMA0GA1UEBxMGU0FNQVJBMREwDwYDVQQKEwhO
RU9UUkFJRDEUMBIGA1UEAxMLTkVPVFJBSUQgQ0ExHTAbBgkqhkiG9w0BCQEWDmFk
bWluQG5lbzYzLnJ1MB4XDTE0MDEyOTA2NDgwMFoXDTI0MDEyNzA2NDgwMFowfDEL
MAkGA1UEBhMCUlUxEzARBgNVBAgTClNBTUFSU0tBWUExDzANBgNVBAcTBlNBTUFS
QTERMA8GA1UEChMITkVPVFJBSUQxFTATBgNVBAMUDHNtcl9taXRpcmV2YTEdMBsG
CSqGSIb3DQEJARYOYWRtaW5AbmVvNjMucnUwgZ8wDQYJKoZIhvcNAQEBBQADgY0A
MIGJAoGBAL/o62p3Y26F3Vlycgyow+Tx1sJmRVtDnloxFGS6kR9XdML3pGdTLKnz
VVRTQX/Lh3OQiV+mQeI3tfp/Cg4aYrM+uzN8InDD5k8Wtxg6n3D/ghDNssAgIkIP
uhAJpgPGRxcpUa5q++wiIlH9JTA0oFIo799mOQHDmBz3o+gvwuZRAgMBAAGjggEv
MIIBKzAJBgNVHRMEAjAAMC0GCWCGSAGG+EIBDQQgFh5FYXN5LVJTQSBHZW5lcmF0
ZWQgQ2VydGlmaWNhdGUwHQYDVR0OBBYEFPZ2fXAyXWOYtS+oUVjpQ+pOgRliMIGt
BgNVHSMEgaUwgaKAFNewDJogftCbySgDoQQTx6rIqK/OoX+kfTB7MQswCQYDVQQG
EwJSVTETMBEGA1UECBMKU0FNQVJTS0FZQTEPMA0GA1UEBxMGU0FNQVJBMREwDwYD
VQQKEwhORU9UUkFJRDEUMBIGA1UEAxMLTkVPVFJBSUQgQ0ExHTAbBgkqhkiG9w0B
CQEWDmFkbWluQG5lbzYzLnJ1ggkAuUEjAttGKiQwEwYDVR0lBAwwCgYIKwYBBQUH
AwIwCwYDVR0PBAQDAgeAMA0GCSqGSIb3DQEBBQUAA4GBAHhK/lXT1DmdEnBcvTWj
MGNizYt3HxuvXWLtGZtaMqKKVluE+75LbKH5mMU1N5WP4VJKnqRUd/XFyD7K5UAS
A049W/DZnmv1qRBlXDrp5sniGdJ2Jn7b5wf2DDeE4hLhMTWG4UGgDOFAGRzcjvlU
0iIUx6k+8DfG9GRLQvYYsqmG
-----END CERTIFICATE-----
