Certificate:
    Data:
        Version: 3 (0x2)
        Serial Number: 12 (0xc)
        Signature Algorithm: sha1WithRSAEncryption
        Issuer: C=RU, ST=SAMARSKAYA, L=SAMARA, O=NEOTRAID, CN=NEOTRAID CA/emailAddress=admin@neo63.ru
        Validity
            Not Before: Sep 16 11:25:30 2014 GMT
            Not After : Sep 13 11:25:30 2024 GMT
        Subject: C=RU, ST=SAMARSKAYA, L=SAMARA, O=NEOTRAID, CN=ps_amineva/emailAddress=admin@neo63.ru
        Subject Public Key Info:
            Public Key Algorithm: rsaEncryption
            RSA Public Key: (1024 bit)
                Modulus (1024 bit):
                    00:a9:1f:8e:1c:40:ed:0f:51:b0:87:ec:04:d0:34:
                    c1:79:f4:34:29:22:ce:ac:a5:98:97:5f:7c:c5:4f:
                    9d:55:c5:ea:a7:b7:64:c5:c7:4c:a0:d8:2b:2e:f8:
                    62:4a:43:33:7b:20:7f:e1:8a:d1:b8:b5:65:ad:d8:
                    51:bf:6f:35:26:25:a5:04:6c:d1:55:c9:fe:bc:03:
                    c0:4e:0a:f0:f9:7e:12:b2:5e:8d:bb:69:bd:cc:8c:
                    2d:75:7f:54:9e:3c:14:9f:3a:f4:ef:bf:3d:c4:f8:
                    9b:45:35:3d:a3:7b:d6:9b:7c:03:f8:10:7e:c4:eb:
                    4d:0c:83:8a:da:a2:3f:93:f1
                Exponent: 65537 (0x10001)
        X509v3 extensions:
            X509v3 Basic Constraints: 
                CA:FALSE
            Netscape Comment: 
                Easy-RSA Generated Certificate
            X509v3 Subject Key Identifier: 
                1C:DB:43:CB:3E:1C:72:32:F9:5B:22:21:8C:50:8D:D3:27:8A:22:75
            X509v3 Authority Key Identifier: 
                keyid:D7:B0:0C:9A:20:7E:D0:9B:C9:28:03:A1:04:13:C7:AA:C8:A8:AF:CE
                DirName:/C=RU/ST=SAMARSKAYA/L=SAMARA/O=NEOTRAID/CN=NEOTRAID CA/emailAddress=admin@neo63.ru
                serial:B9:41:23:02:DB:46:2A:24

            X509v3 Extended Key Usage: 
                TLS Web Client Authentication
            X509v3 Key Usage: 
                Digital Signature
    Signature Algorithm: sha1WithRSAEncryption
        6d:d2:42:17:b0:38:87:aa:44:e4:c3:b4:3e:f4:49:df:84:72:
        30:06:da:1b:47:e6:f5:4b:9c:d1:31:59:af:3b:0a:e7:07:34:
        3c:63:2c:80:71:35:13:f6:1f:e6:6d:c1:01:21:b9:19:3e:39:
        54:80:da:8f:2f:74:62:b1:0a:1b:57:ec:ef:89:44:0d:35:76:
        d8:8a:70:5f:fb:bd:91:47:24:97:d5:5f:77:c8:85:fd:91:d0:
        92:51:67:d0:c5:38:32:90:01:8f:96:37:a5:60:76:28:9c:63:
        cb:a0:de:d0:37:4c:7b:50:5c:9a:cd:86:3a:33:66:b5:3e:b6:
        b9:2d
-----BEGIN CERTIFICATE-----
MIIDnDCCAwWgAwIBAgIBDDANBgkqhkiG9w0BAQUFADB7MQswCQYDVQQGEwJSVTET
MBEGA1UECBMKU0FNQVJTS0FZQTEPMA0GA1UEBxMGU0FNQVJBMREwDwYDVQQKEwhO
RU9UUkFJRDEUMBIGA1UEAxMLTkVPVFJBSUQgQ0ExHTAbBgkqhkiG9w0BCQEWDmFk
bWluQG5lbzYzLnJ1MB4XDTE0MDkxNjExMjUzMFoXDTI0MDkxMzExMjUzMFowejEL
MAkGA1UEBhMCUlUxEzARBgNVBAgTClNBTUFSU0tBWUExDzANBgNVBAcTBlNBTUFS
QTERMA8GA1UEChMITkVPVFJBSUQxEzARBgNVBAMUCnBzX2FtaW5ldmExHTAbBgkq
hkiG9w0BCQEWDmFkbWluQG5lbzYzLnJ1MIGfMA0GCSqGSIb3DQEBAQUAA4GNADCB
iQKBgQCpH44cQO0PUbCH7ATQNMF59DQpIs6spZiXX3zFT51Vxeqnt2TFx0yg2Csu
+GJKQzN7IH/hitG4tWWt2FG/bzUmJaUEbNFVyf68A8BOCvD5fhKyXo27ab3MjC11
f1SePBSfOvTvvz3E+JtFNT2je9abfAP4EH7E600Mg4raoj+T8QIDAQABo4IBLzCC
ASswCQYDVR0TBAIwADAtBglghkgBhvhCAQ0EIBYeRWFzeS1SU0EgR2VuZXJhdGVk
IENlcnRpZmljYXRlMB0GA1UdDgQWBBQc20PLPhxyMvlbIiGMUI3TJ4oidTCBrQYD
VR0jBIGlMIGigBTXsAyaIH7Qm8koA6EEE8eqyKivzqF/pH0wezELMAkGA1UEBhMC
UlUxEzARBgNVBAgTClNBTUFSU0tBWUExDzANBgNVBAcTBlNBTUFSQTERMA8GA1UE
ChMITkVPVFJBSUQxFDASBgNVBAMTC05FT1RSQUlEIENBMR0wGwYJKoZIhvcNAQkB
Fg5hZG1pbkBuZW82My5ydYIJALlBIwLbRiokMBMGA1UdJQQMMAoGCCsGAQUFBwMC
MAsGA1UdDwQEAwIHgDANBgkqhkiG9w0BAQUFAAOBgQBt0kIXsDiHqkTkw7Q+9Enf
hHIwBtobR+b1S5zRMVmvOwrnBzQ8YyyAcTUT9h/mbcEBIbkZPjlUgNqPL3RisQob
V+zviUQNNXbYinBf+72RRySX1V93yIX9kdCSUWfQxTgykAGPljelYHYonGPLoN7Q
N0x7UFyazYY6M2a1Pra5LQ==
-----END CERTIFICATE-----
