Certificate:
    Data:
        Version: 3 (0x2)
        Serial Number: 14 (0xe)
        Signature Algorithm: sha1WithRSAEncryption
        Issuer: C=RU, ST=SAMARSKAYA, L=SAMARA, O=NEOTRAID, CN=NEOTRAID CA/emailAddress=admin@neo63.ru
        Validity
            Not Before: Oct 27 04:01:35 2014 GMT
            Not After : Oct 24 04:01:35 2024 GMT
        Subject: C=RU, ST=SAMARSKAYA, L=SAMARA, O=NEOTRAID, CN=smr_mortor/emailAddress=admin@neo63.ru
        Subject Public Key Info:
            Public Key Algorithm: rsaEncryption
            RSA Public Key: (1024 bit)
                Modulus (1024 bit):
                    00:d4:00:f1:a6:a9:5e:d9:c9:f1:58:ee:fa:3b:17:
                    77:8b:b4:7f:c0:8b:8f:75:bd:4c:35:18:23:2b:3b:
                    62:8b:47:da:35:d9:73:a0:c9:25:98:63:ff:71:88:
                    11:d3:fa:8d:13:4a:db:ec:9b:c5:43:e1:09:8d:e7:
                    5d:01:bf:82:32:f4:be:13:4a:85:aa:de:b3:c6:cc:
                    ed:67:b9:f1:f4:32:7e:2c:5d:ae:28:bd:4a:df:e1:
                    d2:b5:0f:4d:90:38:05:0a:47:37:76:9d:e7:29:11:
                    44:f1:4e:a3:91:ba:7c:9c:aa:3a:29:7d:28:ed:5f:
                    bf:c3:12:c0:6b:5d:77:eb:71
                Exponent: 65537 (0x10001)
        X509v3 extensions:
            X509v3 Basic Constraints: 
                CA:FALSE
            Netscape Comment: 
                Easy-RSA Generated Certificate
            X509v3 Subject Key Identifier: 
                9A:F2:6C:0B:7E:3E:AD:64:82:32:E2:6E:B3:10:C3:3D:38:F4:08:77
            X509v3 Authority Key Identifier: 
                keyid:D7:B0:0C:9A:20:7E:D0:9B:C9:28:03:A1:04:13:C7:AA:C8:A8:AF:CE
                DirName:/C=RU/ST=SAMARSKAYA/L=SAMARA/O=NEOTRAID/CN=NEOTRAID CA/emailAddress=admin@neo63.ru
                serial:B9:41:23:02:DB:46:2A:24

            X509v3 Extended Key Usage: 
                TLS Web Client Authentication
            X509v3 Key Usage: 
                Digital Signature
    Signature Algorithm: sha1WithRSAEncryption
        78:e1:d1:a6:da:27:13:70:b9:cc:ff:c6:5d:19:09:09:dd:46:
        b4:29:6a:6c:86:37:9a:ce:c8:97:be:5f:01:72:06:a4:46:ec:
        29:f4:12:0f:48:99:00:19:12:b8:d6:2f:c6:d4:1e:60:7a:ab:
        ed:f7:22:c3:e1:5d:24:e1:2d:11:8b:7c:38:09:c7:24:cf:7f:
        45:3f:e7:e0:17:47:e8:95:21:66:bd:a0:bb:a7:7e:fc:98:af:
        40:43:ca:87:3f:cb:fc:f7:1b:ef:e3:e9:31:7e:49:60:6e:5d:
        46:66:22:4c:57:0f:27:63:25:6b:ce:1a:4f:b8:23:3a:94:bb:
        8c:10
-----BEGIN CERTIFICATE-----
MIIDnDCCAwWgAwIBAgIBDjANBgkqhkiG9w0BAQUFADB7MQswCQYDVQQGEwJSVTET
MBEGA1UECBMKU0FNQVJTS0FZQTEPMA0GA1UEBxMGU0FNQVJBMREwDwYDVQQKEwhO
RU9UUkFJRDEUMBIGA1UEAxMLTkVPVFJBSUQgQ0ExHTAbBgkqhkiG9w0BCQEWDmFk
bWluQG5lbzYzLnJ1MB4XDTE0MTAyNzA0MDEzNVoXDTI0MTAyNDA0MDEzNVowejEL
MAkGA1UEBhMCUlUxEzARBgNVBAgTClNBTUFSU0tBWUExDzANBgNVBAcTBlNBTUFS
QTERMA8GA1UEChMITkVPVFJBSUQxEzARBgNVBAMUCnNtcl9tb3J0b3IxHTAbBgkq
hkiG9w0BCQEWDmFkbWluQG5lbzYzLnJ1MIGfMA0GCSqGSIb3DQEBAQUAA4GNADCB
iQKBgQDUAPGmqV7ZyfFY7vo7F3eLtH/Ai491vUw1GCMrO2KLR9o12XOgySWYY/9x
iBHT+o0TStvsm8VD4QmN510Bv4Iy9L4TSoWq3rPGzO1nufH0Mn4sXa4ovUrf4dK1
D02QOAUKRzd2necpEUTxTqORunycqjopfSjtX7/DEsBrXXfrcQIDAQABo4IBLzCC
ASswCQYDVR0TBAIwADAtBglghkgBhvhCAQ0EIBYeRWFzeS1SU0EgR2VuZXJhdGVk
IENlcnRpZmljYXRlMB0GA1UdDgQWBBSa8mwLfj6tZIIy4m6zEMM9OPQIdzCBrQYD
VR0jBIGlMIGigBTXsAyaIH7Qm8koA6EEE8eqyKivzqF/pH0wezELMAkGA1UEBhMC
UlUxEzARBgNVBAgTClNBTUFSU0tBWUExDzANBgNVBAcTBlNBTUFSQTERMA8GA1UE
ChMITkVPVFJBSUQxFDASBgNVBAMTC05FT1RSQUlEIENBMR0wGwYJKoZIhvcNAQkB
Fg5hZG1pbkBuZW82My5ydYIJALlBIwLbRiokMBMGA1UdJQQMMAoGCCsGAQUFBwMC
MAsGA1UdDwQEAwIHgDANBgkqhkiG9w0BAQUFAAOBgQB44dGm2icTcLnM/8ZdGQkJ
3Ua0KWpshjeazsiXvl8BcgakRuwp9BIPSJkAGRK41i/G1B5geqvt9yLD4V0k4S0R
i3w4Ccckz39FP+fgF0folSFmvaC7p378mK9AQ8qHP8v89xvv4+kxfklgbl1GZiJM
Vw8nYyVrzhpPuCM6lLuMEA==
-----END CERTIFICATE-----
