Certificate:
    Data:
        Version: 3 (0x2)
        Serial Number: 19 (0x13)
        Signature Algorithm: sha1WithRSAEncryption
        Issuer: C=RU, ST=SAMARSKAYA, L=SAMARA, O=NEOTRAID, CN=NEOTRAID CA/emailAddress=admin@neo63.ru
        Validity
            Not Before: Apr 10 09:50:56 2015 GMT
            Not After : Apr  7 09:50:56 2025 GMT
        Subject: C=RU, ST=SAMARSKAYA, L=SAMARA, O=NEOTRAID, CN=smr_fiz/emailAddress=admin@neo63.ru
        Subject Public Key Info:
            Public Key Algorithm: rsaEncryption
            RSA Public Key: (1024 bit)
                Modulus (1024 bit):
                    00:aa:f1:af:74:ac:b1:2b:f9:e7:c1:0a:df:d8:69:
                    dd:5f:8b:5f:95:e4:7e:d1:66:c9:91:95:68:57:0f:
                    81:b6:c8:c0:f4:db:ea:d4:56:9c:05:96:04:dc:76:
                    d9:ba:b9:6f:ed:ee:50:02:47:94:14:6f:d3:ce:43:
                    83:40:27:09:4f:4f:df:29:6a:28:d2:ad:aa:f2:fc:
                    46:cf:4d:92:74:3d:cb:29:f6:bd:d5:12:2f:5f:d8:
                    b6:ad:03:f6:22:2e:52:be:03:76:d4:53:1a:57:89:
                    77:57:a5:82:d1:1f:93:6c:dd:05:a7:60:2e:cf:51:
                    81:80:e1:79:85:9c:a3:ab:c5
                Exponent: 65537 (0x10001)
        X509v3 extensions:
            X509v3 Basic Constraints: 
                CA:FALSE
            Netscape Comment: 
                Easy-RSA Generated Certificate
            X509v3 Subject Key Identifier: 
                DB:56:61:83:DC:17:2C:2D:1C:FA:56:D5:F8:BA:92:CC:61:1F:89:C9
            X509v3 Authority Key Identifier: 
                keyid:D7:B0:0C:9A:20:7E:D0:9B:C9:28:03:A1:04:13:C7:AA:C8:A8:AF:CE
                DirName:/C=RU/ST=SAMARSKAYA/L=SAMARA/O=NEOTRAID/CN=NEOTRAID CA/emailAddress=admin@neo63.ru
                serial:B9:41:23:02:DB:46:2A:24

            X509v3 Extended Key Usage: 
                TLS Web Client Authentication
            X509v3 Key Usage: 
                Digital Signature
    Signature Algorithm: sha1WithRSAEncryption
        81:88:fe:ab:44:fa:20:cf:a8:bd:13:71:a7:6b:84:82:a7:c4:
        e6:f5:25:3d:de:75:22:dc:2c:ba:fc:5d:5a:09:36:05:78:ec:
        22:4d:bb:1b:14:25:c2:19:b1:35:1a:96:28:e3:bd:b7:ec:8a:
        44:11:85:2c:2f:d1:c8:f8:c5:af:07:be:e0:5f:89:24:93:02:
        d2:5e:bf:7d:44:39:4f:2c:07:89:ed:ef:95:14:01:43:19:55:
        4e:d6:84:4b:22:47:89:d5:8f:62:a1:c5:a9:39:4c:ca:58:4a:
        d1:99:9b:98:93:76:41:ce:3b:88:50:0b:9a:ed:ad:a1:ff:9d:
        c7:92
-----BEGIN CERTIFICATE-----
MIIDmTCCAwKgAwIBAgIBEzANBgkqhkiG9w0BAQUFADB7MQswCQYDVQQGEwJSVTET
MBEGA1UECBMKU0FNQVJTS0FZQTEPMA0GA1UEBxMGU0FNQVJBMREwDwYDVQQKEwhO
RU9UUkFJRDEUMBIGA1UEAxMLTkVPVFJBSUQgQ0ExHTAbBgkqhkiG9w0BCQEWDmFk
bWluQG5lbzYzLnJ1MB4XDTE1MDQxMDA5NTA1NloXDTI1MDQwNzA5NTA1NlowdzEL
MAkGA1UEBhMCUlUxEzARBgNVBAgTClNBTUFSU0tBWUExDzANBgNVBAcTBlNBTUFS
QTERMA8GA1UEChMITkVPVFJBSUQxEDAOBgNVBAMUB3Ntcl9maXoxHTAbBgkqhkiG
9w0BCQEWDmFkbWluQG5lbzYzLnJ1MIGfMA0GCSqGSIb3DQEBAQUAA4GNADCBiQKB
gQCq8a90rLEr+efBCt/Yad1fi1+V5H7RZsmRlWhXD4G2yMD02+rUVpwFlgTcdtm6
uW/t7lACR5QUb9POQ4NAJwlPT98paijSrary/EbPTZJ0Pcsp9r3VEi9f2LatA/Yi
LlK+A3bUUxpXiXdXpYLRH5Ns3QWnYC7PUYGA4XmFnKOrxQIDAQABo4IBLzCCASsw
CQYDVR0TBAIwADAtBglghkgBhvhCAQ0EIBYeRWFzeS1SU0EgR2VuZXJhdGVkIENl
cnRpZmljYXRlMB0GA1UdDgQWBBTbVmGD3BcsLRz6VtX4upLMYR+JyTCBrQYDVR0j
BIGlMIGigBTXsAyaIH7Qm8koA6EEE8eqyKivzqF/pH0wezELMAkGA1UEBhMCUlUx
EzARBgNVBAgTClNBTUFSU0tBWUExDzANBgNVBAcTBlNBTUFSQTERMA8GA1UEChMI
TkVPVFJBSUQxFDASBgNVBAMTC05FT1RSQUlEIENBMR0wGwYJKoZIhvcNAQkBFg5h
ZG1pbkBuZW82My5ydYIJALlBIwLbRiokMBMGA1UdJQQMMAoGCCsGAQUFBwMCMAsG
A1UdDwQEAwIHgDANBgkqhkiG9w0BAQUFAAOBgQCBiP6rRPogz6i9E3Gna4SCp8Tm
9SU93nUi3Cy6/F1aCTYFeOwiTbsbFCXCGbE1GpYo47237IpEEYUsL9HI+MWvB77g
X4kkkwLSXr99RDlPLAeJ7e+VFAFDGVVO1oRLIkeJ1Y9iocWpOUzKWErRmZuYk3ZB
zjuIUAua7a2h/53Hkg==
-----END CERTIFICATE-----
