Certificate:
    Data:
        Version: 3 (0x2)
        Serial Number: 21 (0x15)
        Signature Algorithm: sha1WithRSAEncryption
        Issuer: C=RU, ST=SAMARSKAYA, L=SAMARA, O=NEOTRAID, CN=NEOTRAID CA/emailAddress=admin@neo63.ru
        Validity
            Not Before: May  5 11:08:18 2015 GMT
            Not After : May  2 11:08:18 2025 GMT
        Subject: C=RU, ST=SAMARSKAYA, L=SAMARA, O=NEOTRAID, CN=smr_sa/emailAddress=admin@neo63.ru
        Subject Public Key Info:
            Public Key Algorithm: rsaEncryption
            RSA Public Key: (1024 bit)
                Modulus (1024 bit):
                    00:ca:58:ec:71:3a:1a:3a:5e:e6:e3:69:96:fe:46:
                    53:e7:ca:67:db:ed:39:46:fd:8f:e1:5c:4b:38:1a:
                    28:10:f0:64:04:54:52:79:70:25:c0:5c:2b:74:34:
                    3a:f5:fc:6b:7b:93:b0:03:30:f2:fc:0d:de:3e:13:
                    6b:1f:7d:57:fc:19:df:b5:4f:2e:9b:f0:af:f9:90:
                    84:45:66:ba:03:59:cf:68:6c:c9:c2:58:2a:5d:52:
                    54:ba:cf:5f:4e:95:e2:f7:c4:51:a0:34:23:8d:f8:
                    f3:7b:07:5f:41:55:3c:38:37:d5:ca:6c:f1:45:18:
                    05:09:ae:b2:06:a1:ed:16:65
                Exponent: 65537 (0x10001)
        X509v3 extensions:
            X509v3 Basic Constraints: 
                CA:FALSE
            Netscape Comment: 
                Easy-RSA Generated Certificate
            X509v3 Subject Key Identifier: 
                34:2C:53:BD:5E:67:04:06:09:58:51:9D:7C:5F:27:BD:EA:7D:FA:85
            X509v3 Authority Key Identifier: 
                keyid:D7:B0:0C:9A:20:7E:D0:9B:C9:28:03:A1:04:13:C7:AA:C8:A8:AF:CE
                DirName:/C=RU/ST=SAMARSKAYA/L=SAMARA/O=NEOTRAID/CN=NEOTRAID CA/emailAddress=admin@neo63.ru
                serial:B9:41:23:02:DB:46:2A:24

            X509v3 Extended Key Usage: 
                TLS Web Client Authentication
            X509v3 Key Usage: 
                Digital Signature
    Signature Algorithm: sha1WithRSAEncryption
        3b:db:98:2e:19:e7:4e:81:9d:67:4e:46:7a:a2:27:e2:94:37:
        94:09:b5:93:b3:22:e8:9c:7f:e2:c1:9e:4f:ee:bf:90:8f:44:
        b6:71:44:93:3e:65:ca:b8:a6:79:fd:ef:4f:a0:38:11:fc:a9:
        8f:95:38:95:05:24:94:69:70:63:46:a4:0e:07:1a:33:69:da:
        40:c0:c2:bd:72:73:d5:a2:59:a9:0c:6b:19:ed:51:5b:14:11:
        57:55:28:74:0b:4e:8f:30:01:7a:1b:ec:eb:36:4a:9b:9f:93:
        a9:b9:40:92:52:2c:7b:69:13:2a:77:13:be:23:98:32:f3:8e:
        f8:c7
-----BEGIN CERTIFICATE-----
MIIDmDCCAwGgAwIBAgIBFTANBgkqhkiG9w0BAQUFADB7MQswCQYDVQQGEwJSVTET
MBEGA1UECBMKU0FNQVJTS0FZQTEPMA0GA1UEBxMGU0FNQVJBMREwDwYDVQQKEwhO
RU9UUkFJRDEUMBIGA1UEAxMLTkVPVFJBSUQgQ0ExHTAbBgkqhkiG9w0BCQEWDmFk
bWluQG5lbzYzLnJ1MB4XDTE1MDUwNTExMDgxOFoXDTI1MDUwMjExMDgxOFowdjEL
MAkGA1UEBhMCUlUxEzARBgNVBAgTClNBTUFSU0tBWUExDzANBgNVBAcTBlNBTUFS
QTERMA8GA1UEChMITkVPVFJBSUQxDzANBgNVBAMUBnNtcl9zYTEdMBsGCSqGSIb3
DQEJARYOYWRtaW5AbmVvNjMucnUwgZ8wDQYJKoZIhvcNAQEBBQADgY0AMIGJAoGB
AMpY7HE6Gjpe5uNplv5GU+fKZ9vtOUb9j+FcSzgaKBDwZARUUnlwJcBcK3Q0OvX8
a3uTsAMw8vwN3j4Tax99V/wZ37VPLpvwr/mQhEVmugNZz2hsycJYKl1SVLrPX06V
4vfEUaA0I43483sHX0FVPDg31cps8UUYBQmusgah7RZlAgMBAAGjggEvMIIBKzAJ
BgNVHRMEAjAAMC0GCWCGSAGG+EIBDQQgFh5FYXN5LVJTQSBHZW5lcmF0ZWQgQ2Vy
dGlmaWNhdGUwHQYDVR0OBBYEFDQsU71eZwQGCVhRnXxfJ73qffqFMIGtBgNVHSME
gaUwgaKAFNewDJogftCbySgDoQQTx6rIqK/OoX+kfTB7MQswCQYDVQQGEwJSVTET
MBEGA1UECBMKU0FNQVJTS0FZQTEPMA0GA1UEBxMGU0FNQVJBMREwDwYDVQQKEwhO
RU9UUkFJRDEUMBIGA1UEAxMLTkVPVFJBSUQgQ0ExHTAbBgkqhkiG9w0BCQEWDmFk
bWluQG5lbzYzLnJ1ggkAuUEjAttGKiQwEwYDVR0lBAwwCgYIKwYBBQUHAwIwCwYD
VR0PBAQDAgeAMA0GCSqGSIb3DQEBBQUAA4GBADvbmC4Z506BnWdORnqiJ+KUN5QJ
tZOzIuicf+LBnk/uv5CPRLZxRJM+Zcq4pnn970+gOBH8qY+VOJUFJJRpcGNGpA4H
GjNp2kDAwr1yc9WiWakMaxntUVsUEVdVKHQLTo8wAXob7Os2Spufk6m5QJJSLHtp
Eyp3E74jmDLzjvjH
-----END CERTIFICATE-----
