Certificate:
    Data:
        Version: 3 (0x2)
        Serial Number: 24 (0x18)
    Signature Algorithm: sha1WithRSAEncryption
        Issuer: C=RU, ST=SAMARSKAYA, L=SAMARA, O=NEOTRAID, CN=NEOTRAID CA/emailAddress=admin@neo63.ru
        Validity
            Not Before: Aug  2 13:10:16 2016 GMT
            Not After : Jul 31 13:10:16 2026 GMT
        Subject: C=RU, ST=SAMARSKAYA, L=SAMARA, O=NEOTRAID, CN=smr_dimitrova44/emailAddress=admin@neo63.ru
        Subject Public Key Info:
            Public Key Algorithm: rsaEncryption
                Public-Key: (1024 bit)
                Modulus:
                    00:f2:87:86:dd:d9:f1:2d:92:89:cb:81:73:52:c1:
                    30:83:14:04:39:1e:29:06:e9:94:ec:97:dd:8b:55:
                    a6:2d:99:18:f4:09:b1:7d:c0:d3:8c:4b:84:26:e3:
                    ae:0b:0e:0e:7d:ae:2f:ed:cf:1a:70:48:ac:04:4e:
                    bf:7d:f0:35:25:9d:6f:9f:24:26:b6:9d:2f:0a:e5:
                    d9:3e:6a:7e:f3:15:77:84:0b:e5:dc:3d:c7:15:06:
                    08:6a:ad:d4:41:b8:84:67:4d:05:3b:8a:73:98:4f:
                    33:1e:67:50:cb:6e:c3:87:d7:6f:55:ef:c8:ee:76:
                    a6:e6:53:7c:b4:f2:2c:71:1f
                Exponent: 65537 (0x10001)
        X509v3 extensions:
            X509v3 Basic Constraints: 
                CA:FALSE
            Netscape Comment: 
                Easy-RSA Generated Certificate
            X509v3 Subject Key Identifier: 
                0F:49:CF:EE:D8:F1:29:F5:57:17:8E:2C:2C:C1:B5:44:49:E8:BC:4C
            X509v3 Authority Key Identifier: 
                keyid:D7:B0:0C:9A:20:7E:D0:9B:C9:28:03:A1:04:13:C7:AA:C8:A8:AF:CE
                DirName:/C=RU/ST=SAMARSKAYA/L=SAMARA/O=NEOTRAID/CN=NEOTRAID CA/emailAddress=admin@neo63.ru
                serial:B9:41:23:02:DB:46:2A:24

            X509v3 Extended Key Usage: 
                TLS Web Client Authentication
            X509v3 Key Usage: 
                Digital Signature
    Signature Algorithm: sha1WithRSAEncryption
         8b:63:33:72:31:b3:1a:3b:4c:fc:3c:e3:ec:f5:d7:97:ef:0a:
         33:8d:f5:3f:7d:58:61:02:2e:01:b1:ec:c1:84:1b:e4:03:36:
         c1:2e:19:bc:a0:29:c8:24:96:10:67:e2:c7:94:19:5d:f7:42:
         45:9d:e6:66:ab:a8:82:b2:b8:54:82:55:de:ad:1a:69:f6:56:
         cc:b4:68:3e:ba:ba:0c:62:19:e8:7a:09:8f:cf:9b:fe:69:0b:
         23:41:b3:63:bf:b4:c1:6c:06:16:8e:9a:62:2b:1a:2b:a5:38:
         80:9b:cf:ae:36:88:60:4e:9f:51:d6:35:56:26:22:f2:26:5e:
         83:e1
-----BEGIN CERTIFICATE-----
MIIDoTCCAwqgAwIBAgIBGDANBgkqhkiG9w0BAQUFADB7MQswCQYDVQQGEwJSVTET
MBEGA1UECBMKU0FNQVJTS0FZQTEPMA0GA1UEBxMGU0FNQVJBMREwDwYDVQQKEwhO
RU9UUkFJRDEUMBIGA1UEAxMLTkVPVFJBSUQgQ0ExHTAbBgkqhkiG9w0BCQEWDmFk
bWluQG5lbzYzLnJ1MB4XDTE2MDgwMjEzMTAxNloXDTI2MDczMTEzMTAxNlowfzEL
MAkGA1UEBhMCUlUxEzARBgNVBAgTClNBTUFSU0tBWUExDzANBgNVBAcTBlNBTUFS
QTERMA8GA1UEChMITkVPVFJBSUQxGDAWBgNVBAMUD3Ntcl9kaW1pdHJvdmE0NDEd
MBsGCSqGSIb3DQEJARYOYWRtaW5AbmVvNjMucnUwgZ8wDQYJKoZIhvcNAQEBBQAD
gY0AMIGJAoGBAPKHht3Z8S2SicuBc1LBMIMUBDkeKQbplOyX3YtVpi2ZGPQJsX3A
04xLhCbjrgsODn2uL+3PGnBIrAROv33wNSWdb58kJradLwrl2T5qfvMVd4QL5dw9
xxUGCGqt1EG4hGdNBTuKc5hPMx5nUMtuw4fXb1XvyO52puZTfLTyLHEfAgMBAAGj
ggEvMIIBKzAJBgNVHRMEAjAAMC0GCWCGSAGG+EIBDQQgFh5FYXN5LVJTQSBHZW5l
cmF0ZWQgQ2VydGlmaWNhdGUwHQYDVR0OBBYEFA9Jz+7Y8Sn1VxeOLCzBtURJ6LxM
MIGtBgNVHSMEgaUwgaKAFNewDJogftCbySgDoQQTx6rIqK/OoX+kfTB7MQswCQYD
VQQGEwJSVTETMBEGA1UECBMKU0FNQVJTS0FZQTEPMA0GA1UEBxMGU0FNQVJBMREw
DwYDVQQKEwhORU9UUkFJRDEUMBIGA1UEAxMLTkVPVFJBSUQgQ0ExHTAbBgkqhkiG
9w0BCQEWDmFkbWluQG5lbzYzLnJ1ggkAuUEjAttGKiQwEwYDVR0lBAwwCgYIKwYB
BQUHAwIwCwYDVR0PBAQDAgeAMA0GCSqGSIb3DQEBBQUAA4GBAItjM3Ixsxo7TPw8
4+z115fvCjON9T99WGECLgGx7MGEG+QDNsEuGbygKcgklhBn4seUGV33QkWd5mar
qIKyuFSCVd6tGmn2Vsy0aD66ugxiGeh6CY/Pm/5pCyNBs2O/tMFsBhaOmmIrGiul
OICbz642iGBOn1HWNVYmIvImXoPh
-----END CERTIFICATE-----
