Certificate:
    Data:
        Version: 3 (0x2)
        Serial Number: 25 (0x19)
    Signature Algorithm: sha1WithRSAEncryption
        Issuer: C=RU, ST=SAMARSKAYA, L=SAMARA, O=NEOTRAID, CN=NEOTRAID CA/emailAddress=admin@neo63.ru
        Validity
            Not Before: Sep 26 09:04:35 2016 GMT
            Not After : Sep 24 09:04:35 2026 GMT
        Subject: C=RU, ST=SAMARSKAYA, L=SAMARA, O=NEOTRAID, CN=smr_obl_krasnoarmeyskoe/emailAddress=admin@neo63.ru
        Subject Public Key Info:
            Public Key Algorithm: rsaEncryption
                Public-Key: (1024 bit)
                Modulus:
                    00:b9:67:96:1c:ac:56:11:9e:85:e3:a1:60:20:5b:
                    f5:ae:49:07:e9:5a:26:cf:f4:08:cd:51:0f:9d:fd:
                    5b:e8:d6:fd:64:53:dd:de:40:46:e7:80:26:bb:8f:
                    a9:1d:55:a5:4a:a3:67:03:c8:b0:cf:69:20:04:ff:
                    11:c9:6d:9c:cb:5c:b4:31:29:ca:4d:48:9c:a9:2d:
                    42:e0:e1:f4:ba:d8:4d:cb:b0:07:b8:b8:e5:b6:89:
                    96:c1:a7:4c:41:cd:c2:65:d6:27:b4:4e:4b:a7:df:
                    62:90:11:ca:c5:0d:25:6a:7c:1d:ad:c0:af:b2:f3:
                    b1:2b:38:6a:e3:2e:3b:84:eb
                Exponent: 65537 (0x10001)
        X509v3 extensions:
            X509v3 Basic Constraints: 
                CA:FALSE
            Netscape Comment: 
                Easy-RSA Generated Certificate
            X509v3 Subject Key Identifier: 
                64:DB:10:7A:87:52:DC:39:7B:73:1B:55:46:40:87:9C:FF:C5:7E:EA
            X509v3 Authority Key Identifier: 
                keyid:D7:B0:0C:9A:20:7E:D0:9B:C9:28:03:A1:04:13:C7:AA:C8:A8:AF:CE
                DirName:/C=RU/ST=SAMARSKAYA/L=SAMARA/O=NEOTRAID/CN=NEOTRAID CA/emailAddress=admin@neo63.ru
                serial:B9:41:23:02:DB:46:2A:24

            X509v3 Extended Key Usage: 
                TLS Web Client Authentication
            X509v3 Key Usage: 
                Digital Signature
    Signature Algorithm: sha1WithRSAEncryption
         8d:ac:f5:86:f5:0e:11:09:d1:26:7d:ef:43:b2:cb:76:e1:49:
         81:6b:3e:b3:86:0c:77:cf:de:52:59:28:19:0e:6d:3a:3b:a1:
         64:a0:21:3b:77:1d:f4:80:98:e3:39:03:0b:24:f6:a3:8c:b9:
         32:9f:b2:2e:84:8e:80:8d:54:e5:f4:91:55:90:54:3c:fd:36:
         63:27:44:20:09:e3:6e:e8:17:a1:af:e1:02:63:51:8c:f7:ea:
         a8:b8:1c:71:9c:95:23:29:8a:e2:c0:a1:8c:b3:4d:30:0d:6f:
         f2:d0:14:5a:5a:8f:49:1c:99:00:4e:40:bc:94:4a:a4:b8:bc:
         5c:b1
-----BEGIN CERTIFICATE-----
MIIDqjCCAxOgAwIBAgIBGTANBgkqhkiG9w0BAQUFADB7MQswCQYDVQQGEwJSVTET
MBEGA1UECBMKU0FNQVJTS0FZQTEPMA0GA1UEBxMGU0FNQVJBMREwDwYDVQQKEwhO
RU9UUkFJRDEUMBIGA1UEAxMLTkVPVFJBSUQgQ0ExHTAbBgkqhkiG9w0BCQEWDmFk
bWluQG5lbzYzLnJ1MB4XDTE2MDkyNjA5MDQzNVoXDTI2MDkyNDA5MDQzNVowgYcx
CzAJBgNVBAYTAlJVMRMwEQYDVQQIEwpTQU1BUlNLQVlBMQ8wDQYDVQQHEwZTQU1B
UkExETAPBgNVBAoTCE5FT1RSQUlEMSAwHgYDVQQDFBdzbXJfb2JsX2tyYXNub2Fy
bWV5c2tvZTEdMBsGCSqGSIb3DQEJARYOYWRtaW5AbmVvNjMucnUwgZ8wDQYJKoZI
hvcNAQEBBQADgY0AMIGJAoGBALlnlhysVhGeheOhYCBb9a5JB+laJs/0CM1RD539
W+jW/WRT3d5ARueAJruPqR1VpUqjZwPIsM9pIAT/EcltnMtctDEpyk1InKktQuDh
9LrYTcuwB7i45baJlsGnTEHNwmXWJ7ROS6ffYpARysUNJWp8Ha3Ar7LzsSs4auMu
O4TrAgMBAAGjggEvMIIBKzAJBgNVHRMEAjAAMC0GCWCGSAGG+EIBDQQgFh5FYXN5
LVJTQSBHZW5lcmF0ZWQgQ2VydGlmaWNhdGUwHQYDVR0OBBYEFGTbEHqHUtw5e3Mb
VUZAh5z/xX7qMIGtBgNVHSMEgaUwgaKAFNewDJogftCbySgDoQQTx6rIqK/OoX+k
fTB7MQswCQYDVQQGEwJSVTETMBEGA1UECBMKU0FNQVJTS0FZQTEPMA0GA1UEBxMG
U0FNQVJBMREwDwYDVQQKEwhORU9UUkFJRDEUMBIGA1UEAxMLTkVPVFJBSUQgQ0Ex
HTAbBgkqhkiG9w0BCQEWDmFkbWluQG5lbzYzLnJ1ggkAuUEjAttGKiQwEwYDVR0l
BAwwCgYIKwYBBQUHAwIwCwYDVR0PBAQDAgeAMA0GCSqGSIb3DQEBBQUAA4GBAI2s
9Yb1DhEJ0SZ970Oyy3bhSYFrPrOGDHfP3lJZKBkObTo7oWSgITt3HfSAmOM5Awsk
9qOMuTKfsi6EjoCNVOX0kVWQVDz9NmMnRCAJ427oF6Gv4QJjUYz36qi4HHGclSMp
iuLAoYyzTTANb/LQFFpaj0kcmQBOQLyUSqS4vFyx
-----END CERTIFICATE-----
