Certificate:
    Data:
        Version: 3 (0x2)
        Serial Number: 29 (0x1d)
    Signature Algorithm: sha1WithRSAEncryption
        Issuer: C=RU, ST=SAMARSKAYA, L=SAMARA, O=NEOTRAID, CN=NEOTRAID CA/emailAddress=admin@neo63.ru
        Validity
            Not Before: Mar 16 11:31:27 2017 GMT
            Not After : Mar 14 11:31:27 2027 GMT
        Subject: C=RU, ST=SAMARSKAYA, L=SAMARA, O=NEOTRAID, CN=neftegorsk_pobedi/emailAddress=admin@neo63.ru
        Subject Public Key Info:
            Public Key Algorithm: rsaEncryption
                Public-Key: (1024 bit)
                Modulus:
                    00:b8:3c:29:f4:ef:f4:fe:76:4d:fb:fe:f1:f8:69:
                    d3:78:4f:69:f7:d0:81:7a:44:b7:ad:0e:c7:d7:42:
                    3c:be:e4:e1:05:d5:a9:74:cb:a4:0c:bf:b4:ca:8e:
                    f8:b1:59:38:45:cf:8d:29:61:0a:42:0d:e4:d2:0e:
                    7f:0c:7d:1a:ac:7e:d5:65:21:ea:3f:5b:c5:a7:52:
                    32:cb:9a:39:d3:15:c9:78:83:0a:9b:f4:ed:d4:5e:
                    39:57:68:83:03:2f:f7:2c:c5:2f:fb:4c:04:e1:26:
                    6f:9d:1b:8d:87:b3:e5:f3:ec:20:85:82:db:8e:4a:
                    70:16:d3:c6:08:66:bd:4d:85
                Exponent: 65537 (0x10001)
        X509v3 extensions:
            X509v3 Basic Constraints: 
                CA:FALSE
            Netscape Comment: 
                Easy-RSA Generated Certificate
            X509v3 Subject Key Identifier: 
                7D:08:75:3C:4C:AF:60:B3:41:CB:C0:47:82:73:29:C9:EE:C2:2F:88
            X509v3 Authority Key Identifier: 
                keyid:D7:B0:0C:9A:20:7E:D0:9B:C9:28:03:A1:04:13:C7:AA:C8:A8:AF:CE
                DirName:/C=RU/ST=SAMARSKAYA/L=SAMARA/O=NEOTRAID/CN=NEOTRAID CA/emailAddress=admin@neo63.ru
                serial:B9:41:23:02:DB:46:2A:24

            X509v3 Extended Key Usage: 
                TLS Web Client Authentication
            X509v3 Key Usage: 
                Digital Signature
    Signature Algorithm: sha1WithRSAEncryption
         70:95:1c:bc:a4:19:7d:de:63:f0:7a:bc:7a:f8:c7:95:18:2d:
         b0:de:ba:67:01:5c:eb:cc:61:be:71:54:df:c0:ac:1e:0f:f3:
         98:2d:64:aa:ec:ef:5b:80:93:f1:43:8f:2f:c2:59:32:f5:2c:
         db:37:18:4f:f1:2c:62:a6:bd:4f:ec:cf:cb:ad:01:3c:35:2d:
         92:8f:9c:02:17:c9:c6:e1:ec:9c:9a:ca:06:5a:91:de:75:3d:
         40:ee:ee:59:39:70:0f:03:d0:13:48:b2:a2:44:fe:64:f6:a0:
         c9:23:2a:52:b8:af:c4:9b:e8:60:a6:b2:d5:e0:d7:a0:31:fb:
         4e:a4
-----BEGIN CERTIFICATE-----
MIIDpDCCAw2gAwIBAgIBHTANBgkqhkiG9w0BAQUFADB7MQswCQYDVQQGEwJSVTET
MBEGA1UECBMKU0FNQVJTS0FZQTEPMA0GA1UEBxMGU0FNQVJBMREwDwYDVQQKEwhO
RU9UUkFJRDEUMBIGA1UEAxMLTkVPVFJBSUQgQ0ExHTAbBgkqhkiG9w0BCQEWDmFk
bWluQG5lbzYzLnJ1MB4XDTE3MDMxNjExMzEyN1oXDTI3MDMxNDExMzEyN1owgYEx
CzAJBgNVBAYTAlJVMRMwEQYDVQQIEwpTQU1BUlNLQVlBMQ8wDQYDVQQHEwZTQU1B
UkExETAPBgNVBAoTCE5FT1RSQUlEMRowGAYDVQQDFBFuZWZ0ZWdvcnNrX3BvYmVk
aTEdMBsGCSqGSIb3DQEJARYOYWRtaW5AbmVvNjMucnUwgZ8wDQYJKoZIhvcNAQEB
BQADgY0AMIGJAoGBALg8KfTv9P52Tfv+8fhp03hPaffQgXpEt60Ox9dCPL7k4QXV
qXTLpAy/tMqO+LFZOEXPjSlhCkIN5NIOfwx9Gqx+1WUh6j9bxadSMsuaOdMVyXiD
Cpv07dReOVdogwMv9yzFL/tMBOEmb50bjYez5fPsIIWC245KcBbTxghmvU2FAgMB
AAGjggEvMIIBKzAJBgNVHRMEAjAAMC0GCWCGSAGG+EIBDQQgFh5FYXN5LVJTQSBH
ZW5lcmF0ZWQgQ2VydGlmaWNhdGUwHQYDVR0OBBYEFH0IdTxMr2CzQcvAR4JzKcnu
wi+IMIGtBgNVHSMEgaUwgaKAFNewDJogftCbySgDoQQTx6rIqK/OoX+kfTB7MQsw
CQYDVQQGEwJSVTETMBEGA1UECBMKU0FNQVJTS0FZQTEPMA0GA1UEBxMGU0FNQVJB
MREwDwYDVQQKEwhORU9UUkFJRDEUMBIGA1UEAxMLTkVPVFJBSUQgQ0ExHTAbBgkq
hkiG9w0BCQEWDmFkbWluQG5lbzYzLnJ1ggkAuUEjAttGKiQwEwYDVR0lBAwwCgYI
KwYBBQUHAwIwCwYDVR0PBAQDAgeAMA0GCSqGSIb3DQEBBQUAA4GBAHCVHLykGX3e
Y/B6vHr4x5UYLbDeumcBXOvMYb5xVN/ArB4P85gtZKrs71uAk/FDjy/CWTL1LNs3
GE/xLGKmvU/sz8utATw1LZKPnAIXycbh7JyaygZakd51PUDu7lk5cA8D0BNIsqJE
/mT2oMkjKlK4r8Sb6GCmstXg16Ax+06k
-----END CERTIFICATE-----
