Certificate:
    Data:
        Version: 3 (0x2)
        Serial Number: 30 (0x1e)
    Signature Algorithm: sha1WithRSAEncryption
        Issuer: C=RU, ST=SAMARSKAYA, L=SAMARA, O=NEOTRAID, CN=NEOTRAID CA/emailAddress=admin@neo63.ru
        Validity
            Not Before: Mar 16 12:08:25 2017 GMT
            Not After : Mar 14 12:08:25 2027 GMT
        Subject: C=RU, ST=SAMARSKAYA, L=SAMARA, O=NEOTRAID, CN=kinel_oct/emailAddress=admin@neo63.ru
        Subject Public Key Info:
            Public Key Algorithm: rsaEncryption
                Public-Key: (1024 bit)
                Modulus:
                    00:dd:4e:2d:56:f7:60:b5:a8:61:b4:51:7b:a1:ff:
                    e7:f1:ff:63:5b:a8:5e:f0:bb:39:62:87:7c:bd:68:
                    13:84:4c:30:a4:be:a9:34:d6:1f:ae:ad:50:a5:8d:
                    c6:7c:bb:92:fd:6b:d9:02:48:10:1d:63:21:9f:98:
                    4f:32:f3:51:41:b1:8a:e4:83:e3:76:0e:36:3c:5b:
                    ef:42:65:14:2c:23:a3:31:dc:7d:8f:71:66:36:8e:
                    11:67:d7:b0:03:e6:3e:3d:94:3e:77:f8:ae:98:aa:
                    a7:d1:be:d0:eb:dc:b9:b9:6a:37:43:23:a5:f7:96:
                    a4:00:a8:86:a1:00:b5:0e:31
                Exponent: 65537 (0x10001)
        X509v3 extensions:
            X509v3 Basic Constraints: 
                CA:FALSE
            Netscape Comment: 
                Easy-RSA Generated Certificate
            X509v3 Subject Key Identifier: 
                FB:97:DB:B3:DC:45:A2:4C:83:67:39:A2:CE:55:E5:08:E3:39:20:BE
            X509v3 Authority Key Identifier: 
                keyid:D7:B0:0C:9A:20:7E:D0:9B:C9:28:03:A1:04:13:C7:AA:C8:A8:AF:CE
                DirName:/C=RU/ST=SAMARSKAYA/L=SAMARA/O=NEOTRAID/CN=NEOTRAID CA/emailAddress=admin@neo63.ru
                serial:B9:41:23:02:DB:46:2A:24

            X509v3 Extended Key Usage: 
                TLS Web Client Authentication
            X509v3 Key Usage: 
                Digital Signature
    Signature Algorithm: sha1WithRSAEncryption
         a9:1b:76:54:01:9d:02:b3:6c:5c:33:db:bb:3b:bc:f7:52:bf:
         12:d0:2c:5a:fd:2e:2b:6b:7e:9c:f2:8b:f4:01:0b:49:89:f3:
         26:42:92:b2:34:5b:74:5d:8b:55:96:33:c0:a4:66:73:20:77:
         c1:bc:83:ec:fa:77:b2:12:ea:76:3c:50:8d:7c:91:55:23:e3:
         64:87:a9:7a:e8:8b:cf:d1:c3:de:f1:9e:11:17:87:a8:ce:1f:
         7c:02:59:97:d7:16:4e:b8:27:cc:ab:db:32:f2:66:c8:ba:48:
         29:0a:c6:59:60:9e:21:87:74:55:ca:c8:e1:57:f6:7d:56:08:
         09:31
-----BEGIN CERTIFICATE-----
MIIDmzCCAwSgAwIBAgIBHjANBgkqhkiG9w0BAQUFADB7MQswCQYDVQQGEwJSVTET
MBEGA1UECBMKU0FNQVJTS0FZQTEPMA0GA1UEBxMGU0FNQVJBMREwDwYDVQQKEwhO
RU9UUkFJRDEUMBIGA1UEAxMLTkVPVFJBSUQgQ0ExHTAbBgkqhkiG9w0BCQEWDmFk
bWluQG5lbzYzLnJ1MB4XDTE3MDMxNjEyMDgyNVoXDTI3MDMxNDEyMDgyNVoweTEL
MAkGA1UEBhMCUlUxEzARBgNVBAgTClNBTUFSU0tBWUExDzANBgNVBAcTBlNBTUFS
QTERMA8GA1UEChMITkVPVFJBSUQxEjAQBgNVBAMUCWtpbmVsX29jdDEdMBsGCSqG
SIb3DQEJARYOYWRtaW5AbmVvNjMucnUwgZ8wDQYJKoZIhvcNAQEBBQADgY0AMIGJ
AoGBAN1OLVb3YLWoYbRRe6H/5/H/Y1uoXvC7OWKHfL1oE4RMMKS+qTTWH66tUKWN
xny7kv1r2QJIEB1jIZ+YTzLzUUGxiuSD43YONjxb70JlFCwjozHcfY9xZjaOEWfX
sAPmPj2UPnf4rpiqp9G+0OvcublqN0MjpfeWpACohqEAtQ4xAgMBAAGjggEvMIIB
KzAJBgNVHRMEAjAAMC0GCWCGSAGG+EIBDQQgFh5FYXN5LVJTQSBHZW5lcmF0ZWQg
Q2VydGlmaWNhdGUwHQYDVR0OBBYEFPuX27PcRaJMg2c5os5V5QjjOSC+MIGtBgNV
HSMEgaUwgaKAFNewDJogftCbySgDoQQTx6rIqK/OoX+kfTB7MQswCQYDVQQGEwJS
VTETMBEGA1UECBMKU0FNQVJTS0FZQTEPMA0GA1UEBxMGU0FNQVJBMREwDwYDVQQK
EwhORU9UUkFJRDEUMBIGA1UEAxMLTkVPVFJBSUQgQ0ExHTAbBgkqhkiG9w0BCQEW
DmFkbWluQG5lbzYzLnJ1ggkAuUEjAttGKiQwEwYDVR0lBAwwCgYIKwYBBQUHAwIw
CwYDVR0PBAQDAgeAMA0GCSqGSIb3DQEBBQUAA4GBAKkbdlQBnQKzbFwz27s7vPdS
vxLQLFr9Litrfpzyi/QBC0mJ8yZCkrI0W3Rdi1WWM8CkZnMgd8G8g+z6d7IS6nY8
UI18kVUj42SHqXroi8/Rw97xnhEXh6jOH3wCWZfXFk64J8yr2zLyZsi6SCkKxllg
niGHdFXKyOFX9n1WCAkx
-----END CERTIFICATE-----
