Certificate:
    Data:
        Version: 3 (0x2)
        Serial Number: 32 (0x20)
    Signature Algorithm: sha1WithRSAEncryption
        Issuer: C=RU, ST=SAMARSKAYA, L=SAMARA, O=NEOTRAID, CN=NEOTRAID CA/emailAddress=admin@neo63.ru
        Validity
            Not Before: Apr  4 14:36:11 2017 GMT
            Not After : Apr  2 14:36:11 2027 GMT
        Subject: C=RU, ST=SAMARSKAYA, L=SAMARA, O=NEOTRAID, CN=smr_smishlaevka32/emailAddress=admin@neo63.ru
        Subject Public Key Info:
            Public Key Algorithm: rsaEncryption
                Public-Key: (1024 bit)
                Modulus:
                    00:ab:ee:60:6c:52:14:42:33:17:1c:f9:45:d6:cc:
                    a5:4f:e8:8d:38:c0:19:4b:1f:22:ff:cf:6d:9d:1c:
                    67:6d:98:88:0f:54:08:df:2b:9a:36:d0:04:1e:15:
                    bb:ab:46:d9:36:c8:e3:e3:95:a4:7a:82:a5:7b:8d:
                    7c:93:d7:bd:65:e8:c0:75:49:f4:fd:df:2e:fc:ae:
                    17:c5:e7:f9:89:4f:6b:4d:50:f4:f3:0d:34:11:c0:
                    fd:b0:12:4b:69:18:5d:1d:6e:88:98:fa:e4:f5:49:
                    3c:de:88:e5:0e:45:cb:58:12:b5:a7:c1:80:ad:82:
                    6c:83:03:23:f5:fb:b8:04:7b
                Exponent: 65537 (0x10001)
        X509v3 extensions:
            X509v3 Basic Constraints: 
                CA:FALSE
            Netscape Comment: 
                Easy-RSA Generated Certificate
            X509v3 Subject Key Identifier: 
                62:A8:53:F2:04:F6:25:A9:8E:78:00:8E:AA:EF:B6:F0:C5:45:C6:D7
            X509v3 Authority Key Identifier: 
                keyid:D7:B0:0C:9A:20:7E:D0:9B:C9:28:03:A1:04:13:C7:AA:C8:A8:AF:CE
                DirName:/C=RU/ST=SAMARSKAYA/L=SAMARA/O=NEOTRAID/CN=NEOTRAID CA/emailAddress=admin@neo63.ru
                serial:B9:41:23:02:DB:46:2A:24

            X509v3 Extended Key Usage: 
                TLS Web Client Authentication
            X509v3 Key Usage: 
                Digital Signature
    Signature Algorithm: sha1WithRSAEncryption
         04:5d:d9:b9:36:5a:bd:27:a3:8d:3f:c3:52:7f:8c:61:99:50:
         a9:0d:5a:8f:08:23:54:04:60:53:f2:a3:b2:5c:5d:97:e4:4a:
         e5:c9:e0:c9:e2:30:9f:a9:76:80:10:31:99:64:be:c8:46:35:
         08:41:8e:b6:ae:b6:75:bd:2b:bf:14:11:11:25:a9:0c:bd:3c:
         16:6b:bf:55:9c:3a:85:0a:e8:4a:bc:e4:87:b2:26:cb:ca:0b:
         cd:e2:8e:17:f0:21:23:d9:81:be:34:b5:21:47:db:13:77:e7:
         71:45:0e:b5:0e:66:36:73:94:14:f5:5a:ac:31:1b:cb:42:08:
         be:1c
-----BEGIN CERTIFICATE-----
MIIDpDCCAw2gAwIBAgIBIDANBgkqhkiG9w0BAQUFADB7MQswCQYDVQQGEwJSVTET
MBEGA1UECBMKU0FNQVJTS0FZQTEPMA0GA1UEBxMGU0FNQVJBMREwDwYDVQQKEwhO
RU9UUkFJRDEUMBIGA1UEAxMLTkVPVFJBSUQgQ0ExHTAbBgkqhkiG9w0BCQEWDmFk
bWluQG5lbzYzLnJ1MB4XDTE3MDQwNDE0MzYxMVoXDTI3MDQwMjE0MzYxMVowgYEx
CzAJBgNVBAYTAlJVMRMwEQYDVQQIEwpTQU1BUlNLQVlBMQ8wDQYDVQQHEwZTQU1B
UkExETAPBgNVBAoTCE5FT1RSQUlEMRowGAYDVQQDFBFzbXJfc21pc2hsYWV2a2Ez
MjEdMBsGCSqGSIb3DQEJARYOYWRtaW5AbmVvNjMucnUwgZ8wDQYJKoZIhvcNAQEB
BQADgY0AMIGJAoGBAKvuYGxSFEIzFxz5RdbMpU/ojTjAGUsfIv/PbZ0cZ22YiA9U
CN8rmjbQBB4Vu6tG2TbI4+OVpHqCpXuNfJPXvWXowHVJ9P3fLvyuF8Xn+YlPa01Q
9PMNNBHA/bASS2kYXR1uiJj65PVJPN6I5Q5Fy1gStafBgK2CbIMDI/X7uAR7AgMB
AAGjggEvMIIBKzAJBgNVHRMEAjAAMC0GCWCGSAGG+EIBDQQgFh5FYXN5LVJTQSBH
ZW5lcmF0ZWQgQ2VydGlmaWNhdGUwHQYDVR0OBBYEFGKoU/IE9iWpjngAjqrvtvDF
RcbXMIGtBgNVHSMEgaUwgaKAFNewDJogftCbySgDoQQTx6rIqK/OoX+kfTB7MQsw
CQYDVQQGEwJSVTETMBEGA1UECBMKU0FNQVJTS0FZQTEPMA0GA1UEBxMGU0FNQVJB
MREwDwYDVQQKEwhORU9UUkFJRDEUMBIGA1UEAxMLTkVPVFJBSUQgQ0ExHTAbBgkq
hkiG9w0BCQEWDmFkbWluQG5lbzYzLnJ1ggkAuUEjAttGKiQwEwYDVR0lBAwwCgYI
KwYBBQUHAwIwCwYDVR0PBAQDAgeAMA0GCSqGSIb3DQEBBQUAA4GBAARd2bk2Wr0n
o40/w1J/jGGZUKkNWo8II1QEYFPyo7JcXZfkSuXJ4MniMJ+pdoAQMZlkvshGNQhB
jrautnW9K78UERElqQy9PBZrv1WcOoUK6Eq85IeyJsvKC83ijhfwISPZgb40tSFH
2xN353FFDrUOZjZzlBT1WqwxG8tCCL4c
-----END CERTIFICATE-----
