Certificate:
    Data:
        Version: 3 (0x2)
        Serial Number: 35 (0x23)
    Signature Algorithm: sha1WithRSAEncryption
        Issuer: C=RU, ST=SAMARSKAYA, L=SAMARA, O=NEOTRAID, CN=NEOTRAID CA/emailAddress=admin@neo63.ru
        Validity
            Not Before: Apr 11 06:55:06 2017 GMT
            Not After : Apr  9 06:55:06 2027 GMT
        Subject: C=RU, ST=SAMARSKAYA, L=SAMARA, O=NEOTRAID, CN=smr_kuybisheva/emailAddress=admin@neo63.ru
        Subject Public Key Info:
            Public Key Algorithm: rsaEncryption
                Public-Key: (1024 bit)
                Modulus:
                    00:c4:00:8d:6f:fa:68:90:d4:d8:f9:0e:74:fd:50:
                    39:47:c8:48:6b:49:23:a5:13:24:32:d7:c2:13:94:
                    be:4f:a2:b5:02:b3:82:86:c5:b7:3e:49:15:70:83:
                    0a:17:51:50:0a:ac:1a:3a:a8:43:fb:0a:71:89:de:
                    a3:c3:d4:e8:19:95:9b:20:01:79:af:b0:5c:76:3d:
                    20:8b:57:fc:33:72:68:93:45:98:c0:4d:a9:a4:ef:
                    c0:cd:44:8c:83:ba:1f:81:7c:d8:23:1e:63:a1:af:
                    3a:1d:d1:43:42:3f:02:21:45:b5:03:db:db:10:87:
                    8b:ff:e7:1c:47:3f:9e:8a:d1
                Exponent: 65537 (0x10001)
        X509v3 extensions:
            X509v3 Basic Constraints: 
                CA:FALSE
            Netscape Comment: 
                Easy-RSA Generated Certificate
            X509v3 Subject Key Identifier: 
                A1:73:0B:B9:9D:E0:87:8B:9A:2C:AD:99:B2:AF:10:2B:7F:4D:95:FB
            X509v3 Authority Key Identifier: 
                keyid:D7:B0:0C:9A:20:7E:D0:9B:C9:28:03:A1:04:13:C7:AA:C8:A8:AF:CE
                DirName:/C=RU/ST=SAMARSKAYA/L=SAMARA/O=NEOTRAID/CN=NEOTRAID CA/emailAddress=admin@neo63.ru
                serial:B9:41:23:02:DB:46:2A:24

            X509v3 Extended Key Usage: 
                TLS Web Client Authentication
            X509v3 Key Usage: 
                Digital Signature
    Signature Algorithm: sha1WithRSAEncryption
         2f:fe:af:aa:09:0e:29:68:9e:86:fe:b1:87:b8:80:bf:82:2e:
         0a:8a:73:89:c6:bf:48:e6:4c:e5:6b:6f:db:0e:03:b1:c6:c7:
         3f:80:50:cf:a8:30:81:2f:33:d5:a8:ec:b5:73:89:9d:5f:e3:
         e2:c1:40:5b:fd:61:42:17:36:3a:ff:d8:90:f2:ad:a7:3b:29:
         42:ca:72:d5:67:af:f1:66:86:58:0d:b7:70:aa:27:ef:88:dc:
         eb:c5:32:c8:28:03:81:e8:4b:c7:56:82:3c:de:8e:30:d6:99:
         06:c9:70:13:22:c4:1c:01:84:24:29:3d:60:99:38:a3:fe:3d:
         13:75
-----BEGIN CERTIFICATE-----
MIIDoDCCAwmgAwIBAgIBIzANBgkqhkiG9w0BAQUFADB7MQswCQYDVQQGEwJSVTET
MBEGA1UECBMKU0FNQVJTS0FZQTEPMA0GA1UEBxMGU0FNQVJBMREwDwYDVQQKEwhO
RU9UUkFJRDEUMBIGA1UEAxMLTkVPVFJBSUQgQ0ExHTAbBgkqhkiG9w0BCQEWDmFk
bWluQG5lbzYzLnJ1MB4XDTE3MDQxMTA2NTUwNloXDTI3MDQwOTA2NTUwNlowfjEL
MAkGA1UEBhMCUlUxEzARBgNVBAgTClNBTUFSU0tBWUExDzANBgNVBAcTBlNBTUFS
QTERMA8GA1UEChMITkVPVFJBSUQxFzAVBgNVBAMUDnNtcl9rdXliaXNoZXZhMR0w
GwYJKoZIhvcNAQkBFg5hZG1pbkBuZW82My5ydTCBnzANBgkqhkiG9w0BAQEFAAOB
jQAwgYkCgYEAxACNb/pokNTY+Q50/VA5R8hIa0kjpRMkMtfCE5S+T6K1ArOChsW3
PkkVcIMKF1FQCqwaOqhD+wpxid6jw9ToGZWbIAF5r7Bcdj0gi1f8M3Jok0WYwE2p
pO/AzUSMg7ofgXzYIx5joa86HdFDQj8CIUW1A9vbEIeL/+ccRz+eitECAwEAAaOC
AS8wggErMAkGA1UdEwQCMAAwLQYJYIZIAYb4QgENBCAWHkVhc3ktUlNBIEdlbmVy
YXRlZCBDZXJ0aWZpY2F0ZTAdBgNVHQ4EFgQUoXMLuZ3gh4uaLK2Zsq8QK39Nlfsw
ga0GA1UdIwSBpTCBooAU17AMmiB+0JvJKAOhBBPHqsior86hf6R9MHsxCzAJBgNV
BAYTAlJVMRMwEQYDVQQIEwpTQU1BUlNLQVlBMQ8wDQYDVQQHEwZTQU1BUkExETAP
BgNVBAoTCE5FT1RSQUlEMRQwEgYDVQQDEwtORU9UUkFJRCBDQTEdMBsGCSqGSIb3
DQEJARYOYWRtaW5AbmVvNjMucnWCCQC5QSMC20YqJDATBgNVHSUEDDAKBggrBgEF
BQcDAjALBgNVHQ8EBAMCB4AwDQYJKoZIhvcNAQEFBQADgYEAL/6vqgkOKWiehv6x
h7iAv4IuCopzica/SOZM5Wtv2w4DscbHP4BQz6gwgS8z1ajstXOJnV/j4sFAW/1h
Qhc2Ov/YkPKtpzspQspy1Wev8WaGWA23cKon74jc68UyyCgDgehLx1aCPN6OMNaZ
BslwEyLEHAGEJCk9YJk4o/49E3U=
-----END CERTIFICATE-----
