Certificate:
    Data:
        Version: 3 (0x2)
        Serial Number: 36 (0x24)
    Signature Algorithm: sha1WithRSAEncryption
        Issuer: C=RU, ST=SAMARSKAYA, L=SAMARA, O=NEOTRAID, CN=NEOTRAID CA/emailAddress=admin@neo63.ru
        Validity
            Not Before: Apr 12 07:17:47 2017 GMT
            Not After : Apr 10 07:17:47 2027 GMT
        Subject: C=RU, ST=SAMARSKAYA, L=SAMARA, O=NEOTRAID, CN=smr_standartnaya/emailAddress=admin@neo63.ru
        Subject Public Key Info:
            Public Key Algorithm: rsaEncryption
                Public-Key: (1024 bit)
                Modulus:
                    00:c3:f5:c9:53:e2:86:19:fc:ba:32:48:45:1c:33:
                    bb:69:1b:a9:66:2b:0f:a7:1c:84:6a:9f:44:af:68:
                    30:06:91:73:2b:bb:64:3c:bc:54:67:ec:8d:4f:2a:
                    9b:90:b5:68:c3:cd:e5:31:f8:2d:4f:dd:38:dd:30:
                    89:33:a0:80:09:f6:7c:fb:9d:f4:fd:1b:1f:19:56:
                    ce:4c:02:0a:3c:ff:d7:f0:85:97:f8:e9:c5:cf:4d:
                    b5:c0:0d:c4:ed:3e:d9:8d:31:1e:5c:75:99:01:1b:
                    73:77:9f:56:5e:2c:5a:43:ef:3e:ac:95:fb:66:2e:
                    aa:34:1a:1f:76:1d:ea:b9:d5
                Exponent: 65537 (0x10001)
        X509v3 extensions:
            X509v3 Basic Constraints: 
                CA:FALSE
            Netscape Comment: 
                Easy-RSA Generated Certificate
            X509v3 Subject Key Identifier: 
                4F:28:26:8B:D1:FF:29:09:B4:ED:A5:6C:B9:9D:D3:9B:51:C1:50:73
            X509v3 Authority Key Identifier: 
                keyid:D7:B0:0C:9A:20:7E:D0:9B:C9:28:03:A1:04:13:C7:AA:C8:A8:AF:CE
                DirName:/C=RU/ST=SAMARSKAYA/L=SAMARA/O=NEOTRAID/CN=NEOTRAID CA/emailAddress=admin@neo63.ru
                serial:B9:41:23:02:DB:46:2A:24

            X509v3 Extended Key Usage: 
                TLS Web Client Authentication
            X509v3 Key Usage: 
                Digital Signature
    Signature Algorithm: sha1WithRSAEncryption
         a9:47:1b:74:61:14:c3:c7:74:fa:67:23:60:64:d6:11:b2:99:
         14:b4:21:9d:73:83:5c:0d:1e:7d:53:81:fd:2a:8a:61:36:3c:
         28:16:35:78:22:e1:5d:9c:51:16:bd:93:70:33:7b:03:09:a7:
         c6:56:12:2f:bf:d1:4b:a6:c8:2c:e8:8a:de:a3:fe:9b:fb:44:
         d2:53:bd:02:d3:21:74:43:07:de:6f:ee:e4:f1:bc:53:7a:ff:
         7d:0e:0d:76:7f:35:04:24:e5:7e:57:aa:6a:0c:aa:e2:47:8f:
         da:53:1f:b1:82:ed:14:23:1d:48:29:bc:c2:71:cc:fd:8a:28:
         26:76
-----BEGIN CERTIFICATE-----
MIIDozCCAwygAwIBAgIBJDANBgkqhkiG9w0BAQUFADB7MQswCQYDVQQGEwJSVTET
MBEGA1UECBMKU0FNQVJTS0FZQTEPMA0GA1UEBxMGU0FNQVJBMREwDwYDVQQKEwhO
RU9UUkFJRDEUMBIGA1UEAxMLTkVPVFJBSUQgQ0ExHTAbBgkqhkiG9w0BCQEWDmFk
bWluQG5lbzYzLnJ1MB4XDTE3MDQxMjA3MTc0N1oXDTI3MDQxMDA3MTc0N1owgYAx
CzAJBgNVBAYTAlJVMRMwEQYDVQQIEwpTQU1BUlNLQVlBMQ8wDQYDVQQHEwZTQU1B
UkExETAPBgNVBAoTCE5FT1RSQUlEMRkwFwYDVQQDFBBzbXJfc3RhbmRhcnRuYXlh
MR0wGwYJKoZIhvcNAQkBFg5hZG1pbkBuZW82My5ydTCBnzANBgkqhkiG9w0BAQEF
AAOBjQAwgYkCgYEAw/XJU+KGGfy6MkhFHDO7aRupZisPpxyEap9Er2gwBpFzK7tk
PLxUZ+yNTyqbkLVow83lMfgtT9043TCJM6CACfZ8+530/RsfGVbOTAIKPP/X8IWX
+OnFz021wA3E7T7ZjTEeXHWZARtzd59WXixaQ+8+rJX7Zi6qNBofdh3qudUCAwEA
AaOCAS8wggErMAkGA1UdEwQCMAAwLQYJYIZIAYb4QgENBCAWHkVhc3ktUlNBIEdl
bmVyYXRlZCBDZXJ0aWZpY2F0ZTAdBgNVHQ4EFgQUTygmi9H/KQm07aVsuZ3Tm1HB
UHMwga0GA1UdIwSBpTCBooAU17AMmiB+0JvJKAOhBBPHqsior86hf6R9MHsxCzAJ
BgNVBAYTAlJVMRMwEQYDVQQIEwpTQU1BUlNLQVlBMQ8wDQYDVQQHEwZTQU1BUkEx
ETAPBgNVBAoTCE5FT1RSQUlEMRQwEgYDVQQDEwtORU9UUkFJRCBDQTEdMBsGCSqG
SIb3DQEJARYOYWRtaW5AbmVvNjMucnWCCQC5QSMC20YqJDATBgNVHSUEDDAKBggr
BgEFBQcDAjALBgNVHQ8EBAMCB4AwDQYJKoZIhvcNAQEFBQADgYEAqUcbdGEUw8d0
+mcjYGTWEbKZFLQhnXODXA0efVOB/SqKYTY8KBY1eCLhXZxRFr2TcDN7AwmnxlYS
L7/RS6bILOiK3qP+m/tE0lO9AtMhdEMH3m/u5PG8U3r/fQ4Ndn81BCTlfleqagyq
4keP2lMfsYLtFCMdSCm8wnHM/YooJnY=
-----END CERTIFICATE-----
