Certificate:
    Data:
        Version: 3 (0x2)
        Serial Number: 37 (0x25)
    Signature Algorithm: sha1WithRSAEncryption
        Issuer: C=RU, ST=SAMARSKAYA, L=SAMARA, O=NEOTRAID, CN=NEOTRAID CA/emailAddress=admin@neo63.ru
        Validity
            Not Before: Apr 13 13:38:11 2017 GMT
            Not After : Apr 11 13:38:11 2027 GMT
        Subject: C=RU, ST=SAMARSKAYA, L=SAMARA, O=NEOTRAID, CN=smr_vrubelya/emailAddress=admin@neo63.ru
        Subject Public Key Info:
            Public Key Algorithm: rsaEncryption
                Public-Key: (1024 bit)
                Modulus:
                    00:c9:73:9c:a1:c7:c6:78:d4:59:a2:22:33:ab:d6:
                    67:a9:8d:ed:4e:35:42:ab:93:0d:80:82:3c:50:63:
                    62:81:09:2f:83:da:ee:b5:dc:a6:4a:c8:92:6e:4f:
                    76:f9:ae:f4:12:00:e4:90:b4:07:de:ea:92:a9:f1:
                    1e:b6:3b:42:e8:84:10:71:ee:5d:1e:65:b1:42:e8:
                    44:2c:4b:53:6f:4e:2d:22:c1:b4:3d:c4:34:54:5e:
                    29:b8:e6:63:13:07:97:75:68:cf:1d:f1:1e:4b:61:
                    4e:7a:62:df:7c:af:8a:69:a9:3b:d1:85:18:7b:6b:
                    0b:2c:9c:e7:ff:e4:31:4f:77
                Exponent: 65537 (0x10001)
        X509v3 extensions:
            X509v3 Basic Constraints: 
                CA:FALSE
            Netscape Comment: 
                Easy-RSA Generated Certificate
            X509v3 Subject Key Identifier: 
                C0:C0:88:FE:66:94:AE:3F:05:6C:AF:3E:D6:C7:ED:0F:A6:52:8E:50
            X509v3 Authority Key Identifier: 
                keyid:D7:B0:0C:9A:20:7E:D0:9B:C9:28:03:A1:04:13:C7:AA:C8:A8:AF:CE
                DirName:/C=RU/ST=SAMARSKAYA/L=SAMARA/O=NEOTRAID/CN=NEOTRAID CA/emailAddress=admin@neo63.ru
                serial:B9:41:23:02:DB:46:2A:24

            X509v3 Extended Key Usage: 
                TLS Web Client Authentication
            X509v3 Key Usage: 
                Digital Signature
    Signature Algorithm: sha1WithRSAEncryption
         0c:96:11:b6:92:2e:59:35:5a:ed:d0:e1:54:88:be:3c:6c:de:
         98:e4:77:c4:c8:80:99:c3:46:a8:94:40:ac:ac:97:ae:b0:38:
         6c:5e:41:e4:9f:bd:c5:78:5c:91:03:eb:be:a0:e5:3b:4d:67:
         11:87:91:25:43:2f:80:c7:66:5b:15:a2:2e:a3:ce:a1:f4:43:
         7b:f8:18:a2:c6:ef:6f:d7:5c:d6:c2:a6:68:71:d2:fc:6b:dd:
         5c:6f:87:36:fa:53:5c:d9:ec:3d:3d:dd:fa:10:a9:f3:64:f2:
         9d:be:2c:94:9d:68:5e:f5:ac:af:22:d0:61:71:f5:0c:ae:d9:
         f4:b0
-----BEGIN CERTIFICATE-----
MIIDnjCCAwegAwIBAgIBJTANBgkqhkiG9w0BAQUFADB7MQswCQYDVQQGEwJSVTET
MBEGA1UECBMKU0FNQVJTS0FZQTEPMA0GA1UEBxMGU0FNQVJBMREwDwYDVQQKEwhO
RU9UUkFJRDEUMBIGA1UEAxMLTkVPVFJBSUQgQ0ExHTAbBgkqhkiG9w0BCQEWDmFk
bWluQG5lbzYzLnJ1MB4XDTE3MDQxMzEzMzgxMVoXDTI3MDQxMTEzMzgxMVowfDEL
MAkGA1UEBhMCUlUxEzARBgNVBAgTClNBTUFSU0tBWUExDzANBgNVBAcTBlNBTUFS
QTERMA8GA1UEChMITkVPVFJBSUQxFTATBgNVBAMUDHNtcl92cnViZWx5YTEdMBsG
CSqGSIb3DQEJARYOYWRtaW5AbmVvNjMucnUwgZ8wDQYJKoZIhvcNAQEBBQADgY0A
MIGJAoGBAMlznKHHxnjUWaIiM6vWZ6mN7U41QquTDYCCPFBjYoEJL4Pa7rXcpkrI
km5Pdvmu9BIA5JC0B97qkqnxHrY7QuiEEHHuXR5lsULoRCxLU29OLSLBtD3ENFRe
KbjmYxMHl3Vozx3xHkthTnpi33yvimmpO9GFGHtrCyyc5//kMU93AgMBAAGjggEv
MIIBKzAJBgNVHRMEAjAAMC0GCWCGSAGG+EIBDQQgFh5FYXN5LVJTQSBHZW5lcmF0
ZWQgQ2VydGlmaWNhdGUwHQYDVR0OBBYEFMDAiP5mlK4/BWyvPtbH7Q+mUo5QMIGt
BgNVHSMEgaUwgaKAFNewDJogftCbySgDoQQTx6rIqK/OoX+kfTB7MQswCQYDVQQG
EwJSVTETMBEGA1UECBMKU0FNQVJTS0FZQTEPMA0GA1UEBxMGU0FNQVJBMREwDwYD
VQQKEwhORU9UUkFJRDEUMBIGA1UEAxMLTkVPVFJBSUQgQ0ExHTAbBgkqhkiG9w0B
CQEWDmFkbWluQG5lbzYzLnJ1ggkAuUEjAttGKiQwEwYDVR0lBAwwCgYIKwYBBQUH
AwIwCwYDVR0PBAQDAgeAMA0GCSqGSIb3DQEBBQUAA4GBAAyWEbaSLlk1Wu3Q4VSI
vjxs3pjkd8TIgJnDRqiUQKysl66wOGxeQeSfvcV4XJED676g5TtNZxGHkSVDL4DH
ZlsVoi6jzqH0Q3v4GKLG72/XXNbCpmhx0vxr3Vxvhzb6U1zZ7D093foQqfNk8p2+
LJSdaF71rK8i0GFx9Qyu2fSw
-----END CERTIFICATE-----
