Certificate:
    Data:
        Version: 3 (0x2)
        Serial Number: 40 (0x28)
    Signature Algorithm: sha1WithRSAEncryption
        Issuer: C=RU, ST=SAMARSKAYA, L=SAMARA, O=NEOTRAID, CN=NEOTRAID CA/emailAddress=admin@neo63.ru
        Validity
            Not Before: Apr 25 13:16:38 2017 GMT
            Not After : Apr 23 13:16:38 2027 GMT
        Subject: C=RU, ST=SAMARSKAYA, L=SAMARA, O=NEOTRAID, CN=pestravka/emailAddress=admin@neo63.ru
        Subject Public Key Info:
            Public Key Algorithm: rsaEncryption
                Public-Key: (1024 bit)
                Modulus:
                    00:bb:49:01:71:0a:ee:53:ac:ee:4d:af:52:e0:64:
                    f3:0a:11:ce:7f:12:8e:7d:a7:a9:ca:22:78:20:b4:
                    d1:f8:93:8b:cc:19:b2:91:96:49:a5:7c:be:11:37:
                    c0:35:5a:47:85:a9:fd:71:18:18:8d:37:b1:fb:08:
                    00:83:ca:5a:b2:c5:34:13:92:26:ae:e4:d6:ed:4d:
                    02:40:79:58:59:4c:d7:d9:11:57:ba:b6:eb:3c:c2:
                    b6:02:13:6e:c7:ae:8c:b5:22:28:f9:73:fd:4f:0c:
                    be:03:fa:49:cc:54:cf:c1:0b:5f:0a:a2:d1:3a:7b:
                    0d:a1:54:c0:1d:d9:2a:5f:ad
                Exponent: 65537 (0x10001)
        X509v3 extensions:
            X509v3 Basic Constraints: 
                CA:FALSE
            Netscape Comment: 
                Easy-RSA Generated Certificate
            X509v3 Subject Key Identifier: 
                6F:2B:E8:A5:10:51:F8:FB:78:A0:C1:EB:17:7F:96:40:FE:5E:FF:08
            X509v3 Authority Key Identifier: 
                keyid:D7:B0:0C:9A:20:7E:D0:9B:C9:28:03:A1:04:13:C7:AA:C8:A8:AF:CE
                DirName:/C=RU/ST=SAMARSKAYA/L=SAMARA/O=NEOTRAID/CN=NEOTRAID CA/emailAddress=admin@neo63.ru
                serial:B9:41:23:02:DB:46:2A:24

            X509v3 Extended Key Usage: 
                TLS Web Client Authentication
            X509v3 Key Usage: 
                Digital Signature
    Signature Algorithm: sha1WithRSAEncryption
         56:e9:b9:07:d2:89:01:e0:ac:9a:19:c9:2e:3d:23:b6:46:88:
         d1:7e:44:f0:ce:eb:ee:55:5f:d6:48:b9:29:e4:10:f5:1e:87:
         60:2d:3f:61:49:d4:6d:11:e8:e3:6f:2f:ae:07:b7:f4:69:70:
         9e:eb:d2:d8:80:16:42:c3:a3:be:ed:0c:80:2c:a8:e4:0d:69:
         17:8f:72:5f:2e:41:0f:a1:0f:20:2c:2b:a0:84:e8:d4:7d:f1:
         1a:51:8a:bb:0d:af:7b:a8:5f:52:02:0f:f9:0e:3f:16:5b:37:
         1a:41:d1:52:64:c9:5f:d8:e4:d3:0f:e2:54:f4:2f:dd:94:71:
         e0:c8
-----BEGIN CERTIFICATE-----
MIIDmzCCAwSgAwIBAgIBKDANBgkqhkiG9w0BAQUFADB7MQswCQYDVQQGEwJSVTET
MBEGA1UECBMKU0FNQVJTS0FZQTEPMA0GA1UEBxMGU0FNQVJBMREwDwYDVQQKEwhO
RU9UUkFJRDEUMBIGA1UEAxMLTkVPVFJBSUQgQ0ExHTAbBgkqhkiG9w0BCQEWDmFk
bWluQG5lbzYzLnJ1MB4XDTE3MDQyNTEzMTYzOFoXDTI3MDQyMzEzMTYzOFoweTEL
MAkGA1UEBhMCUlUxEzARBgNVBAgTClNBTUFSU0tBWUExDzANBgNVBAcTBlNBTUFS
QTERMA8GA1UEChMITkVPVFJBSUQxEjAQBgNVBAMTCXBlc3RyYXZrYTEdMBsGCSqG
SIb3DQEJARYOYWRtaW5AbmVvNjMucnUwgZ8wDQYJKoZIhvcNAQEBBQADgY0AMIGJ
AoGBALtJAXEK7lOs7k2vUuBk8woRzn8Sjn2nqcoieCC00fiTi8wZspGWSaV8vhE3
wDVaR4Wp/XEYGI03sfsIAIPKWrLFNBOSJq7k1u1NAkB5WFlM19kRV7q26zzCtgIT
bseujLUiKPlz/U8MvgP6ScxUz8ELXwqi0Tp7DaFUwB3ZKl+tAgMBAAGjggEvMIIB
KzAJBgNVHRMEAjAAMC0GCWCGSAGG+EIBDQQgFh5FYXN5LVJTQSBHZW5lcmF0ZWQg
Q2VydGlmaWNhdGUwHQYDVR0OBBYEFG8r6KUQUfj7eKDB6xd/lkD+Xv8IMIGtBgNV
HSMEgaUwgaKAFNewDJogftCbySgDoQQTx6rIqK/OoX+kfTB7MQswCQYDVQQGEwJS
VTETMBEGA1UECBMKU0FNQVJTS0FZQTEPMA0GA1UEBxMGU0FNQVJBMREwDwYDVQQK
EwhORU9UUkFJRDEUMBIGA1UEAxMLTkVPVFJBSUQgQ0ExHTAbBgkqhkiG9w0BCQEW
DmFkbWluQG5lbzYzLnJ1ggkAuUEjAttGKiQwEwYDVR0lBAwwCgYIKwYBBQUHAwIw
CwYDVR0PBAQDAgeAMA0GCSqGSIb3DQEBBQUAA4GBAFbpuQfSiQHgrJoZyS49I7ZG
iNF+RPDO6+5VX9ZIuSnkEPUeh2AtP2FJ1G0R6ONvL64Ht/RpcJ7r0tiAFkLDo77t
DIAsqOQNaRePcl8uQQ+hDyAsK6CE6NR98RpRirsNr3uoX1ICD/kOPxZbNxpB0VJk
yV/Y5NMP4lT0L92UceDI
-----END CERTIFICATE-----
