Certificate:
    Data:
        Version: 3 (0x2)
        Serial Number: 44 (0x2c)
    Signature Algorithm: sha1WithRSAEncryption
        Issuer: C=RU, ST=SAMARSKAYA, L=SAMARA, O=NEOTRAID, CN=NEOTRAID CA/emailAddress=admin@neo63.ru
        Validity
            Not Before: Jul 10 05:14:50 2017 GMT
            Not After : Jul  8 05:14:50 2027 GMT
        Subject: C=RU, ST=SAMARSKAYA, L=SAMARA, O=NEOTRAID, CN=smr_buyanova/emailAddress=admin@neo63.ru
        Subject Public Key Info:
            Public Key Algorithm: rsaEncryption
                Public-Key: (1024 bit)
                Modulus:
                    00:ad:40:54:89:4f:b2:8f:b6:e7:fb:7a:bb:78:5a:
                    53:72:d6:a1:07:2e:8a:ef:01:ba:62:f6:da:06:75:
                    99:96:37:d2:17:9e:75:54:cb:60:b3:f0:ea:42:e7:
                    27:e2:ff:5b:fe:03:71:7f:aa:2d:58:90:b9:44:7e:
                    43:40:99:0a:14:40:26:16:ec:57:61:4d:f4:d3:68:
                    8d:4b:a2:0c:68:b7:7f:4f:86:bf:c5:48:8a:68:c4:
                    d0:6f:1b:79:c5:07:8f:f8:e1:31:23:36:b4:b9:f0:
                    4c:f9:24:93:e1:89:c6:43:9c:da:23:a1:9a:fa:65:
                    55:b2:35:20:a6:99:65:64:47
                Exponent: 65537 (0x10001)
        X509v3 extensions:
            X509v3 Basic Constraints: 
                CA:FALSE
            Netscape Comment: 
                Easy-RSA Generated Certificate
            X509v3 Subject Key Identifier: 
                AA:6F:B8:26:DC:45:93:45:29:45:FB:EB:2A:E7:E5:5E:0A:7E:4C:BD
            X509v3 Authority Key Identifier: 
                keyid:D7:B0:0C:9A:20:7E:D0:9B:C9:28:03:A1:04:13:C7:AA:C8:A8:AF:CE
                DirName:/C=RU/ST=SAMARSKAYA/L=SAMARA/O=NEOTRAID/CN=NEOTRAID CA/emailAddress=admin@neo63.ru
                serial:B9:41:23:02:DB:46:2A:24

            X509v3 Extended Key Usage: 
                TLS Web Client Authentication
            X509v3 Key Usage: 
                Digital Signature
    Signature Algorithm: sha1WithRSAEncryption
         a7:33:1d:6b:a2:c4:06:7d:20:99:be:7f:eb:97:f8:4e:a9:e7:
         5f:20:a1:c4:33:22:e5:57:6d:c0:df:eb:0e:65:0a:f4:34:bd:
         eb:4f:8e:51:28:9e:76:a7:99:d9:e2:3b:43:4b:44:72:20:8a:
         ac:a5:66:b4:4b:1e:6a:8e:a8:58:56:48:c3:45:c4:5f:15:09:
         2e:f4:40:8e:af:0f:3a:79:d1:bb:de:8f:0b:da:aa:d0:53:74:
         c0:fe:8d:62:58:01:29:4b:6b:62:27:f4:ee:63:97:c2:65:11:
         9e:a4:95:26:c7:42:73:97:64:ba:57:94:27:40:fa:35:12:8d:
         60:39
-----BEGIN CERTIFICATE-----
MIIDnjCCAwegAwIBAgIBLDANBgkqhkiG9w0BAQUFADB7MQswCQYDVQQGEwJSVTET
MBEGA1UECBMKU0FNQVJTS0FZQTEPMA0GA1UEBxMGU0FNQVJBMREwDwYDVQQKEwhO
RU9UUkFJRDEUMBIGA1UEAxMLTkVPVFJBSUQgQ0ExHTAbBgkqhkiG9w0BCQEWDmFk
bWluQG5lbzYzLnJ1MB4XDTE3MDcxMDA1MTQ1MFoXDTI3MDcwODA1MTQ1MFowfDEL
MAkGA1UEBhMCUlUxEzARBgNVBAgTClNBTUFSU0tBWUExDzANBgNVBAcTBlNBTUFS
QTERMA8GA1UEChMITkVPVFJBSUQxFTATBgNVBAMUDHNtcl9idXlhbm92YTEdMBsG
CSqGSIb3DQEJARYOYWRtaW5AbmVvNjMucnUwgZ8wDQYJKoZIhvcNAQEBBQADgY0A
MIGJAoGBAK1AVIlPso+25/t6u3haU3LWoQcuiu8BumL22gZ1mZY30heedVTLYLPw
6kLnJ+L/W/4DcX+qLViQuUR+Q0CZChRAJhbsV2FN9NNojUuiDGi3f0+Gv8VIimjE
0G8becUHj/jhMSM2tLnwTPkkk+GJxkOc2iOhmvplVbI1IKaZZWRHAgMBAAGjggEv
MIIBKzAJBgNVHRMEAjAAMC0GCWCGSAGG+EIBDQQgFh5FYXN5LVJTQSBHZW5lcmF0
ZWQgQ2VydGlmaWNhdGUwHQYDVR0OBBYEFKpvuCbcRZNFKUX76yrn5V4Kfky9MIGt
BgNVHSMEgaUwgaKAFNewDJogftCbySgDoQQTx6rIqK/OoX+kfTB7MQswCQYDVQQG
EwJSVTETMBEGA1UECBMKU0FNQVJTS0FZQTEPMA0GA1UEBxMGU0FNQVJBMREwDwYD
VQQKEwhORU9UUkFJRDEUMBIGA1UEAxMLTkVPVFJBSUQgQ0ExHTAbBgkqhkiG9w0B
CQEWDmFkbWluQG5lbzYzLnJ1ggkAuUEjAttGKiQwEwYDVR0lBAwwCgYIKwYBBQUH
AwIwCwYDVR0PBAQDAgeAMA0GCSqGSIb3DQEBBQUAA4GBAKczHWuixAZ9IJm+f+uX
+E6p518gocQzIuVXbcDf6w5lCvQ0vetPjlEonnanmdniO0NLRHIgiqylZrRLHmqO
qFhWSMNFxF8VCS70QI6vDzp50bvejwvaqtBTdMD+jWJYASlLa2In9O5jl8JlEZ6k
lSbHQnOXZLpXlCdA+jUSjWA5
-----END CERTIFICATE-----
