Certificate:
    Data:
        Version: 3 (0x2)
        Serial Number: 45 (0x2d)
    Signature Algorithm: sha1WithRSAEncryption
        Issuer: C=RU, ST=SAMARSKAYA, L=SAMARA, O=NEOTRAID, CN=NEOTRAID CA/emailAddress=admin@neo63.ru
        Validity
            Not Before: Jul 24 06:54:14 2017 GMT
            Not After : Jul 22 06:54:14 2027 GMT
        Subject: C=RU, ST=SAMARSKAYA, L=SAMARA, O=NEOTRAID, CN=pribrezhniy/emailAddress=admin@neo63.ru
        Subject Public Key Info:
            Public Key Algorithm: rsaEncryption
                Public-Key: (1024 bit)
                Modulus:
                    00:e2:66:40:be:3b:48:5f:20:69:33:11:6d:51:16:
                    c8:5e:82:0c:d2:24:5b:17:27:3d:ea:9b:a0:ab:05:
                    92:55:4b:f7:68:b2:0d:46:60:99:ab:c6:9d:e5:e1:
                    94:5c:35:58:46:b5:da:68:61:d5:c2:9c:4b:2e:2f:
                    c1:30:0d:e4:4d:15:3f:ef:bb:09:cd:88:be:08:2c:
                    51:1a:9a:36:bf:ef:15:57:6b:36:5a:70:d9:8a:bd:
                    a3:14:8a:1d:a8:4f:c4:56:74:4d:43:d1:74:42:35:
                    45:42:af:70:f1:01:5c:1c:22:a7:57:9b:94:82:0e:
                    6a:91:fc:a6:88:c6:32:b2:25
                Exponent: 65537 (0x10001)
        X509v3 extensions:
            X509v3 Basic Constraints: 
                CA:FALSE
            Netscape Comment: 
                Easy-RSA Generated Certificate
            X509v3 Subject Key Identifier: 
                CD:32:E7:D8:B7:1F:6B:EE:97:18:F6:03:63:90:9A:6A:69:E1:6A:5E
            X509v3 Authority Key Identifier: 
                keyid:D7:B0:0C:9A:20:7E:D0:9B:C9:28:03:A1:04:13:C7:AA:C8:A8:AF:CE
                DirName:/C=RU/ST=SAMARSKAYA/L=SAMARA/O=NEOTRAID/CN=NEOTRAID CA/emailAddress=admin@neo63.ru
                serial:B9:41:23:02:DB:46:2A:24

            X509v3 Extended Key Usage: 
                TLS Web Client Authentication
            X509v3 Key Usage: 
                Digital Signature
    Signature Algorithm: sha1WithRSAEncryption
         6c:9c:d8:23:98:ae:ad:8f:da:8b:2e:ba:2f:20:27:0c:bf:38:
         18:3d:1e:16:3e:c3:c3:19:f3:d8:0f:aa:c9:fc:42:75:a2:3e:
         ea:ac:3a:26:45:25:5b:ce:0b:0d:09:0f:c8:20:fc:62:24:c5:
         14:d5:5d:cf:87:75:0a:a0:55:c1:75:a4:a6:02:54:a9:95:49:
         c9:bb:f4:eb:e0:23:96:e3:e8:67:d0:cf:f9:57:48:c0:0c:7a:
         df:82:9d:7d:5a:87:6e:0a:22:14:59:ba:79:7b:e6:d3:b4:8a:
         1d:2f:e9:e1:1d:10:e8:6f:59:e1:69:03:24:17:a4:7e:63:95:
         50:a1
-----BEGIN CERTIFICATE-----
MIIDnTCCAwagAwIBAgIBLTANBgkqhkiG9w0BAQUFADB7MQswCQYDVQQGEwJSVTET
MBEGA1UECBMKU0FNQVJTS0FZQTEPMA0GA1UEBxMGU0FNQVJBMREwDwYDVQQKEwhO
RU9UUkFJRDEUMBIGA1UEAxMLTkVPVFJBSUQgQ0ExHTAbBgkqhkiG9w0BCQEWDmFk
bWluQG5lbzYzLnJ1MB4XDTE3MDcyNDA2NTQxNFoXDTI3MDcyMjA2NTQxNFowezEL
MAkGA1UEBhMCUlUxEzARBgNVBAgTClNBTUFSU0tBWUExDzANBgNVBAcTBlNBTUFS
QTERMA8GA1UEChMITkVPVFJBSUQxFDASBgNVBAMTC3ByaWJyZXpobml5MR0wGwYJ
KoZIhvcNAQkBFg5hZG1pbkBuZW82My5ydTCBnzANBgkqhkiG9w0BAQEFAAOBjQAw
gYkCgYEA4mZAvjtIXyBpMxFtURbIXoIM0iRbFyc96pugqwWSVUv3aLINRmCZq8ad
5eGUXDVYRrXaaGHVwpxLLi/BMA3kTRU/77sJzYi+CCxRGpo2v+8VV2s2WnDZir2j
FIodqE/EVnRNQ9F0QjVFQq9w8QFcHCKnV5uUgg5qkfymiMYysiUCAwEAAaOCAS8w
ggErMAkGA1UdEwQCMAAwLQYJYIZIAYb4QgENBCAWHkVhc3ktUlNBIEdlbmVyYXRl
ZCBDZXJ0aWZpY2F0ZTAdBgNVHQ4EFgQUzTLn2Lcfa+6XGPYDY5Caamnhal4wga0G
A1UdIwSBpTCBooAU17AMmiB+0JvJKAOhBBPHqsior86hf6R9MHsxCzAJBgNVBAYT
AlJVMRMwEQYDVQQIEwpTQU1BUlNLQVlBMQ8wDQYDVQQHEwZTQU1BUkExETAPBgNV
BAoTCE5FT1RSQUlEMRQwEgYDVQQDEwtORU9UUkFJRCBDQTEdMBsGCSqGSIb3DQEJ
ARYOYWRtaW5AbmVvNjMucnWCCQC5QSMC20YqJDATBgNVHSUEDDAKBggrBgEFBQcD
AjALBgNVHQ8EBAMCB4AwDQYJKoZIhvcNAQEFBQADgYEAbJzYI5iurY/aiy66LyAn
DL84GD0eFj7Dwxnz2A+qyfxCdaI+6qw6JkUlW84LDQkPyCD8YiTFFNVdz4d1CqBV
wXWkpgJUqZVJybv06+AjluPoZ9DP+VdIwAx634KdfVqHbgoiFFm6eXvm07SKHS/p
4R0Q6G9Z4WkDJBekfmOVUKE=
-----END CERTIFICATE-----
