Certificate:
    Data:
        Version: 3 (0x2)
        Serial Number: 27 (0x1b)
    Signature Algorithm: sha1WithRSAEncryption
        Issuer: C=RU, ST=SAMARSKAYA, L=SAMARA, O=NEOTRAID, CN=NEOTRAID CA/emailAddress=admin@neo63.ru
        Validity
            Not Before: Dec 13 08:16:38 2016 GMT
            Not After : Dec 11 08:16:38 2026 GMT
        Subject: C=RU, ST=SAMARSKAYA, L=SAMARA, O=NEOTRAID, CN=bigglush/emailAddress=admin@neo63.ru
        Subject Public Key Info:
            Public Key Algorithm: rsaEncryption
                Public-Key: (1024 bit)
                Modulus:
                    00:a1:a0:d0:f1:79:e7:b9:c4:8b:68:30:73:9d:72:
                    bb:0a:52:da:2b:c9:70:87:3f:08:94:0f:a0:96:c1:
                    1f:12:99:af:1a:47:1f:d8:04:8f:a7:e5:42:b8:e1:
                    92:72:73:2e:ff:3e:51:27:f8:c3:ef:3b:9b:a8:3f:
                    16:43:9f:24:4e:a9:02:42:f7:1d:ea:27:7a:88:f9:
                    7a:dc:23:97:ac:bc:f6:89:cb:14:dc:8c:31:0d:32:
                    9d:bf:2f:5f:0d:5b:fa:a2:b9:ae:0a:6e:e8:f7:0e:
                    4e:2e:9d:53:00:f9:3a:34:3f:07:32:0e:96:dc:b4:
                    f4:c0:aa:10:16:ca:f9:7d:85
                Exponent: 65537 (0x10001)
        X509v3 extensions:
            X509v3 Basic Constraints: 
                CA:FALSE
            Netscape Comment: 
                Easy-RSA Generated Certificate
            X509v3 Subject Key Identifier: 
                E0:9C:E5:5C:1C:47:D2:31:74:15:C7:2D:A9:6F:57:D3:9E:0F:06:E1
            X509v3 Authority Key Identifier: 
                keyid:D7:B0:0C:9A:20:7E:D0:9B:C9:28:03:A1:04:13:C7:AA:C8:A8:AF:CE
                DirName:/C=RU/ST=SAMARSKAYA/L=SAMARA/O=NEOTRAID/CN=NEOTRAID CA/emailAddress=admin@neo63.ru
                serial:B9:41:23:02:DB:46:2A:24

            X509v3 Extended Key Usage: 
                TLS Web Client Authentication
            X509v3 Key Usage: 
                Digital Signature
    Signature Algorithm: sha1WithRSAEncryption
         9c:9d:3d:66:31:a3:a8:67:f8:35:6e:1a:df:a7:1f:f6:e1:51:
         55:c4:5f:21:13:60:33:18:71:fc:da:ab:b1:5e:bc:96:8f:74:
         d5:b4:e6:d3:b0:00:72:ec:17:a7:46:d8:0f:d7:cf:25:6d:17:
         a1:2a:76:44:d9:1e:55:d8:dc:5d:2f:43:ff:61:04:44:df:c5:
         fd:d1:e4:91:28:d4:2f:f7:0a:51:37:33:0a:cb:e7:11:3c:54:
         55:c1:82:da:a1:7e:a7:0c:70:b7:a3:2e:16:01:27:7f:bf:ec:
         b3:9b:44:ef:dc:97:c1:11:ba:c7:8d:a3:95:3f:e2:a5:70:5f:
         3e:ee
-----BEGIN CERTIFICATE-----
MIIDmjCCAwOgAwIBAgIBGzANBgkqhkiG9w0BAQUFADB7MQswCQYDVQQGEwJSVTET
MBEGA1UECBMKU0FNQVJTS0FZQTEPMA0GA1UEBxMGU0FNQVJBMREwDwYDVQQKEwhO
RU9UUkFJRDEUMBIGA1UEAxMLTkVPVFJBSUQgQ0ExHTAbBgkqhkiG9w0BCQEWDmFk
bWluQG5lbzYzLnJ1MB4XDTE2MTIxMzA4MTYzOFoXDTI2MTIxMTA4MTYzOFoweDEL
MAkGA1UEBhMCUlUxEzARBgNVBAgTClNBTUFSU0tBWUExDzANBgNVBAcTBlNBTUFS
QTERMA8GA1UEChMITkVPVFJBSUQxETAPBgNVBAMTCGJpZ2dsdXNoMR0wGwYJKoZI
hvcNAQkBFg5hZG1pbkBuZW82My5ydTCBnzANBgkqhkiG9w0BAQEFAAOBjQAwgYkC
gYEAoaDQ8XnnucSLaDBznXK7ClLaK8lwhz8IlA+glsEfEpmvGkcf2ASPp+VCuOGS
cnMu/z5RJ/jD7zubqD8WQ58kTqkCQvcd6id6iPl63COXrLz2icsU3IwxDTKdvy9f
DVv6ormuCm7o9w5OLp1TAPk6ND8HMg6W3LT0wKoQFsr5fYUCAwEAAaOCAS8wggEr
MAkGA1UdEwQCMAAwLQYJYIZIAYb4QgENBCAWHkVhc3ktUlNBIEdlbmVyYXRlZCBD
ZXJ0aWZpY2F0ZTAdBgNVHQ4EFgQU4JzlXBxH0jF0FcctqW9X054PBuEwga0GA1Ud
IwSBpTCBooAU17AMmiB+0JvJKAOhBBPHqsior86hf6R9MHsxCzAJBgNVBAYTAlJV
MRMwEQYDVQQIEwpTQU1BUlNLQVlBMQ8wDQYDVQQHEwZTQU1BUkExETAPBgNVBAoT
CE5FT1RSQUlEMRQwEgYDVQQDEwtORU9UUkFJRCBDQTEdMBsGCSqGSIb3DQEJARYO
YWRtaW5AbmVvNjMucnWCCQC5QSMC20YqJDATBgNVHSUEDDAKBggrBgEFBQcDAjAL
BgNVHQ8EBAMCB4AwDQYJKoZIhvcNAQEFBQADgYEAnJ09ZjGjqGf4NW4a36cf9uFR
VcRfIRNgMxhx/NqrsV68lo901bTm07AAcuwXp0bYD9fPJW0XoSp2RNkeVdjcXS9D
/2EERN/F/dHkkSjUL/cKUTczCsvnETxUVcGC2qF+pwxwt6MuFgEnf7/ss5tE79yX
wRG6x42jlT/ipXBfPu4=
-----END CERTIFICATE-----
