Certificate:
    Data:
        Version: 3 (0x2)
        Serial Number: 39 (0x27)
    Signature Algorithm: sha1WithRSAEncryption
        Issuer: C=RU, ST=SAMARSKAYA, L=SAMARA, O=NEOTRAID, CN=NEOTRAID CA/emailAddress=admin@neo63.ru
        Validity
            Not Before: Apr 25 12:46:08 2017 GMT
            Not After : Apr 23 12:46:08 2027 GMT
        Subject: C=RU, ST=SAMARSKAYA, L=SAMARA, O=NEOTRAID, CN=pn_sverdlova2/emailAddress=admin@neo63.ru
        Subject Public Key Info:
            Public Key Algorithm: rsaEncryption
                Public-Key: (1024 bit)
                Modulus:
                    00:c5:f2:6f:53:31:8e:62:27:e4:2e:f8:d9:0f:c0:
                    ce:15:af:77:12:99:e6:f8:eb:10:21:38:c5:3d:ab:
                    01:02:48:c6:73:c4:f0:8f:68:c5:13:88:0b:39:72:
                    b1:2a:45:a0:b1:b6:31:c4:df:04:0c:ba:3a:4e:0f:
                    d9:cc:7f:c7:57:78:4a:a3:a3:a3:b1:db:28:41:7d:
                    de:02:4d:28:40:df:45:16:17:c3:40:5c:fb:b0:d7:
                    16:9a:98:96:52:bb:c4:45:4d:11:0b:e4:05:81:3d:
                    13:be:65:1c:fb:a6:a3:a3:31:4a:fb:7f:5b:39:f3:
                    38:54:2a:57:91:af:da:56:01
                Exponent: 65537 (0x10001)
        X509v3 extensions:
            X509v3 Basic Constraints: 
                CA:FALSE
            Netscape Comment: 
                Easy-RSA Generated Certificate
            X509v3 Subject Key Identifier: 
                4B:9B:3A:9E:8A:2D:9B:15:7C:5B:A7:7A:43:A8:3F:6A:53:AC:C7:AE
            X509v3 Authority Key Identifier: 
                keyid:D7:B0:0C:9A:20:7E:D0:9B:C9:28:03:A1:04:13:C7:AA:C8:A8:AF:CE
                DirName:/C=RU/ST=SAMARSKAYA/L=SAMARA/O=NEOTRAID/CN=NEOTRAID CA/emailAddress=admin@neo63.ru
                serial:B9:41:23:02:DB:46:2A:24

            X509v3 Extended Key Usage: 
                TLS Web Client Authentication
            X509v3 Key Usage: 
                Digital Signature
    Signature Algorithm: sha1WithRSAEncryption
         2d:bb:d3:1f:3f:2a:6e:59:da:51:46:25:cd:c9:85:8a:15:e7:
         e2:f7:da:76:d0:07:da:5e:3b:8e:db:71:86:44:ce:2b:26:2e:
         11:0c:4e:b6:02:38:b9:00:3d:02:a9:26:94:32:26:14:a0:fb:
         a9:3c:ba:ee:9f:96:a9:d9:9c:15:65:e3:38:e1:f4:25:96:cd:
         77:d1:42:f1:0d:67:cd:f6:c5:31:93:dc:e9:09:30:fa:aa:c8:
         85:49:b1:d4:f1:b6:de:46:74:10:c6:30:c2:3b:63:38:30:7d:
         fe:6e:ac:c9:19:23:40:bf:3f:65:45:a6:8d:fc:1e:40:9c:31:
         27:5c
-----BEGIN CERTIFICATE-----
MIIDnzCCAwigAwIBAgIBJzANBgkqhkiG9w0BAQUFADB7MQswCQYDVQQGEwJSVTET
MBEGA1UECBMKU0FNQVJTS0FZQTEPMA0GA1UEBxMGU0FNQVJBMREwDwYDVQQKEwhO
RU9UUkFJRDEUMBIGA1UEAxMLTkVPVFJBSUQgQ0ExHTAbBgkqhkiG9w0BCQEWDmFk
bWluQG5lbzYzLnJ1MB4XDTE3MDQyNTEyNDYwOFoXDTI3MDQyMzEyNDYwOFowfTEL
MAkGA1UEBhMCUlUxEzARBgNVBAgTClNBTUFSU0tBWUExDzANBgNVBAcTBlNBTUFS
QTERMA8GA1UEChMITkVPVFJBSUQxFjAUBgNVBAMUDXBuX3N2ZXJkbG92YTIxHTAb
BgkqhkiG9w0BCQEWDmFkbWluQG5lbzYzLnJ1MIGfMA0GCSqGSIb3DQEBAQUAA4GN
ADCBiQKBgQDF8m9TMY5iJ+Qu+NkPwM4Vr3cSmeb46xAhOMU9qwECSMZzxPCPaMUT
iAs5crEqRaCxtjHE3wQMujpOD9nMf8dXeEqjo6Ox2yhBfd4CTShA30UWF8NAXPuw
1xaamJZSu8RFTREL5AWBPRO+ZRz7pqOjMUr7f1s58zhUKleRr9pWAQIDAQABo4IB
LzCCASswCQYDVR0TBAIwADAtBglghkgBhvhCAQ0EIBYeRWFzeS1SU0EgR2VuZXJh
dGVkIENlcnRpZmljYXRlMB0GA1UdDgQWBBRLmzqeii2bFXxbp3pDqD9qU6zHrjCB
rQYDVR0jBIGlMIGigBTXsAyaIH7Qm8koA6EEE8eqyKivzqF/pH0wezELMAkGA1UE
BhMCUlUxEzARBgNVBAgTClNBTUFSU0tBWUExDzANBgNVBAcTBlNBTUFSQTERMA8G
A1UEChMITkVPVFJBSUQxFDASBgNVBAMTC05FT1RSQUlEIENBMR0wGwYJKoZIhvcN
AQkBFg5hZG1pbkBuZW82My5ydYIJALlBIwLbRiokMBMGA1UdJQQMMAoGCCsGAQUF
BwMCMAsGA1UdDwQEAwIHgDANBgkqhkiG9w0BAQUFAAOBgQAtu9MfPypuWdpRRiXN
yYWKFefi99p20AfaXjuO23GGRM4rJi4RDE62Aji5AD0CqSaUMiYUoPupPLrun5ap
2ZwVZeM44fQlls130ULxDWfN9sUxk9zpCTD6qsiFSbHU8bbeRnQQxjDCO2M4MH3+
bqzJGSNAvz9lRaaN/B5AnDEnXA==
-----END CERTIFICATE-----
