Certificate:
    Data:
        Version: 3 (0x2)
        Serial Number: 9 (0x9)
        Signature Algorithm: sha1WithRSAEncryption
        Issuer: C=RU, ST=SAMARSKAYA, L=SAMARA, O=NEOTRAID, CN=NEOTRAID CA/emailAddress=admin@neo63.ru
        Validity
            Not Before: Sep  2 05:08:19 2013 GMT
            Not After : Aug 31 05:08:19 2023 GMT
        Subject: C=RU, ST=SAMARSKAYA, L=SAMARA, O=NEOTRAID, CN=smr_zsh46/emailAddress=admin@neo63.ru
        Subject Public Key Info:
            Public Key Algorithm: rsaEncryption
            RSA Public Key: (1024 bit)
                Modulus (1024 bit):
                    00:b2:c4:a4:6a:a1:58:5e:e3:33:ef:e3:40:02:2d:
                    4a:7f:26:a5:52:f1:69:7c:90:2a:4e:9e:8b:e0:ac:
                    24:10:f4:12:84:ef:aa:3a:ac:30:f0:03:54:95:c0:
                    b7:02:a8:7e:6b:fb:2f:55:1e:68:70:11:a7:76:f8:
                    d9:1e:b2:5f:f9:21:3e:5c:bf:d6:d4:a9:c6:10:10:
                    9f:23:5d:1d:ee:86:4c:ba:a6:41:25:0a:fd:83:ee:
                    67:81:02:36:d2:81:05:74:58:d7:d5:b5:6b:a4:b9:
                    78:ec:2b:76:b3:10:24:ff:61:42:e0:d3:a3:2c:f3:
                    b4:53:ec:21:c7:65:db:27:9d
                Exponent: 65537 (0x10001)
        X509v3 extensions:
            X509v3 Basic Constraints: 
                CA:FALSE
            Netscape Comment: 
                Easy-RSA Generated Certificate
            X509v3 Subject Key Identifier: 
                90:A3:08:BC:0B:6B:DB:2E:16:56:B5:17:9A:AC:A2:A6:56:BC:F4:6B
            X509v3 Authority Key Identifier: 
                keyid:D7:B0:0C:9A:20:7E:D0:9B:C9:28:03:A1:04:13:C7:AA:C8:A8:AF:CE
                DirName:/C=RU/ST=SAMARSKAYA/L=SAMARA/O=NEOTRAID/CN=NEOTRAID CA/emailAddress=admin@neo63.ru
                serial:B9:41:23:02:DB:46:2A:24

            X509v3 Extended Key Usage: 
                TLS Web Client Authentication
            X509v3 Key Usage: 
                Digital Signature
    Signature Algorithm: sha1WithRSAEncryption
        83:23:cc:ad:73:6c:78:26:b4:7c:7b:ba:24:80:cd:22:3b:74:
        c1:e3:98:b5:31:b5:16:05:41:e4:53:5d:26:d2:f5:c8:a6:80:
        3e:9e:12:da:44:59:cf:4e:80:c5:74:50:7f:af:15:34:0a:14:
        9e:82:d3:22:78:33:05:b0:40:b5:4c:cd:c4:56:0c:2b:f6:30:
        8f:9d:44:41:eb:af:e2:54:c9:4f:f2:8b:09:61:91:f0:ff:e1:
        28:71:ca:cb:47:cc:d0:86:ca:f0:30:bf:af:9a:59:09:db:88:
        84:4c:72:bd:28:94:1c:9f:e5:99:80:c8:ce:7e:87:f4:41:35:
        96:0a
-----BEGIN CERTIFICATE-----
MIIDmzCCAwSgAwIBAgIBCTANBgkqhkiG9w0BAQUFADB7MQswCQYDVQQGEwJSVTET
MBEGA1UECBMKU0FNQVJTS0FZQTEPMA0GA1UEBxMGU0FNQVJBMREwDwYDVQQKEwhO
RU9UUkFJRDEUMBIGA1UEAxMLTkVPVFJBSUQgQ0ExHTAbBgkqhkiG9w0BCQEWDmFk
bWluQG5lbzYzLnJ1MB4XDTEzMDkwMjA1MDgxOVoXDTIzMDgzMTA1MDgxOVoweTEL
MAkGA1UEBhMCUlUxEzARBgNVBAgTClNBTUFSU0tBWUExDzANBgNVBAcTBlNBTUFS
QTERMA8GA1UEChMITkVPVFJBSUQxEjAQBgNVBAMUCXNtcl96c2g0NjEdMBsGCSqG
SIb3DQEJARYOYWRtaW5AbmVvNjMucnUwgZ8wDQYJKoZIhvcNAQEBBQADgY0AMIGJ
AoGBALLEpGqhWF7jM+/jQAItSn8mpVLxaXyQKk6ei+CsJBD0EoTvqjqsMPADVJXA
twKofmv7L1UeaHARp3b42R6yX/khPly/1tSpxhAQnyNdHe6GTLqmQSUK/YPuZ4EC
NtKBBXRY19W1a6S5eOwrdrMQJP9hQuDToyzztFPsIcdl2yedAgMBAAGjggEvMIIB
KzAJBgNVHRMEAjAAMC0GCWCGSAGG+EIBDQQgFh5FYXN5LVJTQSBHZW5lcmF0ZWQg
Q2VydGlmaWNhdGUwHQYDVR0OBBYEFJCjCLwLa9suFla1F5qsoqZWvPRrMIGtBgNV
HSMEgaUwgaKAFNewDJogftCbySgDoQQTx6rIqK/OoX+kfTB7MQswCQYDVQQGEwJS
VTETMBEGA1UECBMKU0FNQVJTS0FZQTEPMA0GA1UEBxMGU0FNQVJBMREwDwYDVQQK
EwhORU9UUkFJRDEUMBIGA1UEAxMLTkVPVFJBSUQgQ0ExHTAbBgkqhkiG9w0BCQEW
DmFkbWluQG5lbzYzLnJ1ggkAuUEjAttGKiQwEwYDVR0lBAwwCgYIKwYBBQUHAwIw
CwYDVR0PBAQDAgeAMA0GCSqGSIb3DQEBBQUAA4GBAIMjzK1zbHgmtHx7uiSAzSI7
dMHjmLUxtRYFQeRTXSbS9cimgD6eEtpEWc9OgMV0UH+vFTQKFJ6C0yJ4MwWwQLVM
zcRWDCv2MI+dREHrr+JUyU/yiwlhkfD/4ShxystHzNCGyvAwv6+aWQnbiIRMcr0o
lByf5ZmAyM5+h/RBNZYK
-----END CERTIFICATE-----
