Certificate:
    Data:
        Version: 3 (0x2)
        Serial Number: 38 (0x26)
    Signature Algorithm: sha1WithRSAEncryption
        Issuer: C=RU, ST=SAMARSKAYA, L=SAMARA, O=NEOTRAID, CN=NEOTRAID CA/emailAddress=admin@neo63.ru
        Validity
            Not Before: Apr 21 13:34:37 2017 GMT
            Not After : Apr 19 13:34:37 2027 GMT
        Subject: C=RU, ST=SAMARSKAYA, L=SAMARA, O=NEOTRAID, CN=smr_st_zagora46/emailAddress=admin@neo63.ru
        Subject Public Key Info:
            Public Key Algorithm: rsaEncryption
                Public-Key: (1024 bit)
                Modulus:
                    00:d1:f6:51:0a:99:d3:d4:02:3f:2b:12:8e:b6:99:
                    84:3c:cd:3d:66:4a:c1:62:25:4d:5c:a1:c5:ea:05:
                    3c:22:73:5c:f8:49:55:c3:e7:b3:46:2b:6f:83:10:
                    13:03:00:14:60:00:b4:0d:0b:f5:9f:0a:df:72:4f:
                    59:3d:c3:63:29:d6:42:e0:8e:f6:4e:2c:d2:e2:5c:
                    17:77:bb:5e:c1:1c:93:75:b8:35:35:2b:3b:0b:97:
                    39:1a:3b:da:15:a2:cd:fe:1e:7f:ce:1c:38:92:5a:
                    4f:3d:27:ff:40:db:63:bd:e2:38:34:fb:c9:8d:e0:
                    3f:ca:ad:de:09:f9:8a:16:c3
                Exponent: 65537 (0x10001)
        X509v3 extensions:
            X509v3 Basic Constraints: 
                CA:FALSE
            Netscape Comment: 
                Easy-RSA Generated Certificate
            X509v3 Subject Key Identifier: 
                3D:5F:B7:10:65:1C:BE:1A:1B:83:5C:12:45:3E:96:D8:DD:18:FA:A3
            X509v3 Authority Key Identifier: 
                keyid:D7:B0:0C:9A:20:7E:D0:9B:C9:28:03:A1:04:13:C7:AA:C8:A8:AF:CE
                DirName:/C=RU/ST=SAMARSKAYA/L=SAMARA/O=NEOTRAID/CN=NEOTRAID CA/emailAddress=admin@neo63.ru
                serial:B9:41:23:02:DB:46:2A:24

            X509v3 Extended Key Usage: 
                TLS Web Client Authentication
            X509v3 Key Usage: 
                Digital Signature
    Signature Algorithm: sha1WithRSAEncryption
         a0:30:fb:60:09:8a:eb:f1:e2:cf:29:f1:bb:a9:9f:b3:4f:8b:
         f9:01:87:97:77:13:5e:80:3f:2e:11:3b:0f:c8:b3:8e:3f:b3:
         6e:91:76:d2:d3:fa:16:49:20:e3:54:6e:a5:17:10:20:5c:4b:
         62:08:c5:b6:67:55:5f:78:82:c0:d7:f8:1a:37:19:ec:66:e1:
         10:e1:ac:0b:74:28:04:80:ee:d8:88:01:50:da:4b:04:cd:0f:
         88:73:66:68:cb:02:f5:f2:54:7d:28:cf:12:af:c5:5c:6f:1e:
         15:bc:4e:fd:c2:24:8d:cc:0b:54:c9:9b:07:8a:54:ce:e9:f5:
         1b:d6
-----BEGIN CERTIFICATE-----
MIIDoTCCAwqgAwIBAgIBJjANBgkqhkiG9w0BAQUFADB7MQswCQYDVQQGEwJSVTET
MBEGA1UECBMKU0FNQVJTS0FZQTEPMA0GA1UEBxMGU0FNQVJBMREwDwYDVQQKEwhO
RU9UUkFJRDEUMBIGA1UEAxMLTkVPVFJBSUQgQ0ExHTAbBgkqhkiG9w0BCQEWDmFk
bWluQG5lbzYzLnJ1MB4XDTE3MDQyMTEzMzQzN1oXDTI3MDQxOTEzMzQzN1owfzEL
MAkGA1UEBhMCUlUxEzARBgNVBAgTClNBTUFSU0tBWUExDzANBgNVBAcTBlNBTUFS
QTERMA8GA1UEChMITkVPVFJBSUQxGDAWBgNVBAMUD3Ntcl9zdF96YWdvcmE0NjEd
MBsGCSqGSIb3DQEJARYOYWRtaW5AbmVvNjMucnUwgZ8wDQYJKoZIhvcNAQEBBQAD
gY0AMIGJAoGBANH2UQqZ09QCPysSjraZhDzNPWZKwWIlTVyhxeoFPCJzXPhJVcPn
s0Yrb4MQEwMAFGAAtA0L9Z8K33JPWT3DYynWQuCO9k4s0uJcF3e7XsEck3W4NTUr
OwuXORo72hWizf4ef84cOJJaTz0n/0DbY73iODT7yY3gP8qt3gn5ihbDAgMBAAGj
ggEvMIIBKzAJBgNVHRMEAjAAMC0GCWCGSAGG+EIBDQQgFh5FYXN5LVJTQSBHZW5l
cmF0ZWQgQ2VydGlmaWNhdGUwHQYDVR0OBBYEFD1ftxBlHL4aG4NcEkU+ltjdGPqj
MIGtBgNVHSMEgaUwgaKAFNewDJogftCbySgDoQQTx6rIqK/OoX+kfTB7MQswCQYD
VQQGEwJSVTETMBEGA1UECBMKU0FNQVJTS0FZQTEPMA0GA1UEBxMGU0FNQVJBMREw
DwYDVQQKEwhORU9UUkFJRDEUMBIGA1UEAxMLTkVPVFJBSUQgQ0ExHTAbBgkqhkiG
9w0BCQEWDmFkbWluQG5lbzYzLnJ1ggkAuUEjAttGKiQwEwYDVR0lBAwwCgYIKwYB
BQUHAwIwCwYDVR0PBAQDAgeAMA0GCSqGSIb3DQEBBQUAA4GBAKAw+2AJiuvx4s8p
8bupn7NPi/kBh5d3E16APy4ROw/Is44/s26RdtLT+hZJIONUbqUXECBcS2IIxbZn
VV94gsDX+Bo3Gexm4RDhrAt0KASA7tiIAVDaSwTND4hzZmjLAvXyVH0ozxKvxVxv
HhW8Tv3CJI3MC1TJmweKVM7p9RvW
-----END CERTIFICATE-----
