Certificate:
    Data:
        Version: 3 (0x2)
        Serial Number: 33 (0x21)
    Signature Algorithm: sha1WithRSAEncryption
        Issuer: C=RU, ST=SAMARSKAYA, L=SAMARA, O=NEOTRAID, CN=NEOTRAID CA/emailAddress=admin@neo63.ru
        Validity
            Not Before: Apr 11 06:54:04 2017 GMT
            Not After : Apr  9 06:54:04 2027 GMT
        Subject: C=RU, ST=SAMARSKAYA, L=SAMARA, O=NEOTRAID, CN=smr_samarskaya/emailAddress=admin@neo63.ru
        Subject Public Key Info:
            Public Key Algorithm: rsaEncryption
                Public-Key: (1024 bit)
                Modulus:
                    00:de:53:66:da:41:a8:e8:22:1f:b2:20:e7:67:3c:
                    77:ff:0c:7f:d9:37:da:3a:72:da:b7:7c:e1:fa:0c:
                    53:77:8f:22:02:a3:ef:6d:05:75:3a:2a:9a:62:f5:
                    76:50:1a:bb:9b:fa:3c:87:f2:70:b7:57:48:21:9f:
                    01:e7:7e:1a:4d:b4:36:35:11:8f:51:4f:65:23:b1:
                    c9:8f:c0:6c:b7:95:a8:46:ff:73:a6:ef:49:30:01:
                    b8:a5:c1:48:50:1f:ee:31:87:be:e0:74:ad:dc:4a:
                    79:0f:89:1f:db:21:b8:33:bb:5f:98:0b:37:21:fe:
                    e8:f9:21:d4:da:5c:76:e6:b7
                Exponent: 65537 (0x10001)
        X509v3 extensions:
            X509v3 Basic Constraints: 
                CA:FALSE
            Netscape Comment: 
                Easy-RSA Generated Certificate
            X509v3 Subject Key Identifier: 
                27:E3:46:F2:2F:02:AF:2F:64:8E:30:13:C7:53:AD:A7:81:45:AA:23
            X509v3 Authority Key Identifier: 
                keyid:D7:B0:0C:9A:20:7E:D0:9B:C9:28:03:A1:04:13:C7:AA:C8:A8:AF:CE
                DirName:/C=RU/ST=SAMARSKAYA/L=SAMARA/O=NEOTRAID/CN=NEOTRAID CA/emailAddress=admin@neo63.ru
                serial:B9:41:23:02:DB:46:2A:24

            X509v3 Extended Key Usage: 
                TLS Web Client Authentication
            X509v3 Key Usage: 
                Digital Signature
    Signature Algorithm: sha1WithRSAEncryption
         5e:fd:b0:47:8c:e4:12:a2:a3:98:6b:a8:dd:ac:95:60:2c:81:
         a7:07:36:52:eb:95:0c:95:77:2c:87:f1:6e:7b:f3:b2:3e:ba:
         d7:72:07:c4:ba:b1:3a:cd:c1:e8:01:8a:f5:e0:cd:fd:80:f6:
         c6:1c:70:95:b4:0e:ed:5e:37:03:79:20:7f:a6:00:62:e1:68:
         ff:ec:4b:7c:35:06:79:a0:ef:02:5e:34:62:42:46:63:ac:b0:
         5b:53:49:50:40:c5:16:f8:ea:d3:10:82:1f:74:0a:da:a6:48:
         8f:53:21:75:7e:2e:08:7d:d1:cd:69:50:f1:a5:1b:d4:55:3c:
         b0:52
-----BEGIN CERTIFICATE-----
MIIDoDCCAwmgAwIBAgIBITANBgkqhkiG9w0BAQUFADB7MQswCQYDVQQGEwJSVTET
MBEGA1UECBMKU0FNQVJTS0FZQTEPMA0GA1UEBxMGU0FNQVJBMREwDwYDVQQKEwhO
RU9UUkFJRDEUMBIGA1UEAxMLTkVPVFJBSUQgQ0ExHTAbBgkqhkiG9w0BCQEWDmFk
bWluQG5lbzYzLnJ1MB4XDTE3MDQxMTA2NTQwNFoXDTI3MDQwOTA2NTQwNFowfjEL
MAkGA1UEBhMCUlUxEzARBgNVBAgTClNBTUFSU0tBWUExDzANBgNVBAcTBlNBTUFS
QTERMA8GA1UEChMITkVPVFJBSUQxFzAVBgNVBAMUDnNtcl9zYW1hcnNrYXlhMR0w
GwYJKoZIhvcNAQkBFg5hZG1pbkBuZW82My5ydTCBnzANBgkqhkiG9w0BAQEFAAOB
jQAwgYkCgYEA3lNm2kGo6CIfsiDnZzx3/wx/2TfaOnLat3zh+gxTd48iAqPvbQV1
OiqaYvV2UBq7m/o8h/Jwt1dIIZ8B534aTbQ2NRGPUU9lI7HJj8Bst5WoRv9zpu9J
MAG4pcFIUB/uMYe+4HSt3Ep5D4kf2yG4M7tfmAs3If7o+SHU2lx25rcCAwEAAaOC
AS8wggErMAkGA1UdEwQCMAAwLQYJYIZIAYb4QgENBCAWHkVhc3ktUlNBIEdlbmVy
YXRlZCBDZXJ0aWZpY2F0ZTAdBgNVHQ4EFgQUJ+NG8i8Cry9kjjATx1Otp4FFqiMw
ga0GA1UdIwSBpTCBooAU17AMmiB+0JvJKAOhBBPHqsior86hf6R9MHsxCzAJBgNV
BAYTAlJVMRMwEQYDVQQIEwpTQU1BUlNLQVlBMQ8wDQYDVQQHEwZTQU1BUkExETAP
BgNVBAoTCE5FT1RSQUlEMRQwEgYDVQQDEwtORU9UUkFJRCBDQTEdMBsGCSqGSIb3
DQEJARYOYWRtaW5AbmVvNjMucnWCCQC5QSMC20YqJDATBgNVHSUEDDAKBggrBgEF
BQcDAjALBgNVHQ8EBAMCB4AwDQYJKoZIhvcNAQEFBQADgYEAXv2wR4zkEqKjmGuo
3ayVYCyBpwc2UuuVDJV3LIfxbnvzsj6613IHxLqxOs3B6AGK9eDN/YD2xhxwlbQO
7V43A3kgf6YAYuFo/+xLfDUGeaDvAl40YkJGY6ywW1NJUEDFFvjq0xCCH3QK2qZI
j1MhdX4uCH3RzWlQ8aUb1FU8sFI=
-----END CERTIFICATE-----
