Certificate:
    Data:
        Version: 3 (0x2)
        Serial Number: 18 (0x12)
        Signature Algorithm: sha1WithRSAEncryption
        Issuer: C=RU, ST=SAMARSKAYA, L=SAMARA, O=NEOTRAID, CN=NEOTRAID CA/emailAddress=admin@neo63.ru
        Validity
            Not Before: Apr 10 09:50:27 2015 GMT
            Not After : Apr  7 09:50:27 2025 GMT
        Subject: C=RU, ST=SAMARSKAYA, L=SAMARA, O=NEOTRAID, CN=smr_myagi/emailAddress=admin@neo63.ru
        Subject Public Key Info:
            Public Key Algorithm: rsaEncryption
            RSA Public Key: (1024 bit)
                Modulus (1024 bit):
                    00:c7:5f:5a:26:58:13:49:a0:de:47:92:cd:87:9a:
                    6e:56:30:cc:7a:8b:10:d2:4d:5e:2c:c2:c4:48:6f:
                    63:15:6a:0e:0e:aa:ad:5a:7e:75:01:8f:62:33:66:
                    8b:26:2d:02:8d:5c:a9:18:cf:4a:9a:cd:35:e6:cc:
                    a6:7a:f8:4c:ca:74:fe:b4:0c:9e:35:76:d8:28:6c:
                    3b:fe:3e:bc:d9:77:77:f9:01:f9:e1:6a:f6:00:f5:
                    ff:13:db:67:ca:15:b4:94:3d:87:86:b9:da:ae:c9:
                    dc:6c:47:32:29:8f:08:10:f9:d0:14:c4:1b:39:6c:
                    4b:96:b0:ec:b9:bf:74:69:9d
                Exponent: 65537 (0x10001)
        X509v3 extensions:
            X509v3 Basic Constraints: 
                CA:FALSE
            Netscape Comment: 
                Easy-RSA Generated Certificate
            X509v3 Subject Key Identifier: 
                DF:42:F1:7F:3D:2B:46:35:13:5D:54:B3:9F:F2:65:1E:17:D0:2B:88
            X509v3 Authority Key Identifier: 
                keyid:D7:B0:0C:9A:20:7E:D0:9B:C9:28:03:A1:04:13:C7:AA:C8:A8:AF:CE
                DirName:/C=RU/ST=SAMARSKAYA/L=SAMARA/O=NEOTRAID/CN=NEOTRAID CA/emailAddress=admin@neo63.ru
                serial:B9:41:23:02:DB:46:2A:24

            X509v3 Extended Key Usage: 
                TLS Web Client Authentication
            X509v3 Key Usage: 
                Digital Signature
    Signature Algorithm: sha1WithRSAEncryption
        1f:b1:e0:27:f6:bc:f8:72:0b:91:39:1f:6e:ca:b2:8f:2f:45:
        2a:c6:6e:72:d7:57:a5:11:69:ea:45:55:42:af:d7:a5:67:c1:
        49:b0:a7:f4:06:06:ec:34:3c:ac:5b:b6:36:a3:96:d2:c9:2a:
        e1:47:1a:40:a9:e7:1d:fe:6f:f3:98:91:9a:e1:bb:d4:5a:60:
        05:86:a3:a3:df:81:50:5d:79:7c:4f:53:84:76:a4:8c:72:6d:
        23:71:35:a8:26:d2:4a:4a:58:a6:d9:60:69:e5:e5:e1:03:b6:
        bc:90:53:4d:72:4b:5d:1c:d2:0a:01:e1:48:12:11:5c:10:5b:
        22:bb
-----BEGIN CERTIFICATE-----
MIIDmzCCAwSgAwIBAgIBEjANBgkqhkiG9w0BAQUFADB7MQswCQYDVQQGEwJSVTET
MBEGA1UECBMKU0FNQVJTS0FZQTEPMA0GA1UEBxMGU0FNQVJBMREwDwYDVQQKEwhO
RU9UUkFJRDEUMBIGA1UEAxMLTkVPVFJBSUQgQ0ExHTAbBgkqhkiG9w0BCQEWDmFk
bWluQG5lbzYzLnJ1MB4XDTE1MDQxMDA5NTAyN1oXDTI1MDQwNzA5NTAyN1oweTEL
MAkGA1UEBhMCUlUxEzARBgNVBAgTClNBTUFSU0tBWUExDzANBgNVBAcTBlNBTUFS
QTERMA8GA1UEChMITkVPVFJBSUQxEjAQBgNVBAMUCXNtcl9teWFnaTEdMBsGCSqG
SIb3DQEJARYOYWRtaW5AbmVvNjMucnUwgZ8wDQYJKoZIhvcNAQEBBQADgY0AMIGJ
AoGBAMdfWiZYE0mg3keSzYeablYwzHqLENJNXizCxEhvYxVqDg6qrVp+dQGPYjNm
iyYtAo1cqRjPSprNNebMpnr4TMp0/rQMnjV22ChsO/4+vNl3d/kB+eFq9gD1/xPb
Z8oVtJQ9h4a52q7J3GxHMimPCBD50BTEGzlsS5aw7Lm/dGmdAgMBAAGjggEvMIIB
KzAJBgNVHRMEAjAAMC0GCWCGSAGG+EIBDQQgFh5FYXN5LVJTQSBHZW5lcmF0ZWQg
Q2VydGlmaWNhdGUwHQYDVR0OBBYEFN9C8X89K0Y1E11Us5/yZR4X0CuIMIGtBgNV
HSMEgaUwgaKAFNewDJogftCbySgDoQQTx6rIqK/OoX+kfTB7MQswCQYDVQQGEwJS
VTETMBEGA1UECBMKU0FNQVJTS0FZQTEPMA0GA1UEBxMGU0FNQVJBMREwDwYDVQQK
EwhORU9UUkFJRDEUMBIGA1UEAxMLTkVPVFJBSUQgQ0ExHTAbBgkqhkiG9w0BCQEW
DmFkbWluQG5lbzYzLnJ1ggkAuUEjAttGKiQwEwYDVR0lBAwwCgYIKwYBBQUHAwIw
CwYDVR0PBAQDAgeAMA0GCSqGSIb3DQEBBQUAA4GBAB+x4Cf2vPhyC5E5H27Kso8v
RSrGbnLXV6URaepFVUKv16VnwUmwp/QGBuw0PKxbtjajltLJKuFHGkCp5x3+b/OY
kZrhu9RaYAWGo6PfgVBdeXxPU4R2pIxybSNxNagm0kpKWKbZYGnl5eEDtryQU01y
S10c0goB4UgSEVwQWyK7
-----END CERTIFICATE-----
