Certificate:
    Data:
        Version: 3 (0x2)
        Serial Number: 13 (0xd)
        Signature Algorithm: sha1WithRSAEncryption
        Issuer: C=RU, ST=SAMARSKAYA, L=SAMARA, O=NEOTRAID, CN=NEOTRAID CA/emailAddress=admin@neo63.ru
        Validity
            Not Before: Sep 16 11:28:00 2014 GMT
            Not After : Sep 13 11:28:00 2024 GMT
        Subject: C=RU, ST=SAMARSKAYA, L=SAMARA, O=NEOTRAID, CN=smr_amineva/emailAddress=admin@neo63.ru
        Subject Public Key Info:
            Public Key Algorithm: rsaEncryption
            RSA Public Key: (1024 bit)
                Modulus (1024 bit):
                    00:cd:7f:4e:ab:e4:d0:d9:ed:84:83:12:ca:15:9f:
                    f3:5b:17:01:a5:9c:a3:88:cc:da:c0:5d:65:af:35:
                    3f:81:29:cd:7d:8d:bd:f4:fc:7e:c2:d5:4b:cc:9f:
                    ab:f4:30:dd:67:44:0a:35:b2:ee:ce:65:45:21:d7:
                    8b:00:b0:d2:de:95:f6:3b:8f:92:fa:d8:fd:50:b0:
                    68:c3:17:58:5f:07:5c:fa:35:7f:ab:60:6e:d9:22:
                    4f:7f:a6:b0:98:37:0a:79:c2:5a:20:49:4b:a0:54:
                    cd:45:2b:14:62:b6:0f:36:59:eb:ff:56:38:28:93:
                    dc:e2:73:9c:7d:64:0d:46:37
                Exponent: 65537 (0x10001)
        X509v3 extensions:
            X509v3 Basic Constraints: 
                CA:FALSE
            Netscape Comment: 
                Easy-RSA Generated Certificate
            X509v3 Subject Key Identifier: 
                E7:3D:61:26:ED:E1:3A:84:11:85:C1:79:18:9B:49:31:13:FB:FF:7E
            X509v3 Authority Key Identifier: 
                keyid:D7:B0:0C:9A:20:7E:D0:9B:C9:28:03:A1:04:13:C7:AA:C8:A8:AF:CE
                DirName:/C=RU/ST=SAMARSKAYA/L=SAMARA/O=NEOTRAID/CN=NEOTRAID CA/emailAddress=admin@neo63.ru
                serial:B9:41:23:02:DB:46:2A:24

            X509v3 Extended Key Usage: 
                TLS Web Client Authentication
            X509v3 Key Usage: 
                Digital Signature
    Signature Algorithm: sha1WithRSAEncryption
        33:d5:04:a2:fb:65:78:e9:92:0c:c4:a4:53:ef:61:67:57:9b:
        66:cc:a7:12:a8:e0:54:ef:4f:72:88:33:a0:a7:11:13:1f:5a:
        68:32:ff:51:3b:d5:e6:a6:6f:b2:b5:76:b4:08:aa:5f:42:32:
        17:eb:9e:23:9b:26:aa:c9:4b:dc:82:88:eb:c7:f9:af:d8:f1:
        36:25:00:c9:19:e5:d7:b5:93:c2:f0:52:33:fe:79:8b:10:0a:
        26:53:05:77:3b:03:65:09:b5:92:48:eb:a1:23:02:be:a4:44:
        ec:d1:5d:fc:c8:fd:23:34:5c:e4:bd:5a:d3:56:e5:c6:5f:12:
        32:f5
-----BEGIN CERTIFICATE-----
MIIDnTCCAwagAwIBAgIBDTANBgkqhkiG9w0BAQUFADB7MQswCQYDVQQGEwJSVTET
MBEGA1UECBMKU0FNQVJTS0FZQTEPMA0GA1UEBxMGU0FNQVJBMREwDwYDVQQKEwhO
RU9UUkFJRDEUMBIGA1UEAxMLTkVPVFJBSUQgQ0ExHTAbBgkqhkiG9w0BCQEWDmFk
bWluQG5lbzYzLnJ1MB4XDTE0MDkxNjExMjgwMFoXDTI0MDkxMzExMjgwMFowezEL
MAkGA1UEBhMCUlUxEzARBgNVBAgTClNBTUFSU0tBWUExDzANBgNVBAcTBlNBTUFS
QTERMA8GA1UEChMITkVPVFJBSUQxFDASBgNVBAMUC3Ntcl9hbWluZXZhMR0wGwYJ
KoZIhvcNAQkBFg5hZG1pbkBuZW82My5ydTCBnzANBgkqhkiG9w0BAQEFAAOBjQAw
gYkCgYEAzX9Oq+TQ2e2EgxLKFZ/zWxcBpZyjiMzawF1lrzU/gSnNfY299Px+wtVL
zJ+r9DDdZ0QKNbLuzmVFIdeLALDS3pX2O4+S+tj9ULBowxdYXwdc+jV/q2Bu2SJP
f6awmDcKecJaIElLoFTNRSsUYrYPNlnr/1Y4KJPc4nOcfWQNRjcCAwEAAaOCAS8w
ggErMAkGA1UdEwQCMAAwLQYJYIZIAYb4QgENBCAWHkVhc3ktUlNBIEdlbmVyYXRl
ZCBDZXJ0aWZpY2F0ZTAdBgNVHQ4EFgQU5z1hJu3hOoQRhcF5GJtJMRP7/34wga0G
A1UdIwSBpTCBooAU17AMmiB+0JvJKAOhBBPHqsior86hf6R9MHsxCzAJBgNVBAYT
AlJVMRMwEQYDVQQIEwpTQU1BUlNLQVlBMQ8wDQYDVQQHEwZTQU1BUkExETAPBgNV
BAoTCE5FT1RSQUlEMRQwEgYDVQQDEwtORU9UUkFJRCBDQTEdMBsGCSqGSIb3DQEJ
ARYOYWRtaW5AbmVvNjMucnWCCQC5QSMC20YqJDATBgNVHSUEDDAKBggrBgEFBQcD
AjALBgNVHQ8EBAMCB4AwDQYJKoZIhvcNAQEFBQADgYEAM9UEovtleOmSDMSkU+9h
Z1ebZsynEqjgVO9PcogzoKcREx9aaDL/UTvV5qZvsrV2tAiqX0IyF+ueI5smqslL
3IKI68f5r9jxNiUAyRnl17WTwvBSM/55ixAKJlMFdzsDZQm1kkjroSMCvqRE7NFd
/Mj9IzRc5L1a01blxl8SMvU=
-----END CERTIFICATE-----
