Certificate:
    Data:
        Version: 3 (0x2)
        Serial Number: 1 (0x1)
    Signature Algorithm: sha1WithRSAEncryption
        Issuer: C=RU, ST=SAMARSKAYA, L=TOGLIATTY, O=NEOTREID-LTD, CN=NEOTREID-LTD CA/emailAddress=muxa@neo63.ru
        Validity
            Not Before: Jul 17 09:06:34 2015 GMT
            Not After : Jul 14 09:06:34 2025 GMT
        Subject: C=RU, ST=SAMARSKAYA, L=TOGLIATTY, O=NEOTREID-LTD, CN=neoserver1/emailAddress=muxa@neo63.ru
        Subject Public Key Info:
            Public Key Algorithm: rsaEncryption
                Public-Key: (1024 bit)
                Modulus:
                    00:c4:18:e4:68:7a:16:cd:c5:94:b5:70:e0:60:b6:
                    7e:89:26:8e:a3:2c:41:de:da:4f:ec:51:16:db:9d:
                    93:12:60:6d:36:12:0f:7a:63:5e:b5:0d:4c:e0:fe:
                    57:e4:9c:86:cc:5e:aa:2e:b1:cd:08:97:88:44:d1:
                    c6:0b:c0:27:5f:82:d2:8c:84:44:26:63:46:f8:7a:
                    f0:73:8e:14:2c:c7:7e:68:28:db:d7:1e:a2:ad:e3:
                    9c:52:9b:de:79:3f:3c:4b:67:f0:01:a2:ea:2a:4c:
                    b5:ed:77:c2:95:22:b2:93:0c:3f:2f:84:5c:ec:62:
                    d6:06:34:d5:95:46:3f:d0:cf
                Exponent: 65537 (0x10001)
        X509v3 extensions:
            X509v3 Basic Constraints: 
                CA:FALSE
            Netscape Cert Type: 
                SSL Server
            Netscape Comment: 
                Easy-RSA Generated Server Certificate
            X509v3 Subject Key Identifier: 
                CB:15:25:86:6A:3A:E9:01:31:EC:83:BC:D2:53:0A:C0:F5:0E:BD:5C
            X509v3 Authority Key Identifier: 
                keyid:F8:AD:6B:CF:05:6A:F5:01:B7:8A:6F:A2:91:D0:F3:C3:E3:2B:62:F3
                DirName:/C=RU/ST=SAMARSKAYA/L=TOGLIATTY/O=NEOTREID-LTD/CN=NEOTREID-LTD CA/emailAddress=muxa@neo63.ru
                serial:A3:2E:2A:A8:AE:52:1B:B7

            X509v3 Extended Key Usage: 
                TLS Web Server Authentication
            X509v3 Key Usage: 
                Digital Signature, Key Encipherment
    Signature Algorithm: sha1WithRSAEncryption
         a8:31:cf:07:f0:a0:1d:b4:63:53:8c:72:d2:40:98:8b:02:75:
         ab:70:3d:33:64:73:85:a2:3d:b0:cc:77:1b:38:c0:08:16:a3:
         cc:d1:c8:30:d2:0a:03:4a:31:db:a7:9d:1d:69:9c:93:83:6b:
         f1:13:39:7f:07:6b:fd:41:82:e3:6a:8f:86:ea:63:d7:01:6f:
         93:c7:bf:59:70:3b:e8:37:73:83:84:5d:fb:ca:10:d0:71:10:
         94:d9:74:68:17:68:72:8d:d6:eb:4c:0a:e4:a5:2b:9b:f5:87:
         22:83:ff:c2:0f:c9:66:66:12:fc:54:95:8e:44:e9:d0:f7:08:
         c1:7a
-----BEGIN CERTIFICATE-----
MIID1TCCAz6gAwIBAgIBATANBgkqhkiG9w0BAQUFADCBhTELMAkGA1UEBhMCUlUx
EzARBgNVBAgTClNBTUFSU0tBWUExEjAQBgNVBAcTCVRPR0xJQVRUWTEVMBMGA1UE
ChMMTkVPVFJFSUQtTFREMRgwFgYDVQQDEw9ORU9UUkVJRC1MVEQgQ0ExHDAaBgkq
hkiG9w0BCQEWDW11eGFAbmVvNjMucnUwHhcNMTUwNzE3MDkwNjM0WhcNMjUwNzE0
MDkwNjM0WjCBgDELMAkGA1UEBhMCUlUxEzARBgNVBAgTClNBTUFSU0tBWUExEjAQ
BgNVBAcTCVRPR0xJQVRUWTEVMBMGA1UEChMMTkVPVFJFSUQtTFREMRMwEQYDVQQD
EwpuZW9zZXJ2ZXIxMRwwGgYJKoZIhvcNAQkBFg1tdXhhQG5lbzYzLnJ1MIGfMA0G
CSqGSIb3DQEBAQUAA4GNADCBiQKBgQDEGORoehbNxZS1cOBgtn6JJo6jLEHe2k/s
URbbnZMSYG02Eg96Y161DUzg/lfknIbMXqousc0Il4hE0cYLwCdfgtKMhEQmY0b4
evBzjhQsx35oKNvXHqKt45xSm955PzxLZ/ABouoqTLXtd8KVIrKTDD8vhFzsYtYG
NNWVRj/QzwIDAQABo4IBVjCCAVIwCQYDVR0TBAIwADARBglghkgBhvhCAQEEBAMC
BkAwNAYJYIZIAYb4QgENBCcWJUVhc3ktUlNBIEdlbmVyYXRlZCBTZXJ2ZXIgQ2Vy
dGlmaWNhdGUwHQYDVR0OBBYEFMsVJYZqOukBMeyDvNJTCsD1Dr1cMIG6BgNVHSME
gbIwga+AFPita88FavUBt4pvopHQ88PjK2LzoYGLpIGIMIGFMQswCQYDVQQGEwJS
VTETMBEGA1UECBMKU0FNQVJTS0FZQTESMBAGA1UEBxMJVE9HTElBVFRZMRUwEwYD
VQQKEwxORU9UUkVJRC1MVEQxGDAWBgNVBAMTD05FT1RSRUlELUxURCBDQTEcMBoG
CSqGSIb3DQEJARYNbXV4YUBuZW82My5ydYIJAKMuKqiuUhu3MBMGA1UdJQQMMAoG
CCsGAQUFBwMBMAsGA1UdDwQEAwIFoDANBgkqhkiG9w0BAQUFAAOBgQCoMc8H8KAd
tGNTjHLSQJiLAnWrcD0zZHOFoj2wzHcbOMAIFqPM0cgw0goDSjHbp50daZyTg2vx
Ezl/B2v9QYLjao+G6mPXAW+Tx79ZcDvoN3ODhF37yhDQcRCU2XRoF2hyjdbrTArk
pSub9Ycig//CD8lmZhL8VJWOROnQ9wjBeg==
-----END CERTIFICATE-----
