Certificate:
    Data:
        Version: 3 (0x2)
        Serial Number: 7 (0x7)
    Signature Algorithm: sha1WithRSAEncryption
        Issuer: C=RU, ST=SAMARSKAYA, L=TOGLIATTY, O=NEOTREID-LTD, CN=NEOTREID-LTD CA/emailAddress=muxa@neo63.ru
        Validity
            Not Before: Aug  6 08:02:08 2015 GMT
            Not After : Aug  3 08:02:08 2025 GMT
        Subject: C=RU, ST=SAMARSKAYA, L=TOGLIATTY, O=NEOTREID-LTD, CN=p_mdc/emailAddress=muxa@neo63.ru
        Subject Public Key Info:
            Public Key Algorithm: rsaEncryption
                Public-Key: (1024 bit)
                Modulus:
                    00:cd:1f:75:ed:a3:9a:18:40:b6:7b:c3:f6:5c:16:
                    ae:0c:c1:95:ce:04:fb:18:ea:05:76:10:61:04:d7:
                    2c:ff:80:99:10:9f:f3:e2:8a:34:1b:9c:71:36:4e:
                    c3:d6:e5:d5:81:ed:6a:d7:54:b0:d6:cf:9d:2c:52:
                    60:6c:ca:09:84:34:08:01:5f:40:8a:d3:dd:e6:07:
                    26:6b:1e:55:f7:fd:37:3b:33:56:94:bf:47:fc:14:
                    1d:57:06:26:96:20:a4:c3:24:d9:de:f7:14:3f:7f:
                    50:1f:8f:0d:8c:90:8d:7a:64:31:d8:cd:a6:b6:54:
                    29:20:cd:c6:fb:99:d3:80:6b
                Exponent: 65537 (0x10001)
        X509v3 extensions:
            X509v3 Basic Constraints: 
                CA:FALSE
            Netscape Comment: 
                Easy-RSA Generated Certificate
            X509v3 Subject Key Identifier: 
                02:F0:F4:27:52:C4:CB:47:A1:07:10:3A:69:0E:3C:9A:72:10:A0:73
            X509v3 Authority Key Identifier: 
                keyid:F8:AD:6B:CF:05:6A:F5:01:B7:8A:6F:A2:91:D0:F3:C3:E3:2B:62:F3
                DirName:/C=RU/ST=SAMARSKAYA/L=TOGLIATTY/O=NEOTREID-LTD/CN=NEOTREID-LTD CA/emailAddress=muxa@neo63.ru
                serial:A3:2E:2A:A8:AE:52:1B:B7

            X509v3 Extended Key Usage: 
                TLS Web Client Authentication
            X509v3 Key Usage: 
                Digital Signature
    Signature Algorithm: sha1WithRSAEncryption
         04:02:71:fa:45:75:f9:34:d9:4e:89:19:9f:75:23:dd:cf:68:
         7c:17:26:9e:6c:d5:a5:64:28:c5:60:44:ad:9d:a2:3e:49:fb:
         0f:e0:cf:5e:ab:c5:ba:30:34:7d:c4:05:03:a2:fd:68:d2:dd:
         ce:a3:5e:e4:65:32:f2:38:8b:ad:e2:cb:1a:1e:69:c5:55:b7:
         b8:d0:db:65:90:a1:36:89:ce:37:55:82:2b:56:33:d2:d0:71:
         32:85:d1:ea:f3:5b:22:86:19:03:f9:41:74:cb:26:1c:fb:67:
         60:8d:43:02:87:75:2b:aa:48:36:e1:9c:aa:e7:3d:ec:35:4e:
         d2:bc
-----BEGIN CERTIFICATE-----
MIIDtTCCAx6gAwIBAgIBBzANBgkqhkiG9w0BAQUFADCBhTELMAkGA1UEBhMCUlUx
EzARBgNVBAgTClNBTUFSU0tBWUExEjAQBgNVBAcTCVRPR0xJQVRUWTEVMBMGA1UE
ChMMTkVPVFJFSUQtTFREMRgwFgYDVQQDEw9ORU9UUkVJRC1MVEQgQ0ExHDAaBgkq
hkiG9w0BCQEWDW11eGFAbmVvNjMucnUwHhcNMTUwODA2MDgwMjA4WhcNMjUwODAz
MDgwMjA4WjB7MQswCQYDVQQGEwJSVTETMBEGA1UECBMKU0FNQVJTS0FZQTESMBAG
A1UEBxMJVE9HTElBVFRZMRUwEwYDVQQKEwxORU9UUkVJRC1MVEQxDjAMBgNVBAMU
BXBfbWRjMRwwGgYJKoZIhvcNAQkBFg1tdXhhQG5lbzYzLnJ1MIGfMA0GCSqGSIb3
DQEBAQUAA4GNADCBiQKBgQDNH3Xto5oYQLZ7w/ZcFq4MwZXOBPsY6gV2EGEE1yz/
gJkQn/PiijQbnHE2TsPW5dWB7WrXVLDWz50sUmBsygmENAgBX0CK093mByZrHlX3
/Tc7M1aUv0f8FB1XBiaWIKTDJNne9xQ/f1Afjw2MkI16ZDHYzaa2VCkgzcb7mdOA
awIDAQABo4IBPDCCATgwCQYDVR0TBAIwADAtBglghkgBhvhCAQ0EIBYeRWFzeS1S
U0EgR2VuZXJhdGVkIENlcnRpZmljYXRlMB0GA1UdDgQWBBQC8PQnUsTLR6EHEDpp
DjyachCgczCBugYDVR0jBIGyMIGvgBT4rWvPBWr1AbeKb6KR0PPD4yti86GBi6SB
iDCBhTELMAkGA1UEBhMCUlUxEzARBgNVBAgTClNBTUFSU0tBWUExEjAQBgNVBAcT
CVRPR0xJQVRUWTEVMBMGA1UEChMMTkVPVFJFSUQtTFREMRgwFgYDVQQDEw9ORU9U
UkVJRC1MVEQgQ0ExHDAaBgkqhkiG9w0BCQEWDW11eGFAbmVvNjMucnWCCQCjLiqo
rlIbtzATBgNVHSUEDDAKBggrBgEFBQcDAjALBgNVHQ8EBAMCB4AwDQYJKoZIhvcN
AQEFBQADgYEABAJx+kV1+TTZTokZn3Uj3c9ofBcmnmzVpWQoxWBErZ2iPkn7D+DP
XqvFujA0fcQFA6L9aNLdzqNe5GUy8jiLreLLGh5pxVW3uNDbZZChNonON1WCK1Yz
0tBxMoXR6vNbIoYZA/lBdMsmHPtnYI1DAod1K6pINuGcquc97DVO0rw=
-----END CERTIFICATE-----
