Certificate:
    Data:
        Version: 3 (0x2)
        Serial Number: 11 (0xb)
    Signature Algorithm: sha1WithRSAEncryption
        Issuer: C=RU, ST=SAMARSKAYA, L=TOGLIATTY, O=NEOTREID-LTD, CN=NEOTREID-LTD CA/emailAddress=muxa@neo63.ru
        Validity
            Not Before: Sep 21 10:09:46 2015 GMT
            Not After : Sep 18 10:09:46 2025 GMT
        Subject: C=RU, ST=SAMARSKAYA, L=TOGLIATTY, O=NEOTREID-LTD, CN=shevelev_kapilova/emailAddress=muxa@neo63.ru
        Subject Public Key Info:
            Public Key Algorithm: rsaEncryption
                Public-Key: (1024 bit)
                Modulus:
                    00:de:53:90:b0:e1:9d:c3:62:1f:21:b6:c3:17:12:
                    1b:2c:fc:cd:55:1d:24:81:ba:39:ac:9e:08:37:43:
                    22:ac:04:d0:bb:08:30:f4:4e:83:51:12:60:5f:c8:
                    48:52:36:1b:78:05:76:cb:c8:b6:3d:34:c7:72:53:
                    27:3f:36:0e:d8:22:da:e9:79:3a:2f:7d:3e:af:64:
                    12:9f:fe:90:08:1d:77:5b:3d:49:3e:01:3f:a7:d8:
                    3d:d7:08:52:4d:b8:85:07:2c:de:d4:13:ae:f7:8b:
                    35:3f:27:aa:7c:5e:ad:d5:1a:be:db:3b:6a:2e:d5:
                    48:c1:05:0b:37:c7:f2:80:59
                Exponent: 65537 (0x10001)
        X509v3 extensions:
            X509v3 Basic Constraints: 
                CA:FALSE
            Netscape Comment: 
                Easy-RSA Generated Certificate
            X509v3 Subject Key Identifier: 
                20:A2:31:59:54:2E:6E:4F:A1:9D:0F:6F:72:CF:00:2A:65:22:A6:77
            X509v3 Authority Key Identifier: 
                keyid:F8:AD:6B:CF:05:6A:F5:01:B7:8A:6F:A2:91:D0:F3:C3:E3:2B:62:F3
                DirName:/C=RU/ST=SAMARSKAYA/L=TOGLIATTY/O=NEOTREID-LTD/CN=NEOTREID-LTD CA/emailAddress=muxa@neo63.ru
                serial:A3:2E:2A:A8:AE:52:1B:B7

            X509v3 Extended Key Usage: 
                TLS Web Client Authentication
            X509v3 Key Usage: 
                Digital Signature
    Signature Algorithm: sha1WithRSAEncryption
         6c:51:02:22:a2:79:c3:4e:25:e5:80:4a:a8:06:aa:20:f3:ad:
         05:2a:19:d8:51:ea:1b:78:5a:51:6e:b0:cd:0d:76:3d:5a:15:
         09:a4:37:6e:02:a9:b8:72:96:06:80:19:6c:e2:a3:df:14:d1:
         83:d9:94:0c:9b:1c:41:50:87:d8:e3:d5:51:2e:15:0d:73:d6:
         e7:0f:9b:07:24:51:10:cf:6f:94:38:bc:30:a1:ea:ea:2a:f5:
         a4:c9:f4:46:84:fb:81:0a:bb:59:33:f0:d3:ef:f6:f7:20:fd:
         48:a4:30:04:7b:58:d8:14:b6:ba:c6:c4:59:a9:ac:80:42:34:
         5c:b1
-----BEGIN CERTIFICATE-----
MIIDwjCCAyugAwIBAgIBCzANBgkqhkiG9w0BAQUFADCBhTELMAkGA1UEBhMCUlUx
EzARBgNVBAgTClNBTUFSU0tBWUExEjAQBgNVBAcTCVRPR0xJQVRUWTEVMBMGA1UE
ChMMTkVPVFJFSUQtTFREMRgwFgYDVQQDEw9ORU9UUkVJRC1MVEQgQ0ExHDAaBgkq
hkiG9w0BCQEWDW11eGFAbmVvNjMucnUwHhcNMTUwOTIxMTAwOTQ2WhcNMjUwOTE4
MTAwOTQ2WjCBhzELMAkGA1UEBhMCUlUxEzARBgNVBAgTClNBTUFSU0tBWUExEjAQ
BgNVBAcTCVRPR0xJQVRUWTEVMBMGA1UEChMMTkVPVFJFSUQtTFREMRowGAYDVQQD
FBFzaGV2ZWxldl9rYXBpbG92YTEcMBoGCSqGSIb3DQEJARYNbXV4YUBuZW82My5y
dTCBnzANBgkqhkiG9w0BAQEFAAOBjQAwgYkCgYEA3lOQsOGdw2IfIbbDFxIbLPzN
VR0kgbo5rJ4IN0MirATQuwgw9E6DURJgX8hIUjYbeAV2y8i2PTTHclMnPzYO2CLa
6Xk6L30+r2QSn/6QCB13Wz1JPgE/p9g91whSTbiFByze1BOu94s1PyeqfF6t1Rq+
2ztqLtVIwQULN8fygFkCAwEAAaOCATwwggE4MAkGA1UdEwQCMAAwLQYJYIZIAYb4
QgENBCAWHkVhc3ktUlNBIEdlbmVyYXRlZCBDZXJ0aWZpY2F0ZTAdBgNVHQ4EFgQU
IKIxWVQubk+hnQ9vcs8AKmUipncwgboGA1UdIwSBsjCBr4AU+K1rzwVq9QG3im+i
kdDzw+MrYvOhgYukgYgwgYUxCzAJBgNVBAYTAlJVMRMwEQYDVQQIEwpTQU1BUlNL
QVlBMRIwEAYDVQQHEwlUT0dMSUFUVFkxFTATBgNVBAoTDE5FT1RSRUlELUxURDEY
MBYGA1UEAxMPTkVPVFJFSUQtTFREIENBMRwwGgYJKoZIhvcNAQkBFg1tdXhhQG5l
bzYzLnJ1ggkAoy4qqK5SG7cwEwYDVR0lBAwwCgYIKwYBBQUHAwIwCwYDVR0PBAQD
AgeAMA0GCSqGSIb3DQEBBQUAA4GBAGxRAiKiecNOJeWASqgGqiDzrQUqGdhR6ht4
WlFusM0Ndj1aFQmkN24CqbhylgaAGWzio98U0YPZlAybHEFQh9jj1VEuFQ1z1ucP
mwckURDPb5Q4vDCh6uoq9aTJ9EaE+4EKu1kz8NPv9vcg/UikMAR7WNgUtrrGxFmp
rIBCNFyx
-----END CERTIFICATE-----
