Certificate:
    Data:
        Version: 3 (0x2)
        Serial Number: 15 (0xf)
    Signature Algorithm: sha1WithRSAEncryption
        Issuer: C=RU, ST=SAMARSKAYA, L=TOGLIATTY, O=NEOTREID-LTD, CN=NEOTREID-LTD CA/emailAddress=muxa@neo63.ru
        Validity
            Not Before: Nov 24 08:20:41 2015 GMT
            Not After : Nov 21 08:20:41 2025 GMT
        Subject: C=RU, ST=SAMARSKAYA, L=TOGLIATTY, O=NEOTREID-LTD, CN=ushakova40/emailAddress=muxa@neo63.ru
        Subject Public Key Info:
            Public Key Algorithm: rsaEncryption
                Public-Key: (1024 bit)
                Modulus:
                    00:d8:97:29:9f:a4:b5:e4:f6:d2:3b:22:27:f2:aa:
                    8c:71:fd:b9:71:cd:ed:7d:e9:4c:32:3c:bd:81:8e:
                    75:75:e6:af:82:4f:b4:00:22:33:ac:71:bd:15:57:
                    a1:83:17:fd:be:96:4d:64:a4:03:3a:50:1a:00:7f:
                    02:27:21:a8:30:a4:be:c0:c6:72:8f:2a:cb:92:bf:
                    c8:ba:81:0e:6b:d7:a2:d1:95:5f:58:55:69:1c:b8:
                    c7:d1:13:df:6c:d4:22:2f:ad:bf:3e:9f:60:41:63:
                    e6:41:c7:5d:8d:ee:3d:3c:a5:33:5d:f7:9c:c8:70:
                    fe:33:47:c9:df:99:50:2c:41
                Exponent: 65537 (0x10001)
        X509v3 extensions:
            X509v3 Basic Constraints: 
                CA:FALSE
            Netscape Comment: 
                Easy-RSA Generated Certificate
            X509v3 Subject Key Identifier: 
                21:3F:19:28:25:FD:9D:03:C6:41:CD:BC:AE:78:0D:FD:A8:D2:FE:45
            X509v3 Authority Key Identifier: 
                keyid:F8:AD:6B:CF:05:6A:F5:01:B7:8A:6F:A2:91:D0:F3:C3:E3:2B:62:F3
                DirName:/C=RU/ST=SAMARSKAYA/L=TOGLIATTY/O=NEOTREID-LTD/CN=NEOTREID-LTD CA/emailAddress=muxa@neo63.ru
                serial:A3:2E:2A:A8:AE:52:1B:B7

            X509v3 Extended Key Usage: 
                TLS Web Client Authentication
            X509v3 Key Usage: 
                Digital Signature
    Signature Algorithm: sha1WithRSAEncryption
         82:dc:ab:71:51:e9:bf:af:43:e0:56:b6:b1:25:43:2d:78:8f:
         90:dd:af:91:14:a4:91:71:ea:95:6c:82:e8:6b:d0:eb:58:2d:
         2c:18:33:9e:dd:3b:32:54:78:76:cd:b6:2f:07:23:42:80:99:
         44:41:bb:6f:c5:05:bc:c1:c3:72:4d:e4:8e:2a:9c:92:c8:cc:
         71:80:0e:58:a9:d8:2a:4c:bc:be:f1:ed:8e:8b:32:95:04:53:
         c0:7b:47:55:02:2f:aa:c8:48:ce:fe:e5:35:20:d5:64:34:43:
         70:15:26:69:02:62:6c:fb:4a:7b:7d:07:69:20:dd:a3:34:76:
         c9:55
-----BEGIN CERTIFICATE-----
MIIDuzCCAySgAwIBAgIBDzANBgkqhkiG9w0BAQUFADCBhTELMAkGA1UEBhMCUlUx
EzARBgNVBAgTClNBTUFSU0tBWUExEjAQBgNVBAcTCVRPR0xJQVRUWTEVMBMGA1UE
ChMMTkVPVFJFSUQtTFREMRgwFgYDVQQDEw9ORU9UUkVJRC1MVEQgQ0ExHDAaBgkq
hkiG9w0BCQEWDW11eGFAbmVvNjMucnUwHhcNMTUxMTI0MDgyMDQxWhcNMjUxMTIx
MDgyMDQxWjCBgDELMAkGA1UEBhMCUlUxEzARBgNVBAgTClNBTUFSU0tBWUExEjAQ
BgNVBAcTCVRPR0xJQVRUWTEVMBMGA1UEChMMTkVPVFJFSUQtTFREMRMwEQYDVQQD
Ewp1c2hha292YTQwMRwwGgYJKoZIhvcNAQkBFg1tdXhhQG5lbzYzLnJ1MIGfMA0G
CSqGSIb3DQEBAQUAA4GNADCBiQKBgQDYlymfpLXk9tI7Iifyqoxx/blxze196Uwy
PL2BjnV15q+CT7QAIjOscb0VV6GDF/2+lk1kpAM6UBoAfwInIagwpL7AxnKPKsuS
v8i6gQ5r16LRlV9YVWkcuMfRE99s1CIvrb8+n2BBY+ZBx12N7j08pTNd95zIcP4z
R8nfmVAsQQIDAQABo4IBPDCCATgwCQYDVR0TBAIwADAtBglghkgBhvhCAQ0EIBYe
RWFzeS1SU0EgR2VuZXJhdGVkIENlcnRpZmljYXRlMB0GA1UdDgQWBBQhPxkoJf2d
A8ZBzbyueA39qNL+RTCBugYDVR0jBIGyMIGvgBT4rWvPBWr1AbeKb6KR0PPD4yti
86GBi6SBiDCBhTELMAkGA1UEBhMCUlUxEzARBgNVBAgTClNBTUFSU0tBWUExEjAQ
BgNVBAcTCVRPR0xJQVRUWTEVMBMGA1UEChMMTkVPVFJFSUQtTFREMRgwFgYDVQQD
Ew9ORU9UUkVJRC1MVEQgQ0ExHDAaBgkqhkiG9w0BCQEWDW11eGFAbmVvNjMucnWC
CQCjLiqorlIbtzATBgNVHSUEDDAKBggrBgEFBQcDAjALBgNVHQ8EBAMCB4AwDQYJ
KoZIhvcNAQEFBQADgYEAgtyrcVHpv69D4Fa2sSVDLXiPkN2vkRSkkXHqlWyC6GvQ
61gtLBgznt07MlR4ds22LwcjQoCZREG7b8UFvMHDck3kjiqcksjMcYAOWKnYKky8
vvHtjosylQRTwHtHVQIvqshIzv7lNSDVZDRDcBUmaQJibPtKe30HaSDdozR2yVU=
-----END CERTIFICATE-----
