Certificate:
    Data:
        Version: 3 (0x2)
        Serial Number: 18 (0x12)
    Signature Algorithm: sha1WithRSAEncryption
        Issuer: C=RU, ST=SAMARSKAYA, L=TOGLIATTY, O=NEOTREID-LTD, CN=NEOTREID-LTD CA/emailAddress=muxa@neo63.ru
        Validity
            Not Before: Dec 31 17:44:51 2015 GMT
            Not After : Dec 28 17:44:51 2025 GMT
        Subject: C=RU, ST=SAMARSKAYA, L=TOGLIATTY, O=NEOTREID-LTD, CN=sanek_noute/emailAddress=muxa@neo63.ru
        Subject Public Key Info:
            Public Key Algorithm: rsaEncryption
                Public-Key: (1024 bit)
                Modulus:
                    00:c7:fe:3a:3b:67:ac:72:08:ed:5d:23:e5:a3:af:
                    ea:36:28:46:df:79:49:e9:f1:1e:33:e2:a7:a7:0a:
                    a7:31:d9:f5:79:9e:91:ae:af:6b:6c:ab:7d:eb:d4:
                    3b:93:e2:b0:0a:65:29:cb:b5:23:66:1c:e6:fd:3d:
                    32:ad:c5:3f:99:d5:75:a1:8c:cd:81:9f:6f:dc:66:
                    b5:90:aa:c2:ea:35:d9:2b:79:d2:ed:72:bc:6f:bd:
                    f6:fb:2f:b3:df:8b:b5:01:02:c4:6e:92:3a:2a:01:
                    36:94:8b:d8:bf:78:cc:32:33:1c:19:b1:f5:86:ed:
                    e9:07:44:56:a3:12:a1:81:67
                Exponent: 65537 (0x10001)
        X509v3 extensions:
            X509v3 Basic Constraints: 
                CA:FALSE
            Netscape Comment: 
                Easy-RSA Generated Certificate
            X509v3 Subject Key Identifier: 
                F5:FC:D0:15:F7:E1:3E:68:3F:33:83:1A:B3:17:25:40:A6:47:00:DC
            X509v3 Authority Key Identifier: 
                keyid:F8:AD:6B:CF:05:6A:F5:01:B7:8A:6F:A2:91:D0:F3:C3:E3:2B:62:F3
                DirName:/C=RU/ST=SAMARSKAYA/L=TOGLIATTY/O=NEOTREID-LTD/CN=NEOTREID-LTD CA/emailAddress=muxa@neo63.ru
                serial:A3:2E:2A:A8:AE:52:1B:B7

            X509v3 Extended Key Usage: 
                TLS Web Client Authentication
            X509v3 Key Usage: 
                Digital Signature
    Signature Algorithm: sha1WithRSAEncryption
         26:9a:19:ac:b4:a7:ab:25:52:10:9a:6c:68:9b:d4:97:5b:3d:
         f8:39:e3:e9:7d:a0:d8:eb:d1:7b:ee:24:90:66:d0:a2:d5:4f:
         85:f9:50:68:c8:ea:8e:04:25:66:ac:37:a4:2b:f4:e8:de:a3:
         a7:08:50:c2:22:78:a9:0f:61:f0:37:14:85:09:c3:ab:4b:95:
         68:74:ec:f1:2b:91:13:45:05:cc:5a:fd:d2:77:b9:a8:09:42:
         69:92:ca:32:c2:48:2c:cd:bb:7f:1b:05:6a:be:71:49:02:f3:
         6b:f8:83:d1:6f:7d:bd:c5:7e:5a:b0:26:33:a1:fa:d6:22:aa:
         13:95
-----BEGIN CERTIFICATE-----
MIIDvDCCAyWgAwIBAgIBEjANBgkqhkiG9w0BAQUFADCBhTELMAkGA1UEBhMCUlUx
EzARBgNVBAgTClNBTUFSU0tBWUExEjAQBgNVBAcTCVRPR0xJQVRUWTEVMBMGA1UE
ChMMTkVPVFJFSUQtTFREMRgwFgYDVQQDEw9ORU9UUkVJRC1MVEQgQ0ExHDAaBgkq
hkiG9w0BCQEWDW11eGFAbmVvNjMucnUwHhcNMTUxMjMxMTc0NDUxWhcNMjUxMjI4
MTc0NDUxWjCBgTELMAkGA1UEBhMCUlUxEzARBgNVBAgTClNBTUFSU0tBWUExEjAQ
BgNVBAcTCVRPR0xJQVRUWTEVMBMGA1UEChMMTkVPVFJFSUQtTFREMRQwEgYDVQQD
FAtzYW5la19ub3V0ZTEcMBoGCSqGSIb3DQEJARYNbXV4YUBuZW82My5ydTCBnzAN
BgkqhkiG9w0BAQEFAAOBjQAwgYkCgYEAx/46O2escgjtXSPlo6/qNihG33lJ6fEe
M+KnpwqnMdn1eZ6Rrq9rbKt969Q7k+KwCmUpy7UjZhzm/T0yrcU/mdV1oYzNgZ9v
3Ga1kKrC6jXZK3nS7XK8b732+y+z34u1AQLEbpI6KgE2lIvYv3jMMjMcGbH1hu3p
B0RWoxKhgWcCAwEAAaOCATwwggE4MAkGA1UdEwQCMAAwLQYJYIZIAYb4QgENBCAW
HkVhc3ktUlNBIEdlbmVyYXRlZCBDZXJ0aWZpY2F0ZTAdBgNVHQ4EFgQU9fzQFffh
Pmg/M4MasxclQKZHANwwgboGA1UdIwSBsjCBr4AU+K1rzwVq9QG3im+ikdDzw+Mr
YvOhgYukgYgwgYUxCzAJBgNVBAYTAlJVMRMwEQYDVQQIEwpTQU1BUlNLQVlBMRIw
EAYDVQQHEwlUT0dMSUFUVFkxFTATBgNVBAoTDE5FT1RSRUlELUxURDEYMBYGA1UE
AxMPTkVPVFJFSUQtTFREIENBMRwwGgYJKoZIhvcNAQkBFg1tdXhhQG5lbzYzLnJ1
ggkAoy4qqK5SG7cwEwYDVR0lBAwwCgYIKwYBBQUHAwIwCwYDVR0PBAQDAgeAMA0G
CSqGSIb3DQEBBQUAA4GBACaaGay0p6slUhCabGib1JdbPfg54+l9oNjr0XvuJJBm
0KLVT4X5UGjI6o4EJWasN6Qr9Ojeo6cIUMIieKkPYfA3FIUJw6tLlWh07PErkRNF
Bcxa/dJ3uagJQmmSyjLCSCzNu38bBWq+cUkC82v4g9Fvfb3FflqwJjOh+tYiqhOV
-----END CERTIFICATE-----
